Microsoft (R) COFF Binary File Dumper Version 6.00.8447
Copyright (C) Microsoft Corp 1992-1998. All rights reserved.


Dump of file a.exe

File Type: EXECUTABLE IMAGE

__size_of_stack_commit__:
  00401000: F3 C3              rep ret
  00401002: 8D B4 26 00 00 00  lea         esi,[esi]
            00
  00401009: 8D BC 27 00 00 00  lea         edi,[edi]
            00
  00401010: 83 EC 2C           sub         esp,2Ch
  00401013: A1 20 10 41 00     mov         eax,[00411020]
  00401018: C7 44 24 10 18 10  mov         dword ptr [esp+10h],411018h
            41 00
__FindPESectionByName:
  00401020: C7 44 24 08 0C 10  mov         dword ptr [esp+8],41100Ch
            41 00
  00401028: C7 44 24 04 08 10  mov         dword ptr [esp+4],411008h
            41 00
  00401030: A3 18 10 41 00     mov         [00411018],eax
  00401035: A1 04 F0 40 00     mov         eax,[0040F004]
  0040103A: C7 04 24 04 10 41  mov         dword ptr [esp],411004h
            00
  00401041: 89 44 24 0C        mov         dword ptr [esp+0Ch],eax
  00401045: E8 C6 CE 00 00     call        0040DF10
  0040104A: A3 1C 10 41 00     mov         [0041101C],eax
  0040104F: 83 C4 2C           add         esp,2Ch
  00401052: C3                 ret
  00401053: 8D B6 00 00 00 00  lea         esi,[esi]
  00401059: 8D BC 27 00 00 00  lea         edi,[edi]
            00
  00401060: 83 EC 1C           sub         esp,1Ch
  00401063: 31 C0              xor         eax,eax
  00401065: 66 81 3D 00 00 40  cmp         word ptr ds:[400000h],5A4Dh
            00 4D 5A
  0040106E: C7 05 2C 10 41 00  mov         dword ptr ds:[41102Ch],1
            01 00 00 00
  00401078: C7 05 28 10 41 00  mov         dword ptr ds:[411028h],1
            01 00 00 00
  00401082: C7 05 24 10 41 00  mov         dword ptr ds:[411024h],1
            01 00 00 00
  0040108C: C7 05 34 10 41 00  mov         dword ptr ds:[411034h],1
            01 00 00 00
  00401096: 74 68              je          00401100
  00401098: A3 14 10 41 00     mov         [00411014],eax
  0040109D: A1 38 10 41 00     mov         eax,[00411038]
  004010A2: 85 C0              test        eax,eax
  004010A4: 74 4A              je          ___mingw_GetSectionCount
  004010A6: C7 04 24 02 00 00  mov         dword ptr [esp],2
            00
  004010AD: E8 66 CE 00 00     call        0040DF18
  004010B2: C7 04 24 FF FF FF  mov         dword ptr [esp],0FFFFFFFFh
            FF
  004010B9: E8 82 06 00 00     call        00401740
  004010BE: 8B 15 3C 10 41 00  mov         edx,dword ptr ds:[41103Ch]
  004010C4: A3 88 1D 41 00     mov         [00411D88],eax
  004010C9: A3 8C 1D 41 00     mov         [00411D8C],eax
  004010CE: A1 58 22 41 00     mov         eax,[00412258]
  004010D3: 89 10              mov         dword ptr [eax],edx
  004010D5: E8 76 09 00 00     call        00401A50
  004010DA: 83 3D 1C F0 40 00  cmp         dword ptr ds:[40F01Ch],1
            01
  004010E1: 74 6D              je          00401150
  004010E3: 31 C0              xor         eax,eax
  004010E5: 83 C4 1C           add         esp,1Ch
  004010E8: C3                 ret
  004010E9: 8D B4 26 00 00 00  lea         esi,[esi]
            00
___mingw_GetSectionCount:
  004010F0: C7 04 24 01 00 00  mov         dword ptr [esp],1
            00
  004010F7: E8 1C CE 00 00     call        0040DF18
  004010FC: EB B4              jmp         004010B2
  004010FE: 66
  004010FF: 90                 nop
  00401100: 8B 15 3C 00 40 00  mov         edx,dword ptr [.idata$2]
  00401106: 81 BA 00 00 40 00  cmp         dword ptr [edx+400000h],4550h
            50 45 00 00
  00401110: 8D 8A 00 00 40 00  lea         ecx,[edx+400000h]
  00401116: 75 80              jne         00401098
  00401118: 0F B7 51 18        movzx       edx,word ptr [ecx+18h]
  0040111C: 66 81 FA 0B 01     cmp         dx,10Bh
  00401121: 74 3F              je          00401162
  00401123: 66 81 FA 0B 02     cmp         dx,20Bh
  00401128: 0F 85 6A FF FF FF  jne         00401098
  0040112E: 83 B9 84 00 00 00  cmp         dword ptr [ecx+84h],0Eh
            0E
  00401135: 0F 86 5D FF FF FF  jbe         00401098
  0040113B: 8B 91 F8 00 00 00  mov         edx,dword ptr [ecx+0F8h]
  00401141: 31 C0              xor         eax,eax
  00401143: 85 D2              test        edx,edx
  00401145: 0F 95 C0           setne       al
  00401148: E9 4B FF FF FF     jmp         00401098
  0040114D: 8D 76 00           lea         esi,[esi]
  00401150: C7 04 24 F0 19 40  mov         dword ptr [esp],4019F0h
            00
  00401157: E8 84 08 00 00     call        _resize_gcollect
  0040115C: 31 C0              xor         eax,eax
  0040115E: 83 C4 1C           add         esp,1Ch
  00401161: C3                 ret
  00401162: 83 79 74 0E        cmp         dword ptr [ecx+74h],0Eh
  00401166: 0F 86 2C FF FF FF  jbe         00401098
  0040116C: 8B 89 E8 00 00 00  mov         ecx,dword ptr [ecx+0E8h]
  00401172: 31 C0              xor         eax,eax
  00401174: 85 C9              test        ecx,ecx
  00401176: 0F 95 C0           setne       al
  00401179: E9 1A FF FF FF     jmp         00401098
  0040117E: 66
  0040117F: 90                 nop
__GetPEImageBase:
  00401180: 55                 push        ebp
  00401181: 31 C0              xor         eax,eax
  00401183: 89 E5              mov         ebp,esp
  00401185: B9 11 00 00 00     mov         ecx,11h
  0040118A: 57                 push        edi
  0040118B: 56                 push        esi
  0040118C: 8D 55 A4           lea         edx,[ebp-5Ch]
  0040118F: 53                 push        ebx
  00401190: 89 D7              mov         edi,edx
  00401192: 83 EC 7C           sub         esp,7Ch
  00401195: F3 AB              rep stos    dword ptr [edi]
  00401197: B0 30              mov         al,30h
  00401199: E8 1A 16 00 00     call        004027B8
  0040119E: 29 C4              sub         esp,eax
  004011A0: 8D 44 24 1B        lea         eax,[esp+1Bh]
  004011A4: 83 E0 F0           and         eax,0FFFFFFF0h
  004011A7: C7 00 CC CC CC CC  mov         dword ptr [eax],0CCCCCCCCh
  004011AD: C7 40 04 CC CC CC  mov         dword ptr [eax+4],0CCCCCCCCh
            CC
  004011B4: C7 40 08 CC CC CC  mov         dword ptr [eax+8],0CCCCCCCCh
            CC
  004011BB: C7 40 0C CC CC CC  mov         dword ptr [eax+0Ch],0CCCCCCCCh
            CC
  004011C2: C7 40 10 CC CC CC  mov         dword ptr [eax+10h],0CCCCCCCCh
            CC
  004011C9: C7 40 14 CC CC CC  mov         dword ptr [eax+14h],0CCCCCCCCh
            CC
  004011D0: C7 40 18 CC CC CC  mov         dword ptr [eax+18h],0CCCCCCCCh
            CC
  004011D7: C7 40 1C CC CC CC  mov         dword ptr [eax+1Ch],0CCCCCCCCh
            CC
  004011DE: 83 E4 F0           and         esp,0FFFFFFF0h
  004011E1: A1 38 10 41 00     mov         eax,[00411038]
  004011E6: 85 C0              test        eax,eax
  004011E8: 0F 85 92 02 00 00  jne         00401480
  004011EE: 64 A1 18 00 00 00  mov         eax,fs:[00000018]
  004011F4: 8B 35 0C 22 41 00  mov         esi,dword ptr ds:[41220Ch]
  004011FA: 8B 58 04           mov         ebx,dword ptr [eax+4]
  004011FD: EB 15              jmp         00401214
  004011FF: 90                 nop
___mingw_enum_import_library_names:
  00401200: 39 D8              cmp         eax,ebx
  00401202: 0F 84 28 02 00 00  je          00401430
  00401208: C7 04 24 E8 03 00  mov         dword ptr [esp],3E8h
            00
  0040120F: FF D6              call        esi
  00401211: 83 EC 04           sub         esp,4
  00401214: C7 44 24 08 00 00  mov         dword ptr [esp+8],0
            00 00
  0040121C: 89 5C 24 04        mov         dword ptr [esp+4],ebx
  00401220: C7 04 24 90 1D 41  mov         dword ptr [esp],411D90h
            00
  00401227: E8 04 04 00 00     call        00401630
  0040122C: 83 EC 0C           sub         esp,0Ch
  0040122F: 85 C0              test        eax,eax
  00401231: 75 CD              jne         ___mingw_enum_import_library_names
  00401233: A1 94 1D 41 00     mov         eax,[00411D94]
  00401238: 31 DB              xor         ebx,ebx
  0040123A: 83 F8 01           cmp         eax,1
  0040123D: 0F 84 00 02 00 00  je          00401443
  00401243: A1 94 1D 41 00     mov         eax,[00411D94]
  00401248: 85 C0              test        eax,eax
  0040124A: 0F 84 41 02 00 00  je          00401491
  00401250: C7 05 00 10 41 00  mov         dword ptr ds:[411000h],1
            01 00 00 00
  0040125A: A1 94 1D 41 00     mov         eax,[00411D94]
  0040125F: 83 F8 01           cmp         eax,1
  00401262: 0F 84 F5 01 00 00  je          0040145D
  00401268: 85 DB              test        ebx,ebx
  0040126A: 75 07              jne         00401273
  0040126C: F0 87 1D 90 1D 41  lock xchg   ebx,dword ptr ds:[411D90h]
            00
  00401273: A1 50 00 41 00     mov         eax,[00410050]
  00401278: 85 C0              test        eax,eax
  0040127A: 74 1C              je          00401298
  0040127C: C7 44 24 08 00 00  mov         dword ptr [esp+8],0
            00 00
  00401284: C7 44 24 04 02 00  mov         dword ptr [esp+4],2
            00 00
  0040128C: C7 04 24 00 00 00  mov         dword ptr [esp],0
            00
  00401293: FF D0              call        eax
  00401295: 83 EC 0C           sub         esp,0Ch
  00401298: E8 63 0A 00 00     call        00401D00
  0040129D: C7 04 24 30 18 40  mov         dword ptr [esp],401830h
            00
  004012A4: FF 15 08 22 41 00  call        dword ptr ds:[412208h]
  004012AA: 83 EC 04           sub         esp,4
  004012AD: A3 40 10 41 00     mov         [00411040],eax
  004012B2: E8 D9 0F 00 00     call        00402290
  004012B7: C7 44 24 04 00 00  mov         dword ptr [esp+4],410000h
            41 00
  004012BF: 89 04 24           mov         dword ptr [esp],eax
  004012C2: FF 15 E0 21 41 00  call        dword ptr ds:[4121E0h]
  004012C8: 83 EC 08           sub         esp,8
  004012CB: 85 C0              test        eax,eax
  004012CD: 74 09              je          004012D8
  004012CF: C7 04 24 00 10 40  mov         dword ptr [esp],offset __size_of_stack_commit__
            00
  004012D6: FF D0              call        eax
  004012D8: E8 73 10 00 00     call        00402350
  004012DD: A1 48 22 41 00     mov         eax,[00412248]
  004012E2: 31 C9              xor         ecx,ecx
  004012E4: C7 05 84 1D 41 00  mov         dword ptr ds:[411D84h],400000h
            00 00 40 00
  004012EE: 8B 00              mov         eax,dword ptr [eax]
  004012F0: 85 C0              test        eax,eax
  004012F2: 75 16              jne         0040130A
  004012F4: EB 3E              jmp         00401334
  004012F6: 84 D2              test        dl,dl
  004012F8: 74 35              je          0040132F
  004012FA: 85 C9              test        ecx,ecx
  004012FC: 8D 74 26 00        lea         esi,[esi]
  00401300: 74 22              je          00401324
  00401302: B9 01 00 00 00     mov         ecx,1
  00401307: 83 C0 01           add         eax,1
  0040130A: 0F B6 10           movzx       edx,byte ptr [eax]
  0040130D: 80 FA 20           cmp         dl,20h
  00401310: 7E E4              jle         004012F6
  00401312: 89 CB              mov         ebx,ecx
  00401314: 83 F3 01           xor         ebx,1
  00401317: 80 FA 22           cmp         dl,22h
  0040131A: 0F 44 CB           cmove       ecx,ebx
  0040131D: EB E8              jmp         00401307
  0040131F: 90                 nop
  00401320: 84 D2              test        dl,dl
  00401322: 74 0B              je          0040132F
  00401324: 83 C0 01           add         eax,1
  00401327: 0F B6 10           movzx       edx,byte ptr [eax]
  0040132A: 80 FA 20           cmp         dl,20h
  0040132D: 7E F1              jle         00401320
  0040132F: A3 80 1D 41 00     mov         [00411D80],eax
  00401334: A1 38 10 41 00     mov         eax,[00411038]
  00401339: 85 C0              test        eax,eax
  0040133B: 74 15              je          00401352
  0040133D: 0F B7 55 D4        movzx       edx,word ptr [ebp-2Ch]
  00401341: B8 0A 00 00 00     mov         eax,0Ah
  00401346: F6 45 D0 01        test        byte ptr [ebp-30h],1
  0040134A: 0F 45 C2           cmovne      eax,edx
  0040134D: A3 00 F0 40 00     mov         [0040F000],eax
  00401352: 8B 15 04 10 41 00  mov         edx,dword ptr ds:[411004h]
  00401358: 31 DB              xor         ebx,ebx
  0040135A: 8D 04 95 04 00 00  lea         eax,[edx*4+4]
            00
  00401361: 89 55 94           mov         dword ptr [ebp-6Ch],edx
  00401364: 89 04 24           mov         dword ptr [esp],eax
  00401367: E8 BC CB 00 00     call        0040DF28
  0040136C: 8B 3D 08 10 41 00  mov         edi,dword ptr ds:[411008h]
  00401372: 89 45 90           mov         dword ptr [ebp-70h],eax
  00401375: 8B 45 94           mov         eax,dword ptr [ebp-6Ch]
  00401378: 85 C0              test        eax,eax
  0040137A: 7E 3E              jle         004013BA
  0040137C: 8D 74 26 00        lea         esi,[esi]
  00401380: 8B 04 9F           mov         eax,dword ptr [edi+ebx*4]
  00401383: 89 04 24           mov         dword ptr [esp],eax
  00401386: E8 A5 CB 00 00     call        0040DF30
  0040138B: 8D 70 01           lea         esi,[eax+1]
  0040138E: 89 34 24           mov         dword ptr [esp],esi
  00401391: E8 92 CB 00 00     call        0040DF28
  00401396: 8B 55 90           mov         edx,dword ptr [ebp-70h]
  00401399: 89 04 9A           mov         dword ptr [edx+ebx*4],eax
  0040139C: 8B 14 9F           mov         edx,dword ptr [edi+ebx*4]
  0040139F: 83 C3 01           add         ebx,1
  004013A2: 89 74 24 08        mov         dword ptr [esp+8],esi
  004013A6: 89 04 24           mov         dword ptr [esp],eax
  004013A9: 89 54 24 04        mov         dword ptr [esp+4],edx
  004013AD: E8 6E CB 00 00     call        0040DF20
  004013B2: 3B 5D 94           cmp         ebx,dword ptr [ebp-6Ch]
  004013B5: 75 C9              jne         00401380
  004013B7: C1 E3 02           shl         ebx,2
  004013BA: 8B 45 90           mov         eax,dword ptr [ebp-70h]
  004013BD: C7 04 18 00 00 00  mov         dword ptr [eax+ebx],0
            00
  004013C4: A3 08 10 41 00     mov         [00411008],eax
  004013C9: E8 12 10 00 00     call        004023E0
  004013CE: A1 34 22 41 00     mov         eax,[00412234]
  004013D3: 8B 15 0C 10 41 00  mov         edx,dword ptr ds:[41100Ch]
  004013D9: 89 10              mov         dword ptr [eax],edx
  004013DB: A1 0C 10 41 00     mov         eax,[0041100C]
___main:
  004013E0: 89 44 24 08        mov         dword ptr [esp+8],eax
  004013E4: A1 08 10 41 00     mov         eax,[00411008]
  004013E9: 89 44 24 04        mov         dword ptr [esp+4],eax
  004013ED: A1 04 10 41 00     mov         eax,[00411004]
  004013F2: 89 04 24           mov         dword ptr [esp],eax
  004013F5: E8 66 01 00 00     call        ___mingwthr_run_key_dtors.part.0
  004013FA: 8B 35 14 10 41 00  mov         esi,dword ptr ds:[411014h]
___security_init_cookie:
  00401400: 85 F6              test        esi,esi
  00401402: A3 10 10 41 00     mov         [00411010],eax
  00401407: 0F 84 A7 00 00 00  je          004014B4
  0040140D: 8B 1D 00 10 41 00  mov         ebx,dword ptr ds:[411000h]
  00401413: 85 DB              test        ebx,ebx
  00401415: 75 0A              jne         00401421
  00401417: E8 1C CB 00 00     call        0040DF38
  0040141C: A1 10 10 41 00     mov         eax,[00411010]
  00401421: 8D 65 F4           lea         esp,[ebp-0Ch]
  00401424: 5B                 pop         ebx
  00401425: 5E                 pop         esi
  00401426: 5F                 pop         edi
  00401427: 5D                 pop         ebp
  00401428: C3                 ret
  00401429: 8D B4 26 00 00 00  lea         esi,[esi]
            00
  00401430: A1 94 1D 41 00     mov         eax,[00411D94]
  00401435: BB 01 00 00 00     mov         ebx,1
  0040143A: 83 F8 01           cmp         eax,1
  0040143D: 0F 85 00 FE FF FF  jne         00401243
  00401443: C7 04 24 1F 00 00  mov         dword ptr [esp],1Fh
            00
  0040144A: E8 F1 CA 00 00     call        0040DF40
  0040144F: A1 94 1D 41 00     mov         eax,[00411D94]
  00401454: 83 F8 01           cmp         eax,1
  00401457: 0F 85 0B FE FF FF  jne         00401268
  0040145D: C7 44 24 04 08 30  mov         dword ptr [esp+4],413008h
            41 00
  00401465: C7 04 24 00 30 41  mov         dword ptr [esp],413000h
            00
  0040146C: E8 D7 CA 00 00     call        0040DF48
  00401471: C7 05 94 1D 41 00  mov         dword ptr ds:[411D94h],2
            02 00 00 00
  0040147B: E9 E8 FD FF FF     jmp         00401268
  00401480: 89 14 24           mov         dword ptr [esp],edx
  00401483: FF 15 E4 21 41 00  call        dword ptr ds:[4121E4h]
  00401489: 83 EC 04           sub         esp,4
  0040148C: E9 5D FD FF FF     jmp         004011EE
  00401491: C7 05 94 1D 41 00  mov         dword ptr ds:[411D94h],1
            01 00 00 00
  0040149B: C7 44 24 04 18 30  mov         dword ptr [esp+4],413018h
            41 00
  004014A3: C7 04 24 0C 30 41  mov         dword ptr [esp],41300Ch
            00
  004014AA: E8 99 CA 00 00     call        0040DF48
  004014AF: E9 A6 FD FF FF     jmp         0040125A
  004014B4: 89 04 24           mov         dword ptr [esp],eax
  004014B7: E8 94 CA 00 00     call        0040DF50
  004014BC: 8D 74 26 00        lea         esi,[esi]
  004014C0: 83 EC 0C           sub         esp,0Ch
  004014C3: C7 05 38 10 41 00  mov         dword ptr ds:[411038h],1
            01 00 00 00
  004014CD: E8 2E 0F 00 00     call        00402400
  004014D2: 83 C4 0C           add         esp,0Ch
  004014D5: E9 A6 FC FF FF     jmp         __GetPEImageBase
  004014DA: 8D B6 00 00 00 00  lea         esi,[esi]
  004014E0: 83 EC 0C           sub         esp,0Ch
  004014E3: C7 05 38 10 41 00  mov         dword ptr ds:[411038h],0
            00 00 00 00
  004014ED: E8 0E 0F 00 00     call        00402400
  004014F2: 83 C4 0C           add         esp,0Ch
  004014F5: E9 86 FC FF FF     jmp         __GetPEImageBase
  004014FA: 90                 nop
  004014FB: 90                 nop
  004014FC: 90                 nop
  004014FD: 90                 nop
  004014FE: 90                 nop
  004014FF: 90                 nop
  00401500: A1 80 F0 40 00     mov         eax,[0040F080]
  00401505: 85 C0              test        eax,eax
  00401507: 74 43              je          0040154C
  00401509: 55                 push        ebp
  0040150A: 89 E5              mov         ebp,esp
  0040150C: 83 EC 18           sub         esp,18h
  0040150F: C7 04 24 20 00 41  mov         dword ptr [esp],410020h
            00
  00401516: FF 15 DC 21 41 00  call        dword ptr ds:[4121DCh]
  0040151C: BA 00 00 00 00     mov         edx,0
  00401521: 83 EC 04           sub         esp,4
  00401524: 85 C0              test        eax,eax
  00401526: 74 16              je          0040153E
  00401528: C7 44 24 04 2E 00  mov         dword ptr [esp+4],41002Eh
            41 00
  00401530: 89 04 24           mov         dword ptr [esp],eax
  00401533: FF 15 E0 21 41 00  call        dword ptr ds:[4121E0h]
  00401539: 83 EC 08           sub         esp,8
  0040153C: 89 C2              mov         edx,eax
  0040153E: 85 D2              test        edx,edx
  00401540: 74 09              je          0040154B
  00401542: C7 04 24 80 F0 40  mov         dword ptr [esp],40F080h
            00
  00401549: FF D2              call        edx
  0040154B: C9                 leave
  0040154C: F3 C3              rep ret
  0040154E: 66
  0040154F: 90                 nop
  00401550: 55                 push        ebp
  00401551: 89 E5              mov         ebp,esp
  00401553: 5D                 pop         ebp
  00401554: C3                 ret
  00401555: 90                 nop
  00401556: 90                 nop
  00401557: 90                 nop
  00401558: 90                 nop
  00401559: 90                 nop
  0040155A: 90                 nop
  0040155B: 90                 nop
  0040155C: 90                 nop
  0040155D: 90                 nop
  0040155E: 90                 nop
  0040155F: 90                 nop
___mingwthr_run_key_dtors.part.0:
  00401560: 55                 push        ebp
  00401561: 89 E5              mov         ebp,esp
  00401563: 57                 push        edi
  00401564: 56                 push        esi
  00401565: 53                 push        ebx
  00401566: 83 E4 F0           and         esp,0FFFFFFF0h
  00401569: 83 EC 60           sub         esp,60h
  0040156C: C7 44 24 34 38 16  mov         dword ptr [esp+34h],401638h
            40 00
  00401574: C7 44 24 38 4A E1  mov         dword ptr [esp+38h],40E14Ah
            40 00
  0040157C: 8D 44 24 3C        lea         eax,[esp+3Ch]
  00401580: 89 28              mov         dword ptr [eax],ebp
  00401582: BA 01 16 40 00     mov         edx,401601h
  00401587: 89 50 04           mov         dword ptr [eax+4],edx
  0040158A: 89 60 08           mov         dword ptr [eax+8],esp
  0040158D: 8D 44 24 1C        lea         eax,[esp+1Ch]
  00401591: 89 04 24           mov         dword ptr [esp],eax
  00401594: E8 07 12 00 00     call        004027A0
  00401599: E8 42 0E 00 00     call        004023E0
  0040159E: C7 44 24 5C 00 00  mov         dword ptr [esp+5Ch],0
            00 00
  004015A6: 66 C7 44 24 59 20  mov         word ptr [esp+59h],3120h
            31
  004015AD: C6 44 24 5B 00     mov         byte ptr [esp+5Bh],0
  004015B2: 8B 44 24 5C        mov         eax,dword ptr [esp+5Ch]
  004015B6: 89 44 24 04        mov         dword ptr [esp+4],eax
  004015BA: C7 04 24 44 00 41  mov         dword ptr [esp],410044h
            00
  004015C1: E8 12 CB 00 00     call        0040E0D8
  004015C6: 8D 44 24 5C        lea         eax,[esp+5Ch]
  004015CA: 89 44 24 04        mov         dword ptr [esp+4],eax
  004015CE: C7 04 24 4C 00 41  mov         dword ptr [esp],41004Ch
            00
  004015D5: C7 44 24 20 01 00  mov         dword ptr [esp+20h],1
            00 00
  004015DD: E8 6E CA 00 00     call        0040E050
  004015E2: 8B 44 24 5C        mov         eax,dword ptr [esp+5Ch]
  004015E6: 89 44 24 04        mov         dword ptr [esp+4],eax
  004015EA: C7 04 24 44 00 41  mov         dword ptr [esp],410044h
            00
  004015F1: E8 E2 CA 00 00     call        0040E0D8
  004015F6: B8 00 00 00 00     mov         eax,0
  004015FB: 89 44 24 18        mov         dword ptr [esp+18h],eax
  004015FF: EB 14              jmp         00401615
  00401601: 8B 44 24 24        mov         eax,dword ptr [esp+24h]
  00401605: 89 04 24           mov         dword ptr [esp],eax
  00401608: C7 44 24 20 FF FF  mov         dword ptr [esp+20h],0FFFFFFFFh
            FF FF
  00401610: E8 9B 11 00 00     call        004027B0
  00401615: 8D 44 24 1C        lea         eax,[esp+1Ch]
  00401619: 89 04 24           mov         dword ptr [esp],eax
  0040161C: E8 87 11 00 00     call        004027A8
  00401621: 8B 44 24 18        mov         eax,dword ptr [esp+18h]
  00401625: 8D 65 F4           lea         esp,[ebp-0Ch]
  00401628: 5B                 pop         ebx
  00401629: 5E                 pop         esi
  0040162A: 5F                 pop         edi
  0040162B: 5D                 pop         ebp
  0040162C: C3                 ret
  0040162D: 90                 nop
  0040162E: 90                 nop
  0040162F: 90                 nop
  00401630: FF 25 E0 22 41 00  jmp         dword ptr ds:[4122E0h]
  00401636: 90                 nop
  00401637: 90                 nop
  00401638: FF 25 E4 22 41 00  jmp         dword ptr ds:[4122E4h]
  0040163E: 90                 nop
  0040163F: 90                 nop
  00401640: 83 EC 1C           sub         esp,1Ch
  00401643: 8B 44 24 24        mov         eax,dword ptr [esp+24h]
  00401647: 85 C0              test        eax,eax
  00401649: 74 15              je          ____w64_mingwthr_remove_key_dtor
  0040164B: 83 F8 03           cmp         eax,3
  0040164E: 74 10              je          ____w64_mingwthr_remove_key_dtor
  00401650: B8 01 00 00 00     mov         eax,1
  00401655: 83 C4 1C           add         esp,1Ch
  00401658: C2 0C 00           ret         0Ch
  0040165B: 90                 nop
  0040165C: 8D 74 26 00        lea         esi,[esi]
____w64_mingwthr_remove_key_dtor:
  00401660: 8B 54 24 28        mov         edx,dword ptr [esp+28h]
  00401664: 89 44 24 04        mov         dword ptr [esp+4],eax
  00401668: 8B 44 24 20        mov         eax,dword ptr [esp+20h]
  0040166C: 89 54 24 08        mov         dword ptr [esp+8],edx
  00401670: 89 04 24           mov         dword ptr [esp],eax
  00401673: E8 88 10 00 00     call        00402700
  00401678: B8 01 00 00 00     mov         eax,1
  0040167D: 83 C4 1C           add         esp,1Ch
  00401680: C2 0C 00           ret         0Ch
  00401683: 8D B6 00 00 00 00  lea         esi,[esi]
  00401689: 8D BC 27 00 00 00  lea         edi,[edi]
            00
  00401690: 53                 push        ebx
  00401691: 83 EC 18           sub         esp,18h
  00401694: 83 3D 18 F0 40 00  cmp         dword ptr ds:[40F018h],2
            02
  0040169B: 8B 44 24 24        mov         eax,dword ptr [esp+24h]
  0040169F: 74 0A              je          004016AB
  004016A1: C7 05 18 F0 40 00  mov         dword ptr ds:[40F018h],2
            02 00 00 00
  004016AB: 83 F8 02           cmp         eax,2
  004016AE: 74 11              je          004016C1
  004016B0: 83 F8 01           cmp         eax,1
  004016B3: 74 3B              je          004016F0
  004016B5: 83 C4 18           add         esp,18h
  004016B8: B8 01 00 00 00     mov         eax,1
  004016BD: 5B                 pop         ebx
  004016BE: C2 0C 00           ret         0Ch
  004016C1: BB 30 30 41 00     mov         ebx,413030h
  004016C6: 81 FB 30 30 41 00  cmp         ebx,413030h
  004016CC: 74 E7              je          004016B5
  004016CE: 66
  004016CF: 90                 nop
  004016D0: 8B 03              mov         eax,dword ptr [ebx]
  004016D2: 85 C0              test        eax,eax
  004016D4: 74 02              je          004016D8
  004016D6: FF D0              call        eax
  004016D8: 83 C3 04           add         ebx,4
  004016DB: 81 FB 30 30 41 00  cmp         ebx,413030h
  004016E1: 75 ED              jne         004016D0
  004016E3: 83 C4 18           add         esp,18h
  004016E6: B8 01 00 00 00     mov         eax,1
  004016EB: 5B                 pop         ebx
  004016EC: C2 0C 00           ret         0Ch
  004016EF: 90                 nop
  004016F0: 8B 44 24 28        mov         eax,dword ptr [esp+28h]
  004016F4: C7 44 24 04 01 00  mov         dword ptr [esp+4],1
            00 00
  004016FC: 89 44 24 08        mov         dword ptr [esp+8],eax
___mingw_TLScallback:
  00401700: 8B 44 24 20        mov         eax,dword ptr [esp+20h]
  00401704: 89 04 24           mov         dword ptr [esp],eax
  00401707: E8 F4 0F 00 00     call        00402700
  0040170C: EB A7              jmp         004016B5
  0040170E: 66
  0040170F: 90                 nop
  00401710: 31 C0              xor         eax,eax
  00401712: C3                 ret
  00401713: 90                 nop
  00401714: 90                 nop
  00401715: 90                 nop
  00401716: 90                 nop
  00401717: 90                 nop
  00401718: 90                 nop
  00401719: 90                 nop
  0040171A: 90                 nop
  0040171B: 90                 nop
  0040171C: 90                 nop
  0040171D: 90                 nop
  0040171E: 90                 nop
  0040171F: 90                 nop
  00401720: A1 38 22 41 00     mov         eax,[00412238]
  00401725: FF E0              jmp         eax
  00401727: 90                 nop
  00401728: 90                 nop
  00401729: 90                 nop
  0040172A: 90                 nop
  0040172B: 90                 nop
  0040172C: 90                 nop
  0040172D: 90                 nop
  0040172E: 90                 nop
  0040172F: 90                 nop
  00401730: 8B 44 24 04        mov         eax,dword ptr [esp+4]
  00401734: C3                 ret
  00401735: 8D 74 26 00        lea         esi,[esi]
  00401739: 8D BC 27 00 00 00  lea         edi,[edi]
            00
  00401740: 8B 44 24 04        mov         eax,dword ptr [esp+4]
  00401744: C3                 ret
  00401745: 90                 nop
  00401746: 90                 nop
  00401747: 90                 nop
  00401748: 90                 nop
  00401749: 90                 nop
  0040174A: 90                 nop
  0040174B: 90                 nop
  0040174C: 90                 nop
  0040174D: 90                 nop
  0040174E: 90                 nop
  0040174F: 90                 nop
  00401750: 53                 push        ebx
  00401751: 83 EC 28           sub         esp,28h
  00401754: A1 8C 1D 41 00     mov         eax,[00411D8C]
  00401759: 89 04 24           mov         dword ptr [esp],eax
  0040175C: E8 CF FF FF FF     call        00401730
  00401761: 83 F8 FF           cmp         eax,0FFFFFFFFh
  00401764: 89 44 24 18        mov         dword ptr [esp+18h],eax
  00401768: 0F 84 82 00 00 00  je          ___mingw_scanf
  0040176E: C7 04 24 08 00 00  mov         dword ptr [esp],8
            00
  00401775: E8 DE C7 00 00     call        0040DF58
  0040177A: A1 8C 1D 41 00     mov         eax,[00411D8C]
  0040177F: 89 04 24           mov         dword ptr [esp],eax
  00401782: E8 A9 FF FF FF     call        00401730
  00401787: 89 44 24 18        mov         dword ptr [esp+18h],eax
  0040178B: A1 88 1D 41 00     mov         eax,[00411D88]
  00401790: 89 04 24           mov         dword ptr [esp],eax
  00401793: E8 98 FF FF FF     call        00401730
  00401798: 89 44 24 1C        mov         dword ptr [esp+1Ch],eax
  0040179C: 8D 44 24 1C        lea         eax,[esp+1Ch]
__Unwind_SjLj_Register:
  004017A0: 89 44 24 08        mov         dword ptr [esp+8],eax
  004017A4: 8D 44 24 18        lea         eax,[esp+18h]
.text:
  004017A8: 89 44 24 04        mov         dword ptr [esp+4],eax
  004017AC: 8B 44 24 30        mov         eax,dword ptr [esp+30h]
__Unwind_SjLj_Resume:
  004017B0: 89 04 24           mov         dword ptr [esp],eax
  004017B3: E8 A8 C7 00 00     call        0040DF60
___chkstk_ms:
  004017B8: 89 C3              mov         ebx,eax
  004017BA: 8B 44 24 18        mov         eax,dword ptr [esp+18h]
  004017BE: 89 04 24           mov         dword ptr [esp],eax
  004017C1: E8 7A FF FF FF     call        00401740
  004017C6: A3 8C 1D 41 00     mov         [00411D8C],eax
  004017CB: 8B 44 24 1C        mov         eax,dword ptr [esp+1Ch]
  004017CF: 89 04 24           mov         dword ptr [esp],eax
  004017D2: E8 69 FF FF FF     call        00401740
  004017D7: C7 04 24 08 00 00  mov         dword ptr [esp],8
            00
  004017DE: A3 88 1D 41 00     mov         [00411D88],eax
  004017E3: E8 80 C7 00 00     call        0040DF68
  004017E8: 83 C4 28           add         esp,28h
  004017EB: 89 D8              mov         eax,ebx
  004017ED: 5B                 pop         ebx
  004017EE: C3                 ret
  004017EF: 90                 nop
___mingw_scanf:
  004017F0: 8B 44 24 30        mov         eax,dword ptr [esp+30h]
  004017F4: 89 04 24           mov         dword ptr [esp],eax
  004017F7: FF 15 68 22 41 00  call        dword ptr ds:[412268h]
  004017FD: 83 C4 28           add         esp,28h
  00401800: 89 C3              mov         ebx,eax
  00401802: 89 D8              mov         eax,ebx
  00401804: 5B                 pop         ebx
  00401805: C3                 ret
  00401806: 8D 76 00           lea         esi,[esi]
  00401809: 8D BC 27 00 00 00  lea         edi,[edi]
            00
  00401810: 83 EC 1C           sub         esp,1Ch
  00401813: 8B 44 24 20        mov         eax,dword ptr [esp+20h]
  00401817: 89 04 24           mov         dword ptr [esp],eax
  0040181A: E8 31 FF FF FF     call        00401750
  0040181F: 83 F8 01           cmp         eax,1
  00401822: 19 C0              sbb         eax,eax
  00401824: 83 C4 1C           add         esp,1Ch
  00401827: C3                 ret
  00401828: 90                 nop
  00401829: 90                 nop
  0040182A: 90                 nop
  0040182B: 90                 nop
  0040182C: 90                 nop
  0040182D: 90                 nop
  0040182E: 90                 nop
  0040182F: 90                 nop
  00401830: 56                 push        esi
  00401831: 53                 push        ebx
  00401832: 83 EC 14           sub         esp,14h
  00401835: 8B 5C 24 20        mov         ebx,dword ptr [esp+20h]
  00401839: 8B 03              mov         eax,dword ptr [ebx]
  0040183B: 8B 00              mov         eax,dword ptr [eax]
  0040183D: 3D 91 00 00 C0     cmp         eax,0C0000091h
  00401842: 77 43              ja          00401887
  00401844: 3D 8D 00 00 C0     cmp         eax,0C000008Dh
  00401849: 72 65              jb          004018B0
  0040184B: BE 01 00 00 00     mov         esi,1
___mingw_vprintf:
  00401850: C7 44 24 04 00 00  mov         dword ptr [esp+4],0
            00 00
  00401858: C7 04 24 08 00 00  mov         dword ptr [esp],8
            00
  0040185F: E8 0C C7 00 00     call        0040DF70
  00401864: 83 F8 01           cmp         eax,1
  00401867: 0F 84 F3 00 00 00  je          00401960
  0040186D: 85 C0              test        eax,eax
  0040186F: 74 2B              je          0040189C
  00401871: C7 04 24 08 00 00  mov         dword ptr [esp],8
            00
  00401878: FF D0              call        eax
  0040187A: B8 FF FF FF FF     mov         eax,0FFFFFFFFh
  0040187F: 83 C4 14           add         esp,14h
  00401882: 5B                 pop         ebx
  00401883: 5E                 pop         esi
  00401884: C2 04 00           ret         4
  00401887: 3D 94 00 00 C0     cmp         eax,0C0000094h
  0040188C: 74 58              je          004018E6
  0040188E: 3D 96 00 00 C0     cmp         eax,0C0000096h
  00401893: 74 29              je          004018BE
  00401895: 3D 93 00 00 C0     cmp         eax,0C0000093h
  0040189A: 74 AF              je          0040184B
  0040189C: A1 40 10 41 00     mov         eax,[00411040]
  004018A1: 85 C0              test        eax,eax
  004018A3: 74 DA              je          0040187F
  004018A5: 89 5C 24 20        mov         dword ptr [esp+20h],ebx
  004018A9: 83 C4 14           add         esp,14h
  004018AC: 5B                 pop         ebx
  004018AD: 5E                 pop         esi
  004018AE: FF E0              jmp         eax
  004018B0: 3D 05 00 00 C0     cmp         eax,0C0000005h
  004018B5: 74 39              je          004018F0
  004018B7: 3D 1D 00 00 C0     cmp         eax,0C000001Dh
  004018BC: 75 DE              jne         0040189C
  004018BE: C7 44 24 04 00 00  mov         dword ptr [esp+4],0
            00 00
  004018C6: C7 04 24 04 00 00  mov         dword ptr [esp],4
            00
  004018CD: E8 9E C6 00 00     call        0040DF70
  004018D2: 83 F8 01           cmp         eax,1
  004018D5: 74 49              je          00401920
  004018D7: 85 C0              test        eax,eax
  004018D9: 74 C1              je          0040189C
  004018DB: C7 04 24 04 00 00  mov         dword ptr [esp],4
            00
  004018E2: FF D0              call        eax
  004018E4: EB 94              jmp         0040187A
  004018E6: 31 F6              xor         esi,esi
  004018E8: E9 63 FF FF FF     jmp         ___mingw_vprintf
  004018ED: 8D 76 00           lea         esi,[esi]
  004018F0: C7 44 24 04 00 00  mov         dword ptr [esp+4],0
            00 00
  004018F8: C7 04 24 0B 00 00  mov         dword ptr [esp],0Bh
            00
  004018FF: E8 6C C6 00 00     call        0040DF70
  00401904: 83 F8 01           cmp         eax,1
  00401907: 74 37              je          _resize_wbuf
  00401909: 85 C0              test        eax,eax
  0040190B: 74 8F              je          0040189C
  0040190D: C7 04 24 0B 00 00  mov         dword ptr [esp],0Bh
            00
  00401914: FF D0              call        eax
  00401916: E9 5F FF FF FF     jmp         0040187A
  0040191B: 90                 nop
  0040191C: 8D 74 26 00        lea         esi,[esi]
  00401920: C7 44 24 04 01 00  mov         dword ptr [esp+4],1
            00 00
  00401928: C7 04 24 04 00 00  mov         dword ptr [esp],4
            00
  0040192F: E8 3C C6 00 00     call        0040DF70
  00401934: E9 41 FF FF FF     jmp         0040187A
  00401939: 8D B4 26 00 00 00  lea         esi,[esi]
            00
_resize_wbuf:
  00401940: C7 44 24 04 01 00  mov         dword ptr [esp+4],1
            00 00
  00401948: C7 04 24 0B 00 00  mov         dword ptr [esp],0Bh
            00
  0040194F: E8 1C C6 00 00     call        0040DF70
  00401954: E9 21 FF FF FF     jmp         0040187A
  00401959: 8D B4 26 00 00 00  lea         esi,[esi]
            00
  00401960: C7 44 24 04 01 00  mov         dword ptr [esp+4],1
            00 00
  00401968: C7 04 24 08 00 00  mov         dword ptr [esp],8
            00
  0040196F: E8 FC C5 00 00     call        0040DF70
  00401974: 85 F6              test        esi,esi
  00401976: 0F 84 FE FE FF FF  je          0040187A
  0040197C: E8 CF 09 00 00     call        00402350
  00401981: E9 F4 FE FF FF     jmp         0040187A
  00401986: 90                 nop
  00401987: 90                 nop
  00401988: 90                 nop
  00401989: 90                 nop
  0040198A: 90                 nop
  0040198B: 90                 nop
  0040198C: 90                 nop
  0040198D: 90                 nop
  0040198E: 90                 nop
  0040198F: 90                 nop
  00401990: 83 EC 3C           sub         esp,3Ch
  00401993: A1 44 10 41 00     mov         eax,[00411044]
  00401998: DD 44 24 48        fld         qword ptr [esp+48h]
  0040199C: DD 44 24 50        fld         qword ptr [esp+50h]
  004019A0: DD 44 24 58        fld         qword ptr [esp+58h]
  004019A4: 85 C0              test        eax,eax
  004019A6: 74 29              je          004019D1
  004019A8: D9 CA              fxch        st(2)
  004019AA: 8B 54 24 40        mov         edx,dword ptr [esp+40h]
  004019AE: DD 5C 24 18        fstp        qword ptr [esp+18h]
  004019B2: DD 5C 24 20        fstp        qword ptr [esp+20h]
  004019B6: DD 5C 24 28        fstp        qword ptr [esp+28h]
  004019BA: 89 54 24 10        mov         dword ptr [esp+10h],edx
  004019BE: 8B 54 24 44        mov         edx,dword ptr [esp+44h]
  004019C2: 89 54 24 14        mov         dword ptr [esp+14h],edx
  004019C6: 8D 54 24 10        lea         edx,[esp+10h]
  004019CA: 89 14 24           mov         dword ptr [esp],edx
  004019CD: FF D0              call        eax
  004019CF: EB 06              jmp         004019D7
  004019D1: DD D8              fstp        st(0)
  004019D3: DD D8              fstp        st(0)
  004019D5: DD D8              fstp        st(0)
  004019D7: 83 C4 3C           add         esp,3Ch
  004019DA: C3                 ret
  004019DB: 90                 nop
  004019DC: 8D 74 26 00        lea         esi,[esi]
_resize_gcollect:
  004019E0: 8B 44 24 04        mov         eax,dword ptr [esp+4]
  004019E4: A3 44 10 41 00     mov         [00411044],eax
  004019E9: E9 8A C5 00 00     jmp         0040DF78
  004019EE: 66
  004019EF: 90                 nop
  004019F0: 83 EC 3C           sub         esp,3Ch
  004019F3: BA 54 00 41 00     mov         edx,410054h
  004019F8: 8B 44 24 40        mov         eax,dword ptr [esp+40h]
  004019FC: 8B 08              mov         ecx,dword ptr [eax]
  004019FE: 83 E9 01           sub         ecx,1
  00401A01: 83 F9 05           cmp         ecx,5
  00401A04: 77 07              ja          00401A0D
  00401A06: 8B 14 8D 70 01 41  mov         edx,dword ptr [ecx*4+410170h]
            00
  00401A0D: DD 40 18           fld         qword ptr [eax+18h]
_release_ptrs:
  00401A10: DD 5C 24 20        fstp        qword ptr [esp+20h]
  00401A14: DD 40 10           fld         qword ptr [eax+10h]
  00401A17: DD 5C 24 18        fstp        qword ptr [esp+18h]
  00401A1B: DD 40 08           fld         qword ptr [eax+8]
  00401A1E: DD 5C 24 10        fstp        qword ptr [esp+10h]
  00401A22: 8B 40 04           mov         eax,dword ptr [eax+4]
  00401A25: 89 54 24 08        mov         dword ptr [esp+8],edx
  00401A29: C7 44 24 04 64 00  mov         dword ptr [esp+4],410064h
            41 00
  00401A31: 89 44 24 0C        mov         dword ptr [esp+0Ch],eax
  00401A35: A1 60 22 41 00     mov         eax,[00412260]
  00401A3A: 83 C0 40           add         eax,40h
  00401A3D: 89 04 24           mov         dword ptr [esp],eax
  00401A40: E8 4B 0E 00 00     call        00402890
  00401A45: 31 C0              xor         eax,eax
  00401A47: 83 C4 3C           add         esp,3Ch
  00401A4A: C3                 ret
  00401A4B: 90                 nop
  00401A4C: 90                 nop
  00401A4D: 90                 nop
  00401A4E: 90                 nop
  00401A4F: 90                 nop
  00401A50: 31 C0              xor         eax,eax
  00401A52: C3                 ret
  00401A53: 90                 nop
  00401A54: 90                 nop
  00401A55: 90                 nop
  00401A56: 90                 nop
  00401A57: 90                 nop
  00401A58: 90                 nop
  00401A59: 90                 nop
  00401A5A: 90                 nop
  00401A5B: 90                 nop
  00401A5C: 90                 nop
  00401A5D: 90                 nop
  00401A5E: 90                 nop
  00401A5F: 90                 nop
  00401A60: 53                 push        ebx
  00401A61: 83 EC 18           sub         esp,18h
  00401A64: A1 60 22 41 00     mov         eax,[00412260]
  00401A69: C7 44 24 04 88 01  mov         dword ptr [esp+4],410188h
            41 00
  00401A71: 8D 5C 24 24        lea         ebx,[esp+24h]
  00401A75: 83 C0 40           add         eax,40h
  00401A78: 89 04 24           mov         dword ptr [esp],eax
  00401A7B: E8 10 0E 00 00     call        00402890
  00401A80: 8B 44 24 20        mov         eax,dword ptr [esp+20h]
  00401A84: 89 5C 24 08        mov         dword ptr [esp+8],ebx
  00401A88: 89 44 24 04        mov         dword ptr [esp+4],eax
  00401A8C: A1 60 22 41 00     mov         eax,[00412260]
  00401A91: 83 C0 40           add         eax,40h
  00401A94: 89 04 24           mov         dword ptr [esp],eax
  00401A97: E8 34 0E 00 00     call        004028D0
  00401A9C: E8 DF C4 00 00     call        0040DF80
  00401AA1: EB 0D              jmp         00401AB0
  00401AA3: 90                 nop
  00401AA4: 90                 nop
  00401AA5: 90                 nop
  00401AA6: 90                 nop
  00401AA7: 90                 nop
  00401AA8: 90                 nop
  00401AA9: 90                 nop
  00401AAA: 90                 nop
  00401AAB: 90                 nop
  00401AAC: 90                 nop
  00401AAD: 90                 nop
  00401AAE: 90                 nop
  00401AAF: 90                 nop
  00401AB0: 55                 push        ebp
  00401AB1: 57                 push        edi
  00401AB2: 56                 push        esi
  00401AB3: 89 C6              mov         esi,eax
  00401AB5: 53                 push        ebx
  00401AB6: 83 EC 4C           sub         esp,4Ch
  00401AB9: 89 4C 24 1C        mov         dword ptr [esp+1Ch],ecx
  00401ABD: 8B 0D 50 10 41 00  mov         ecx,dword ptr ds:[411050h]
  00401AC3: 89 54 24 18        mov         dword ptr [esp+18h],edx
  00401AC7: 85 C9              test        ecx,ecx
  00401AC9: 0F 8E E1 01 00 00  jle         00401CB0
  00401ACF: 8B 15 4C 10 41 00  mov         edx,dword ptr ds:[41104Ch]
  00401AD5: 31 DB              xor         ebx,ebx
  00401AD7: 8B 42 04           mov         eax,dword ptr [edx+4]
  00401ADA: 39 C6              cmp         esi,eax
  00401ADC: 72 0E              jb          00401AEC
  00401ADE: 8B 7A 08           mov         edi,dword ptr [edx+8]
  00401AE1: 03 47 08           add         eax,dword ptr [edi+8]
  00401AE4: 39 C6              cmp         esi,eax
  00401AE6: 0F 82 D4 00 00 00  jb          00401BC0
  00401AEC: 83 C3 01           add         ebx,1
  00401AEF: 83 C2 0C           add         edx,0Ch
  00401AF2: 39 CB              cmp         ebx,ecx
  00401AF4: 75 E1              jne         00401AD7
  00401AF6: 89 34 24           mov         dword ptr [esp],esi
  00401AF9: E8 B2 05 00 00     call        004020B0
  00401AFE: 85 C0              test        eax,eax
  00401B00: 89 C5              mov         ebp,eax
  00401B02: 0F 84 CF 01 00 00  je          00401CD7
  00401B08: 8D 0C 5B           lea         ecx,[ebx+ebx*2]
  00401B0B: 8B 1D 4C 10 41 00  mov         ebx,dword ptr ds:[41104Ch]
  00401B11: 8D 3C 8D 00 00 00  lea         edi,[ecx*4]
            00
  00401B18: 01 FB              add         ebx,edi
  00401B1A: 89 43 08           mov         dword ptr [ebx+8],eax
  00401B1D: C7 03 00 00 00 00  mov         dword ptr [ebx],0
  00401B23: E8 58 06 00 00     call        00402180
  00401B28: 8D 54 24 24        lea         edx,[esp+24h]
  00401B2C: 03 45 0C           add         eax,dword ptr [ebp+0Ch]
  00401B2F: 89 43 04           mov         dword ptr [ebx+4],eax
  00401B32: A1 4C 10 41 00     mov         eax,[0041104C]
  00401B37: 89 54 24 04        mov         dword ptr [esp+4],edx
  00401B3B: 8B 1D 20 22 41 00  mov         ebx,dword ptr ds:[412220h]
  00401B41: C7 44 24 08 1C 00  mov         dword ptr [esp+8],1Ch
            00 00
  00401B49: 8B 44 38 04        mov         eax,dword ptr [eax+edi+4]
  00401B4D: 89 54 24 14        mov         dword ptr [esp+14h],edx
  00401B51: 89 04 24           mov         dword ptr [esp],eax
  00401B54: FF D3              call        ebx
  00401B56: 83 EC 0C           sub         esp,0Ch
  00401B59: 85 C0              test        eax,eax
  00401B5B: 8B 54 24 14        mov         edx,dword ptr [esp+14h]
  00401B5F: 0F 84 52 01 00 00  je          00401CB7
  00401B65: 8B 44 24 38        mov         eax,dword ptr [esp+38h]
  00401B69: 83 F8 04           cmp         eax,4
  00401B6C: 0F 85 DE 00 00 00  jne         00401C50
  00401B72: 83 05 50 10 41 00  add         dword ptr ds:[411050h],1
            01
  00401B79: C7 44 24 08 1C 00  mov         dword ptr [esp+8],1Ch
            00 00
  00401B81: 89 54 24 04        mov         dword ptr [esp+4],edx
  00401B85: 89 34 24           mov         dword ptr [esp],esi
  00401B88: FF D3              call        ebx
  00401B8A: 83 EC 0C           sub         esp,0Ch
  00401B8D: 85 C0              test        eax,eax
  00401B8F: 0F 84 52 01 00 00  je          00401CE7
  00401B95: 8B 44 24 38        mov         eax,dword ptr [esp+38h]
  00401B99: 83 F8 04           cmp         eax,4
  00401B9C: 75 32              jne         00401BD0
  00401B9E: 8B 44 24 1C        mov         eax,dword ptr [esp+1Ch]
  00401BA2: 89 34 24           mov         dword ptr [esp],esi
  00401BA5: 89 44 24 08        mov         dword ptr [esp+8],eax
  00401BA9: 8B 44 24 18        mov         eax,dword ptr [esp+18h]
  00401BAD: 89 44 24 04        mov         dword ptr [esp+4],eax
  00401BB1: E8 6A C3 00 00     call        0040DF20
  00401BB6: 83 C4 4C           add         esp,4Ch
  00401BB9: 5B                 pop         ebx
  00401BBA: 5E                 pop         esi
  00401BBB: 5F                 pop         edi
  00401BBC: 5D                 pop         ebp
  00401BBD: C3                 ret
  00401BBE: 66
  00401BBF: 90                 nop
  00401BC0: 8D 54 24 24        lea         edx,[esp+24h]
  00401BC4: 8B 1D 20 22 41 00  mov         ebx,dword ptr ds:[412220h]
  00401BCA: EB AD              jmp         00401B79
  00401BCC: 8D 74 26 00        lea         esi,[esi]
  00401BD0: 83 F8 40           cmp         eax,40h
  00401BD3: 74 C9              je          00401B9E
  00401BD5: 8B 44 24 30        mov         eax,dword ptr [esp+30h]
  00401BD9: 8D 6C 24 20        lea         ebp,[esp+20h]
  00401BDD: 8B 1D 1C 22 41 00  mov         ebx,dword ptr ds:[41221Ch]
  00401BE3: 89 6C 24 0C        mov         dword ptr [esp+0Ch],ebp
  00401BE7: C7 44 24 08 40 00  mov         dword ptr [esp+8],40h
            00 00
  00401BEF: 89 44 24 04        mov         dword ptr [esp+4],eax
  00401BF3: 8B 44 24 24        mov         eax,dword ptr [esp+24h]
  00401BF7: 89 04 24           mov         dword ptr [esp],eax
  00401BFA: FF D3              call        ebx
  00401BFC: 83 EC 10           sub         esp,10h
  00401BFF: 8B 44 24 1C        mov         eax,dword ptr [esp+1Ch]
  00401C03: 89 34 24           mov         dword ptr [esp],esi
  00401C06: 89 44 24 08        mov         dword ptr [esp+8],eax
  00401C0A: 8B 44 24 18        mov         eax,dword ptr [esp+18h]
  00401C0E: 89 44 24 04        mov         dword ptr [esp+4],eax
  00401C12: E8 09 C3 00 00     call        0040DF20
  00401C17: 8B 44 24 38        mov         eax,dword ptr [esp+38h]
  00401C1B: 83 F8 40           cmp         eax,40h
  00401C1E: 74 96              je          00401BB6
  00401C20: 83 F8 04           cmp         eax,4
  00401C23: 74 91              je          00401BB6
  00401C25: 8B 44 24 20        mov         eax,dword ptr [esp+20h]
  00401C29: 89 6C 24 0C        mov         dword ptr [esp+0Ch],ebp
  00401C2D: 89 44 24 08        mov         dword ptr [esp+8],eax
  00401C31: 8B 44 24 30        mov         eax,dword ptr [esp+30h]
  00401C35: 89 44 24 04        mov         dword ptr [esp+4],eax
  00401C39: 8B 44 24 24        mov         eax,dword ptr [esp+24h]
  00401C3D: 89 04 24           mov         dword ptr [esp],eax
___mingw_sformat:
  00401C40: FF D3              call        ebx
  00401C42: 83 EC 10           sub         esp,10h
  00401C45: 83 C4 4C           add         esp,4Ch
  00401C48: 5B                 pop         ebx
  00401C49: 5E                 pop         esi
  00401C4A: 5F                 pop         edi
  00401C4B: 5D                 pop         ebp
  00401C4C: C3                 ret
  00401C4D: 8D 76 00           lea         esi,[esi]
  00401C50: 83 F8 40           cmp         eax,40h
  00401C53: 0F 84 19 FF FF FF  je          00401B72
  00401C59: 8B 44 24 30        mov         eax,dword ptr [esp+30h]
  00401C5D: 8B 0D 4C 10 41 00  mov         ecx,dword ptr ds:[41104Ch]
  00401C63: 89 54 24 14        mov         dword ptr [esp+14h],edx
  00401C67: C7 44 24 08 40 00  mov         dword ptr [esp+8],40h
            00 00
  00401C6F: 89 44 24 04        mov         dword ptr [esp+4],eax
  00401C73: 8B 44 24 24        mov         eax,dword ptr [esp+24h]
  00401C77: 01 F9              add         ecx,edi
  00401C79: 89 4C 24 0C        mov         dword ptr [esp+0Ch],ecx
  00401C7D: 89 04 24           mov         dword ptr [esp],eax
  00401C80: FF 15 1C 22 41 00  call        dword ptr ds:[41221Ch]
  00401C86: 83 EC 10           sub         esp,10h
  00401C89: 85 C0              test        eax,eax
  00401C8B: 8B 54 24 14        mov         edx,dword ptr [esp+14h]
  00401C8F: 0F 85 DD FE FF FF  jne         00401B72
  00401C95: FF 15 D8 21 41 00  call        dword ptr ds:[4121D8h]
  00401C9B: C7 04 24 F8 01 41  mov         dword ptr [esp],4101F8h
            00
  00401CA2: 89 44 24 04        mov         dword ptr [esp+4],eax
  00401CA6: E8 B5 FD FF FF     call        00401A60
  00401CAB: 90                 nop
  00401CAC: 8D 74 26 00        lea         esi,[esi]
  00401CB0: 31 DB              xor         ebx,ebx
  00401CB2: E9 3F FE FF FF     jmp         00401AF6
  00401CB7: A1 4C 10 41 00     mov         eax,[0041104C]
  00401CBC: 8B 44 38 04        mov         eax,dword ptr [eax+edi+4]
  00401CC0: 89 44 24 08        mov         dword ptr [esp+8],eax
  00401CC4: 8B 45 08           mov         eax,dword ptr [ebp+8]
  00401CC7: C7 04 24 C4 01 41  mov         dword ptr [esp],4101C4h
            00
  00401CCE: 89 44 24 04        mov         dword ptr [esp+4],eax
  00401CD2: E8 89 FD FF FF     call        00401A60
  00401CD7: 89 74 24 04        mov         dword ptr [esp+4],esi
  00401CDB: C7 04 24 A4 01 41  mov         dword ptr [esp],4101A4h
            00
  00401CE2: E8 79 FD FF FF     call        00401A60
  00401CE7: 89 74 24 08        mov         dword ptr [esp+8],esi
  00401CEB: C7 44 24 04 1C 00  mov         dword ptr [esp+4],1Ch
            00 00
  00401CF3: C7 04 24 C4 01 41  mov         dword ptr [esp],4101C4h
            00
  00401CFA: E8 61 FD FF FF     call        00401A60
  00401CFF: 90                 nop
  00401D00: A1 48 10 41 00     mov         eax,[00411048]
  00401D05: 85 C0              test        eax,eax
  00401D07: 74 07              je          00401D10
  00401D09: C3                 ret
  00401D0A: 8D B6 00 00 00 00  lea         esi,[esi]
  00401D10: 55                 push        ebp
  00401D11: 89 E5              mov         ebp,esp
  00401D13: 57                 push        edi
  00401D14: 56                 push        esi
  00401D15: 53                 push        ebx
  00401D16: 83 EC 5C           sub         esp,5Ch
  00401D19: C7 05 48 10 41 00  mov         dword ptr ds:[411048h],1
            01 00 00 00
  00401D23: E8 C8 03 00 00     call        004020F0
  00401D28: 8D 04 40           lea         eax,[eax+eax*2]
  00401D2B: 8D 04 85 1E 00 00  lea         eax,[eax*4+1Eh]
            00
  00401D32: 83 E0 F0           and         eax,0FFFFFFF0h
  00401D35: E8 7E 0A 00 00     call        004027B8
  00401D3A: C7 05 50 10 41 00  mov         dword ptr ds:[411050h],0
            00 00 00 00
  00401D44: 29 C4              sub         esp,eax
  00401D46: 8D 44 24 1F        lea         eax,[esp+1Fh]
  00401D4A: 83 E0 F0           and         eax,0FFFFFFF0h
  00401D4D: A3 4C 10 41 00     mov         [0041104C],eax
  00401D52: B8 AC 0A 41 00     mov         eax,410AACh
  00401D57: 2D AC 0A 41 00     sub         eax,410AACh
  00401D5C: 83 F8 07           cmp         eax,7
  00401D5F: 0F 8E 9C 00 00 00  jle         00401E01
  00401D65: 83 F8 0B           cmp         eax,0Bh
  00401D68: 0F 8E 52 01 00 00  jle         00401EC0
  00401D6E: A1 AC 0A 41 00     mov         eax,[00410AAC]
  00401D73: 85 C0              test        eax,eax
  00401D75: 0F 85 8E 00 00 00  jne         00401E09
  00401D7B: A1 B0 0A 41 00     mov         eax,[00410AB0]
  00401D80: 85 C0              test        eax,eax
  00401D82: 0F 85 81 00 00 00  jne         00401E09
  00401D88: 8B 3D B4 0A 41 00  mov         edi,dword ptr ds:[410AB4h]
  00401D8E: BB B8 0A 41 00     mov         ebx,410AB8h
  00401D93: 85 FF              test        edi,edi
  00401D95: 0F 84 2A 01 00 00  je          00401EC5
  00401D9B: BB AC 0A 41 00     mov         ebx,410AACh
  00401DA0: 8B 43 08           mov         eax,dword ptr [ebx+8]
  00401DA3: 83 F8 01           cmp         eax,1
  00401DA6: 0F 85 EB 01 00 00  jne         00401F97
  00401DAC: 83 C3 0C           add         ebx,0Ch
  00401DAF: 81 FB AC 0A 41 00  cmp         ebx,410AACh
  00401DB5: 73 4A              jae         00401E01
  00401DB7: 8B 13              mov         edx,dword ptr [ebx]
  00401DB9: 0F B6 73 08        movzx       esi,byte ptr [ebx+8]
  00401DBD: 8B 7B 04           mov         edi,dword ptr [ebx+4]
  00401DC0: 8B 8A 00 00 40 00  mov         ecx,dword ptr [edx+400000h]
  00401DC6: 83 FE 10           cmp         esi,10h
  00401DC9: 8D 87 00 00 40 00  lea         eax,[edi+400000h]
  00401DCF: 89 4D B0           mov         dword ptr [ebp-50h],ecx
  00401DD2: 0F 84 07 01 00 00  je          00401EDF
  00401DD8: 83 FE 20           cmp         esi,20h
  00401DDB: 0F 84 74 01 00 00  je          00401F55
  00401DE1: 83 FE 08           cmp         esi,8
  00401DE4: 0F 84 3E 01 00 00  je          00401F28
  00401DEA: 89 74 24 04        mov         dword ptr [esp+4],esi
  00401DEE: C7 04 24 54 02 41  mov         dword ptr [esp],410254h
            00
  00401DF5: C7 45 C4 00 00 00  mov         dword ptr [ebp-3Ch],0
            00
  00401DFC: E8 5F FC FF FF     call        00401A60
  00401E01: 8D 65 F4           lea         esp,[ebp-0Ch]
  00401E04: 5B                 pop         ebx
  00401E05: 5E                 pop         esi
  00401E06: 5F                 pop         edi
  00401E07: 5D                 pop         ebp
  00401E08: C3                 ret
  00401E09: BB AC 0A 41 00     mov         ebx,410AACh
  00401E0E: 81 FB AC 0A 41 00  cmp         ebx,410AACh
  00401E14: 73 EB              jae         00401E01
  00401E16: 8B 53 04           mov         edx,dword ptr [ebx+4]
  00401E19: B9 04 00 00 00     mov         ecx,4
  00401E1E: 8D 82 00 00 40 00  lea         eax,[edx+400000h]
  00401E24: 8B 92 00 00 40 00  mov         edx,dword ptr [edx+400000h]
  00401E2A: 03 13              add         edx,dword ptr [ebx]
  00401E2C: 83 C3 08           add         ebx,8
  00401E2F: 89 55 C8           mov         dword ptr [ebp-38h],edx
  00401E32: 8D 55 C8           lea         edx,[ebp-38h]
  00401E35: E8 76 FC FF FF     call        00401AB0
  00401E3A: 81 FB AC 0A 41 00  cmp         ebx,410AACh
  00401E40: 72 D4              jb          00401E16
  00401E42: A1 50 10 41 00     mov         eax,[00411050]
  00401E47: 31 DB              xor         ebx,ebx
  00401E49: 31 F6              xor         esi,esi
  00401E4B: 8D 7D CC           lea         edi,[ebp-34h]
  00401E4E: 85 C0              test        eax,eax
  00401E50: 7F 10              jg          00401E62
  00401E52: EB AD              jmp         00401E01
  00401E54: 83 C6 01           add         esi,1
  00401E57: 83 C3 0C           add         ebx,0Ch
  00401E5A: 3B 35 50 10 41 00  cmp         esi,dword ptr ds:[411050h]
  00401E60: 7D 9F              jge         00401E01
  00401E62: A1 4C 10 41 00     mov         eax,[0041104C]
  00401E67: 01 D8              add         eax,ebx
  00401E69: 8B 10              mov         edx,dword ptr [eax]
  00401E6B: 85 D2              test        edx,edx
  00401E6D: 74 E5              je          00401E54
  00401E6F: C7 44 24 08 1C 00  mov         dword ptr [esp+8],1Ch
            00 00
  00401E77: 89 7C 24 04        mov         dword ptr [esp+4],edi
  00401E7B: 8B 40 04           mov         eax,dword ptr [eax+4]
  00401E7E: 89 04 24           mov         dword ptr [esp],eax
  00401E81: FF 15 20 22 41 00  call        dword ptr ds:[412220h]
  00401E87: 83 EC 0C           sub         esp,0Ch
  00401E8A: 85 C0              test        eax,eax
  00401E8C: 0F 84 E2 00 00 00  je          00401F74
  00401E92: 8D 45 C8           lea         eax,[ebp-38h]
  00401E95: 89 44 24 0C        mov         dword ptr [esp+0Ch],eax
  00401E99: A1 4C 10 41 00     mov         eax,[0041104C]
  00401E9E: 8B 04 18           mov         eax,dword ptr [eax+ebx]
  00401EA1: 89 44 24 08        mov         dword ptr [esp+8],eax
  00401EA5: 8B 45 D8           mov         eax,dword ptr [ebp-28h]
  00401EA8: 89 44 24 04        mov         dword ptr [esp+4],eax
  00401EAC: 8B 45 CC           mov         eax,dword ptr [ebp-34h]
  00401EAF: 89 04 24           mov         dword ptr [esp],eax
  00401EB2: FF 15 1C 22 41 00  call        dword ptr ds:[41221Ch]
  00401EB8: 83 EC 10           sub         esp,10h
  00401EBB: EB 97              jmp         00401E54
  00401EBD: 8D 76 00           lea         esi,[esi]
  00401EC0: BB AC 0A 41 00     mov         ebx,410AACh
  00401EC5: 8B 33              mov         esi,dword ptr [ebx]
  00401EC7: 85 F6              test        esi,esi
  00401EC9: 0F 85 3F FF FF FF  jne         00401E0E
  00401ECF: 8B 4B 04           mov         ecx,dword ptr [ebx+4]
  00401ED2: 85 C9              test        ecx,ecx
  00401ED4: 0F 84 C6 FE FF FF  je          00401DA0
  00401EDA: E9 2F FF FF FF     jmp         00401E0E
  00401EDF: 0F B7 BF 00 00 40  movzx       edi,word ptr [edi+400000h]
            00
  00401EE6: 0F B7 F7           movzx       esi,di
  00401EE9: 89 F1              mov         ecx,esi
  00401EEB: 81 C9 00 00 FF FF  or          ecx,0FFFF0000h
  00401EF1: 66 85 FF           test        di,di
  00401EF4: 0F 48 F1           cmovs       esi,ecx
  00401EF7: 8B 4D B0           mov         ecx,dword ptr [ebp-50h]
  00401EFA: 29 D6              sub         esi,edx
  00401EFC: 81 EE 00 00 40 00  sub         esi,400000h
  00401F02: 8D 55 C4           lea         edx,[ebp-3Ch]
  00401F05: 01 F1              add         ecx,esi
  00401F07: 89 4D C4           mov         dword ptr [ebp-3Ch],ecx
  00401F0A: B9 02 00 00 00     mov         ecx,2
  00401F0F: E8 9C FB FF FF     call        00401AB0
  00401F14: 83 C3 0C           add         ebx,0Ch
  00401F17: 81 FB AC 0A 41 00  cmp         ebx,410AACh
  00401F1D: 0F 82 94 FE FF FF  jb          00401DB7
  00401F23: E9 1A FF FF FF     jmp         00401E42
  00401F28: 0F B6 30           movzx       esi,byte ptr [eax]
  00401F2B: 89 F7              mov         edi,esi
  00401F2D: 81 CF 00 FF FF FF  or          edi,0FFFFFF00h
  00401F33: 80 38 00           cmp         byte ptr [eax],0
  00401F36: 0F 48 F7           cmovs       esi,edi
  00401F39: 81 EE 00 00 40 00  sub         esi,400000h
  00401F3F: 29 D6              sub         esi,edx
  00401F41: 01 F1              add         ecx,esi
  00401F43: 89 4D C4           mov         dword ptr [ebp-3Ch],ecx
  00401F46: 8D 55 C4           lea         edx,[ebp-3Ch]
  00401F49: B9 01 00 00 00     mov         ecx,1
  00401F4E: E8 5D FB FF FF     call        00401AB0
  00401F53: EB BF              jmp         00401F14
  00401F55: 8B 4D B0           mov         ecx,dword ptr [ebp-50h]
  00401F58: 81 C2 00 00 40 00  add         edx,400000h
  00401F5E: 29 D1              sub         ecx,edx
  00401F60: 03 08              add         ecx,dword ptr [eax]
  00401F62: 8D 55 C4           lea         edx,[ebp-3Ch]
  00401F65: 89 4D C4           mov         dword ptr [ebp-3Ch],ecx
  00401F68: B9 04 00 00 00     mov         ecx,4
  00401F6D: E8 3E FB FF FF     call        00401AB0
  00401F72: EB A0              jmp         00401F14
  00401F74: 03 1D 4C 10 41 00  add         ebx,dword ptr ds:[41104Ch]
  00401F7A: 8B 43 04           mov         eax,dword ptr [ebx+4]
  00401F7D: 89 44 24 08        mov         dword ptr [esp+8],eax
  00401F81: 8B 43 08           mov         eax,dword ptr [ebx+8]
  00401F84: 8B 40 08           mov         eax,dword ptr [eax+8]
  00401F87: C7 04 24 C4 01 41  mov         dword ptr [esp],4101C4h
            00
  00401F8E: 89 44 24 04        mov         dword ptr [esp+4],eax
  00401F92: E8 C9 FA FF FF     call        00401A60
  00401F97: 89 44 24 04        mov         dword ptr [esp+4],eax
  00401F9B: C7 04 24 20 02 41  mov         dword ptr [esp],410220h
            00
  00401FA2: E8 B9 FA FF FF     call        00401A60
  00401FA7: 90                 nop
  00401FA8: 90                 nop
  00401FA9: 90                 nop
  00401FAA: 90                 nop
  00401FAB: 90                 nop
  00401FAC: 90                 nop
  00401FAD: 90                 nop
  00401FAE: 90                 nop
  00401FAF: 90                 nop
  00401FB0: 8B 54 24 04        mov         edx,dword ptr [esp+4]
  00401FB4: 31 C0              xor         eax,eax
  00401FB6: 66 81 3A 4D 5A     cmp         word ptr [edx],5A4Dh
  00401FBB: 74 03              je          00401FC0
  00401FBD: F3 C3              rep ret
  00401FBF: 90                 nop
  00401FC0: 03 52 3C           add         edx,dword ptr [edx+3Ch]
  00401FC3: 81 3A 50 45 00 00  cmp         dword ptr [edx],4550h
  00401FC9: 75 F2              jne         00401FBD
  00401FCB: 31 C0              xor         eax,eax
  00401FCD: 66 81 7A 18 0B 01  cmp         word ptr [edx+18h],10Bh
  00401FD3: 0F 94 C0           sete        al
  00401FD6: C3                 ret
  00401FD7: 89 F6              mov         esi,esi
  00401FD9: 8D BC 27 00 00 00  lea         edi,[edi]
            00
  00401FE0: 56                 push        esi
  00401FE1: 53                 push        ebx
  00401FE2: 8B 54 24 0C        mov         edx,dword ptr [esp+0Ch]
  00401FE6: 8B 5C 24 10        mov         ebx,dword ptr [esp+10h]
  00401FEA: 03 52 3C           add         edx,dword ptr [edx+3Ch]
  00401FED: 0F B7 72 06        movzx       esi,word ptr [edx+6]
  00401FF1: 0F B7 42 14        movzx       eax,word ptr [edx+14h]
  00401FF5: 85 F6              test        esi,esi
  00401FF7: 8D 44 02 18        lea         eax,[edx+eax+18h]
  00401FFB: 74 1B              je          00402018
  00401FFD: 31 D2              xor         edx,edx
  00401FFF: 90                 nop
  00402000: 8B 48 0C           mov         ecx,dword ptr [eax+0Ch]
  00402003: 39 D9              cmp         ecx,ebx
  00402005: 77 07              ja          0040200E
  00402007: 03 48 08           add         ecx,dword ptr [eax+8]
  0040200A: 39 CB              cmp         ebx,ecx
  0040200C: 72 0C              jb          0040201A
  0040200E: 83 C2 01           add         edx,1
  00402011: 83 C0 28           add         eax,28h
  00402014: 39 F2              cmp         edx,esi
  00402016: 72 E8              jb          00402000
  00402018: 31 C0              xor         eax,eax
  0040201A: 5B                 pop         ebx
  0040201B: 5E                 pop         esi
  0040201C: C3                 ret
  0040201D: 8D 76 00           lea         esi,[esi]
  00402020: 55                 push        ebp
  00402021: 57                 push        edi
  00402022: 56                 push        esi
  00402023: 53                 push        ebx
  00402024: 83 EC 1C           sub         esp,1Ch
  00402027: 8B 7C 24 30        mov         edi,dword ptr [esp+30h]
  0040202B: 89 3C 24           mov         dword ptr [esp],edi
  0040202E: E8 FD BE 00 00     call        0040DF30
  00402033: 83 F8 08           cmp         eax,8
  00402036: 77 68              ja          004020A0
  00402038: C7 04 24 00 00 40  mov         dword ptr [esp],400000h
            00
  0040203F: E8 6C FF FF FF     call        00401FB0
  00402044: 85 C0              test        eax,eax
  00402046: 74 58              je          004020A0
  00402048: A1 3C 00 40 00     mov         eax,[.idata$2]
  0040204D: 0F B7 90 14 00 40  movzx       edx,word ptr _p.57184[eax]
            00
  00402054: 05 00 00 40 00     add         eax,400000h
  00402059: 0F B7 68 06        movzx       ebp,word ptr [eax+6]
  0040205D: 8D 5C 10 18        lea         ebx,[eax+edx+18h]
  00402061: 85 ED              test        ebp,ebp
  00402063: 74 3B              je          004020A0
  00402065: 31 F6              xor         esi,esi
  00402067: EB 11              jmp         0040207A
  00402069: 8D B4 26 00 00 00  lea         esi,[esi]
            00
  00402070: 83 C6 01           add         esi,1
  00402073: 83 C3 28           add         ebx,28h
  00402076: 39 EE              cmp         esi,ebp
  00402078: 73 26              jae         004020A0
  0040207A: C7 44 24 08 08 00  mov         dword ptr [esp+8],8
            00 00
  00402082: 89 7C 24 04        mov         dword ptr [esp+4],edi
  00402086: 89 1C 24           mov         dword ptr [esp],ebx
  00402089: E8 FA BE 00 00     call        0040DF88
  0040208E: 85 C0              test        eax,eax
  00402090: 75 DE              jne         00402070
  00402092: 83 C4 1C           add         esp,1Ch
  00402095: 89 D8              mov         eax,ebx
  00402097: 5B                 pop         ebx
  00402098: 5E                 pop         esi
  00402099: 5F                 pop         edi
  0040209A: 5D                 pop         ebp
  0040209B: C3                 ret
  0040209C: 8D 74 26 00        lea         esi,[esi]
  004020A0: 83 C4 1C           add         esp,1Ch
  004020A3: 31 DB              xor         ebx,ebx
  004020A5: 89 D8              mov         eax,ebx
  004020A7: 5B                 pop         ebx
  004020A8: 5E                 pop         esi
  004020A9: 5F                 pop         edi
  004020AA: 5D                 pop         ebp
  004020AB: C3                 ret
  004020AC: 8D 74 26 00        lea         esi,[esi]
  004020B0: 83 EC 08           sub         esp,8
  004020B3: C7 04 24 00 00 40  mov         dword ptr [esp],400000h
            00
  004020BA: E8 F1 FE FF FF     call        00401FB0
  004020BF: 89 C2              mov         edx,eax
  004020C1: 31 C0              xor         eax,eax
  004020C3: 85 D2              test        edx,edx
  004020C5: 74 19              je          004020E0
  004020C7: 8B 44 24 0C        mov         eax,dword ptr [esp+0Ch]
  004020CB: C7 04 24 00 00 40  mov         dword ptr [esp],400000h
            00
  004020D2: 2D 00 00 40 00     sub         eax,400000h
  004020D7: 89 44 24 04        mov         dword ptr [esp+4],eax
  004020DB: E8 00 FF FF FF     call        00401FE0
  004020E0: 83 C4 08           add         esp,8
  004020E3: C3                 ret
  004020E4: 8D B6 00 00 00 00  lea         esi,[esi]
  004020EA: 8D BF 00 00 00 00  lea         edi,[edi]
  004020F0: 83 EC 04           sub         esp,4
  004020F3: C7 04 24 00 00 40  mov         dword ptr [esp],400000h
            00
  004020FA: E8 B1 FE FF FF     call        00401FB0
  004020FF: 31 D2              xor         edx,edx
  00402101: 85 C0              test        eax,eax
  00402103: 74 0C              je          00402111
  00402105: A1 3C 00 40 00     mov         eax,[.idata$2]
  0040210A: 0F B7 90 06 00 40  movzx       edx,word ptr [eax+400006h]
            00
  00402111: 89 D0              mov         eax,edx
  00402113: 83 C4 04           add         esp,4
  00402116: C3                 ret
  00402117: 89 F6              mov         esi,esi
  00402119: 8D BC 27 00 00 00  lea         edi,[edi]
            00
  00402120: 53                 push        ebx
  00402121: 83 EC 04           sub         esp,4
  00402124: C7 04 24 00 00 40  mov         dword ptr [esp],400000h
            00
  0040212B: 8B 5C 24 0C        mov         ebx,dword ptr [esp+0Ch]
  0040212F: E8 7C FE FF FF     call        00401FB0
  00402134: 85 C0              test        eax,eax
  00402136: 74 3F              je          00402177
  00402138: 8B 15 3C 00 40 00  mov         edx,dword ptr [.idata$2]
  0040213E: 0F B7 82 14 00 40  movzx       eax,word ptr _p.57184[edx]
            00
  00402145: 81 C2 00 00 40 00  add         edx,400000h
  0040214B: 0F B7 4A 06        movzx       ecx,word ptr [edx+6]
  0040214F: 8D 44 02 18        lea         eax,[edx+eax+18h]
  00402153: 85 C9              test        ecx,ecx
  00402155: 74 20              je          00402177
  00402157: 31 D2              xor         edx,edx
  00402159: 8D B4 26 00 00 00  lea         esi,[esi]
            00
  00402160: F6 40 27 20        test        byte ptr [eax+27h],20h
  00402164: 74 07              je          0040216D
  00402166: 85 DB              test        ebx,ebx
  00402168: 74 0F              je          00402179
  0040216A: 83 EB 01           sub         ebx,1
  0040216D: 83 C2 01           add         edx,1
  00402170: 83 C0 28           add         eax,28h
  00402173: 39 CA              cmp         edx,ecx
  00402175: 72 E9              jb          00402160
  00402177: 31 C0              xor         eax,eax
  00402179: 83 C4 04           add         esp,4
  0040217C: 5B                 pop         ebx
  0040217D: C3                 ret
  0040217E: 66
  0040217F: 90                 nop
  00402180: 83 EC 04           sub         esp,4
  00402183: C7 04 24 00 00 40  mov         dword ptr [esp],400000h
            00
  0040218A: E8 21 FE FF FF     call        00401FB0
  0040218F: 31 D2              xor         edx,edx
  00402191: 85 C0              test        eax,eax
  00402193: B8 00 00 40 00     mov         eax,400000h
  00402198: 0F 45 D0           cmovne      edx,eax
  0040219B: 83 C4 04           add         esp,4
  0040219E: 89 D0              mov         eax,edx
  004021A0: C3                 ret
  004021A1: EB 0D              jmp         004021B0
  004021A3: 90                 nop
  004021A4: 90                 nop
  004021A5: 90                 nop
  004021A6: 90                 nop
  004021A7: 90                 nop
  004021A8: 90                 nop
  004021A9: 90                 nop
  004021AA: 90                 nop
  004021AB: 90                 nop
  004021AC: 90                 nop
  004021AD: 90                 nop
  004021AE: 90                 nop
  004021AF: 90                 nop
  004021B0: 53                 push        ebx
  004021B1: 31 DB              xor         ebx,ebx
  004021B3: 83 EC 08           sub         esp,8
  004021B6: C7 04 24 00 00 40  mov         dword ptr [esp],400000h
            00
  004021BD: E8 EE FD FF FF     call        00401FB0
  004021C2: 85 C0              test        eax,eax
  004021C4: 75 0A              jne         004021D0
  004021C6: 83 C4 08           add         esp,8
  004021C9: 89 D8              mov         eax,ebx
  004021CB: 5B                 pop         ebx
  004021CC: C3                 ret
  004021CD: 8D 76 00           lea         esi,[esi]
  004021D0: 8B 44 24 10        mov         eax,dword ptr [esp+10h]
  004021D4: C7 04 24 00 00 40  mov         dword ptr [esp],400000h
            00
  004021DB: 2D 00 00 40 00     sub         eax,400000h
  004021E0: 89 44 24 04        mov         dword ptr [esp+4],eax
  004021E4: E8 F7 FD FF FF     call        00401FE0
  004021E9: 85 C0              test        eax,eax
  004021EB: 74 D9              je          004021C6
  004021ED: 8B 58 24           mov         ebx,dword ptr [eax+24h]
  004021F0: 83 C4 08           add         esp,8
  004021F3: F7 D3              not         ebx
  004021F5: C1 EB 1F           shr         ebx,1Fh
  004021F8: 89 D8              mov         eax,ebx
  004021FA: 5B                 pop         ebx
  004021FB: C3                 ret
  004021FC: 8D 74 26 00        lea         esi,[esi]
  00402200: 57                 push        edi
  00402201: 56                 push        esi
  00402202: 53                 push        ebx
  00402203: 83 EC 08           sub         esp,8
  00402206: C7 04 24 00 00 40  mov         dword ptr [esp],400000h
            00
  0040220D: 8B 5C 24 18        mov         ebx,dword ptr [esp+18h]
  00402211: E8 9A FD FF FF     call        00401FB0
  00402216: 85 C0              test        eax,eax
  00402218: 74 66              je          00402280
  0040221A: A1 3C 00 40 00     mov         eax,[.idata$2]
  0040221F: 31 FF              xor         edi,edi
  00402221: 8B B0 80 00 40 00  mov         esi,dword ptr hname[eax]
  00402227: 85 F6              test        esi,esi
  00402229: 74 46              je          00402271
  0040222B: 89 74 24 04        mov         dword ptr [esp+4],esi
  0040222F: C7 04 24 00 00 40  mov         dword ptr [esp],400000h
            00
  00402236: E8 A5 FD FF FF     call        00401FE0
  0040223B: 85 C0              test        eax,eax
  0040223D: 74 32              je          00402271
  0040223F: 89 F2              mov         edx,esi
  00402241: 81 C2 00 00 40 00  add         edx,400000h
  00402247: 75 0D              jne         00402256
  00402249: EB 26              jmp         00402271
  0040224B: 90                 nop
  0040224C: 8D 74 26 00        lea         esi,[esi]
  00402250: 83 EB 01           sub         ebx,1
  00402253: 83 C2 14           add         edx,14h
  00402256: 8B 4A 04           mov         ecx,dword ptr [edx+4]
  00402259: 85 C9              test        ecx,ecx
  0040225B: 75 07              jne         00402264
  0040225D: 8B 42 0C           mov         eax,dword ptr [edx+0Ch]
  00402260: 85 C0              test        eax,eax
  00402262: 74 1C              je          00402280
  00402264: 85 DB              test        ebx,ebx
  00402266: 7F E8              jg          00402250
  00402268: 8B 7A 0C           mov         edi,dword ptr [edx+0Ch]
  0040226B: 81 C7 00 00 40 00  add         edi,400000h
  00402271: 83 C4 08           add         esp,8
  00402274: 89 F8              mov         eax,edi
  00402276: 5B                 pop         ebx
  00402277: 5E                 pop         esi
  00402278: 5F                 pop         edi
  00402279: C3                 ret
  0040227A: 8D B6 00 00 00 00  lea         esi,[esi]
  00402280: 83 C4 08           add         esp,8
  00402283: 31 FF              xor         edi,edi
  00402285: 89 F8              mov         eax,edi
  00402287: 5B                 pop         ebx
  00402288: 5E                 pop         esi
  00402289: 5F                 pop         edi
  0040228A: C3                 ret
  0040228B: 90                 nop
  0040228C: 8D 74 26 00        lea         esi,[esi]
  00402290: A1 54 10 41 00     mov         eax,[00411054]
  00402295: 85 C0              test        eax,eax
  00402297: 74 07              je          004022A0
  00402299: C3                 ret
  0040229A: 8D B6 00 00 00 00  lea         esi,[esi]
  004022A0: 53                 push        ebx
  004022A1: 31 C0              xor         eax,eax
  004022A3: 83 EC 18           sub         esp,18h
  004022A6: 89 04 24           mov         dword ptr [esp],eax
  004022A9: 8D 58 01           lea         ebx,[eax+1]
  004022AC: E8 4F FF FF FF     call        00402200
  004022B1: 85 C0              test        eax,eax
  004022B3: 74 62              je          00402317
  004022B5: 0F B6 10           movzx       edx,byte ptr [eax]
  004022B8: 83 E2 DF           and         edx,0FFFFFFDFh
  004022BB: 80 FA 4D           cmp         dl,4Dh
  004022BE: 75 46              jne         00402306
  004022C0: 0F B6 50 01        movzx       edx,byte ptr [eax+1]
  004022C4: 83 E2 DF           and         edx,0FFFFFFDFh
  004022C7: 80 FA 53           cmp         dl,53h
  004022CA: 75 3A              jne         00402306
  004022CC: 0F B6 50 02        movzx       edx,byte ptr [eax+2]
  004022D0: 83 E2 DF           and         edx,0FFFFFFDFh
  004022D3: 80 FA 56           cmp         dl,56h
  004022D6: 75 2E              jne         00402306
  004022D8: 0F B6 50 03        movzx       edx,byte ptr [eax+3]
  004022DC: 83 E2 DF           and         edx,0FFFFFFDFh
  004022DF: 80 FA 43           cmp         dl,43h
  004022E2: 75 22              jne         00402306
  004022E4: 0F B6 50 04        movzx       edx,byte ptr [eax+4]
  004022E8: 83 E2 DF           and         edx,0FFFFFFDFh
  004022EB: 80 FA 52           cmp         dl,52h
  004022EE: 75 16              jne         00402306
  004022F0: 0F B6 50 05        movzx       edx,byte ptr [eax+5]
  004022F4: 89 D1              mov         ecx,edx
  004022F6: 83 E1 DF           and         ecx,0FFFFFFDFh
  004022F9: 80 F9 54           cmp         cl,54h
  004022FC: 74 33              je          00402331
  004022FE: 83 EA 30           sub         edx,30h
  00402301: 80 FA 09           cmp         dl,9
  00402304: 76 2B              jbe         00402331
  00402306: 89 D8              mov         eax,ebx
  00402308: 89 04 24           mov         dword ptr [esp],eax
  0040230B: 8D 58 01           lea         ebx,[eax+1]
  0040230E: E8 ED FE FF FF     call        00402200
  00402313: 85 C0              test        eax,eax
  00402315: 75 9E              jne         004022B5
  00402317: C7 04 24 80 02 41  mov         dword ptr [esp],410280h
            00
  0040231E: FF 15 FC 21 41 00  call        dword ptr ds:[4121FCh]
  00402324: 83 EC 04           sub         esp,4
  00402327: A3 54 10 41 00     mov         [00411054],eax
  0040232C: 83 C4 18           add         esp,18h
  0040232F: 5B                 pop         ebx
  00402330: C3                 ret
  00402331: 89 04 24           mov         dword ptr [esp],eax
  00402334: FF 15 DC 21 41 00  call        dword ptr ds:[4121DCh]
  0040233A: 83 EC 04           sub         esp,4
  0040233D: 85 C0              test        eax,eax
  0040233F: A3 54 10 41 00     mov         [00411054],eax
  00402344: 75 E6              jne         0040232C
  00402346: EB CF              jmp         00402317
  00402348: 90                 nop
  00402349: 90                 nop
  0040234A: 90                 nop
  0040234B: 90                 nop
  0040234C: 90                 nop
  0040234D: 90                 nop
  0040234E: 90                 nop
  0040234F: 90                 nop
  00402350: DB E3              fninit
  00402352: C3                 ret
  00402353: 90                 nop
  00402354: 90                 nop
  00402355: 90                 nop
  00402356: 90                 nop
  00402357: 90                 nop
  00402358: 90                 nop
  00402359: 90                 nop
  0040235A: 90                 nop
  0040235B: 90                 nop
  0040235C: 90                 nop
  0040235D: 90                 nop
  0040235E: 90                 nop
  0040235F: 90                 nop
  00402360: A1 14 F0 40 00     mov         eax,[0040F014]
  00402365: 8B 00              mov         eax,dword ptr [eax]
  00402367: 85 C0              test        eax,eax
  00402369: 74 1F              je          0040238A
  0040236B: 83 EC 0C           sub         esp,0Ch
  0040236E: 66
  0040236F: 90                 nop
  00402370: FF D0              call        eax
  00402372: A1 14 F0 40 00     mov         eax,[0040F014]
  00402377: 8D 50 04           lea         edx,[eax+4]
  0040237A: 8B 40 04           mov         eax,dword ptr [eax+4]
  0040237D: 89 15 14 F0 40 00  mov         dword ptr ds:[40F014h],edx
  00402383: 85 C0              test        eax,eax
  00402385: 75 E9              jne         00402370
  00402387: 83 C4 0C           add         esp,0Ch
  0040238A: F3 C3              rep ret
  0040238C: 8D 74 26 00        lea         esi,[esi]
  00402390: 53                 push        ebx
  00402391: 83 EC 18           sub         esp,18h
  00402394: 8B 1D 30 E1 40 00  mov         ebx,dword ptr ds:[40E130h]
  0040239A: 83 FB FF           cmp         ebx,0FFFFFFFFh
  0040239D: 74 24              je          004023C3
  0040239F: 85 DB              test        ebx,ebx
  004023A1: 74 0F              je          004023B2
  004023A3: FF 14 9D 30 E1 40  call        dword ptr [ebx*4+40E130h]
            00
  004023AA: 83 EB 01           sub         ebx,1
  004023AD: 8D 76 00           lea         esi,[esi]
  004023B0: 75 F1              jne         004023A3
  004023B2: C7 04 24 60 23 40  mov         dword ptr [esp],402360h
            00
  004023B9: E8 52 F4 FF FF     call        00401810
  004023BE: 83 C4 18           add         esp,18h
  004023C1: 5B                 pop         ebx
  004023C2: C3                 ret
  004023C3: 31 DB              xor         ebx,ebx
  004023C5: EB 02              jmp         004023C9
  004023C7: 89 C3              mov         ebx,eax
  004023C9: 8D 43 01           lea         eax,[ebx+1]
  004023CC: 8B 14 85 30 E1 40  mov         edx,dword ptr [eax*4+40E130h]
            00
  004023D3: 85 D2              test        edx,edx
  004023D5: 75 F0              jne         004023C7
  004023D7: EB C6              jmp         0040239F
  004023D9: 8D B4 26 00 00 00  lea         esi,[esi]
            00
  004023E0: 8B 0D 58 10 41 00  mov         ecx,dword ptr ds:[411058h]
  004023E6: 85 C9              test        ecx,ecx
  004023E8: 74 06              je          004023F0
  004023EA: F3 C3              rep ret
  004023EC: 8D 74 26 00        lea         esi,[esi]
  004023F0: C7 05 58 10 41 00  mov         dword ptr ds:[411058h],1
            01 00 00 00
  004023FA: EB 94              jmp         00402390
  004023FC: 90                 nop
  004023FD: 90                 nop
  004023FE: 90                 nop
  004023FF: 90                 nop
  00402400: 83 EC 4C           sub         esp,4Ch
  00402403: A1 78 F0 40 00     mov         eax,[0040F078]
  00402408: 89 5C 24 3C        mov         dword ptr [esp+3Ch],ebx
  0040240C: 89 74 24 40        mov         dword ptr [esp+40h],esi
  00402410: 89 7C 24 44        mov         dword ptr [esp+44h],edi
  00402414: 3D 4E E6 40 BB     cmp         eax,0BB40E64Eh
  00402419: 89 6C 24 48        mov         dword ptr [esp+48h],ebp
  0040241D: C7 44 24 20 00 00  mov         dword ptr [esp+20h],0
            00 00
  00402425: C7 44 24 24 00 00  mov         dword ptr [esp+24h],0
            00 00
  0040242D: 74 21              je          00402450
  0040242F: F7 D0              not         eax
  00402431: A3 7C F0 40 00     mov         [0040F07C],eax
  00402436: 8B 5C 24 3C        mov         ebx,dword ptr [esp+3Ch]
  0040243A: 8B 74 24 40        mov         esi,dword ptr [esp+40h]
  0040243E: 8B 7C 24 44        mov         edi,dword ptr [esp+44h]
  00402442: 8B 6C 24 48        mov         ebp,dword ptr [esp+48h]
  00402446: 83 C4 4C           add         esp,4Ch
  00402449: C3                 ret
  0040244A: 8D B6 00 00 00 00  lea         esi,[esi]
  00402450: 8D 44 24 20        lea         eax,[esp+20h]
  00402454: 89 04 24           mov         dword ptr [esp],eax
  00402457: FF 15 E8 21 41 00  call        dword ptr ds:[4121E8h]
  0040245D: 83 EC 04           sub         esp,4
  00402460: 8B 7C 24 20        mov         edi,dword ptr [esp+20h]
  00402464: 8B 6C 24 24        mov         ebp,dword ptr [esp+24h]
  00402468: FF 15 D0 21 41 00  call        dword ptr ds:[4121D0h]
  0040246E: 31 EF              xor         edi,ebp
  00402470: 89 C6              mov         esi,eax
  00402472: FF 15 D4 21 41 00  call        dword ptr ds:[4121D4h]
  00402478: 89 C3              mov         ebx,eax
  0040247A: FF 15 EC 21 41 00  call        dword ptr ds:[4121ECh]
  00402480: 89 44 24 1C        mov         dword ptr [esp+1Ch],eax
  00402484: 8D 44 24 28        lea         eax,[esp+28h]
  00402488: 89 04 24           mov         dword ptr [esp],eax
  0040248B: FF 15 04 22 41 00  call        dword ptr ds:[412204h]
  00402491: 83 EC 04           sub         esp,4
  00402494: 33 7C 24 28        xor         edi,dword ptr [esp+28h]
  00402498: 33 7C 24 2C        xor         edi,dword ptr [esp+2Ch]
  0040249C: 31 F7              xor         edi,esi
  0040249E: 31 DF              xor         edi,ebx
  004024A0: 33 7C 24 1C        xor         edi,dword ptr [esp+1Ch]
  004024A4: 81 FF 4E E6 40 BB  cmp         edi,0BB40E64Eh
  004024AA: 74 14              je          004024C0
  004024AC: 89 F8              mov         eax,edi
  004024AE: F7 D0              not         eax
  004024B0: 89 3D 78 F0 40 00  mov         dword ptr ds:[40F078h],edi
  004024B6: A3 7C F0 40 00     mov         [0040F07C],eax
  004024BB: E9 76 FF FF FF     jmp         00402436
  004024C0: B8 B0 19 BF 44     mov         eax,44BF19B0h
  004024C5: BF 4F E6 40 BB     mov         edi,0BB40E64Fh
  004024CA: EB E4              jmp         004024B0
  004024CC: 8D 74 26 00        lea         esi,[esi]
  004024D0: 55                 push        ebp
  004024D1: 89 E5              mov         ebp,esp
  004024D3: 83 EC 28           sub         esp,28h
  004024D6: 8B 45 04           mov         eax,dword ptr [ebp+4]
  004024D9: 8D 55 04           lea         edx,[ebp+4]
  004024DC: 89 15 24 11 41 00  mov         dword ptr ds:[411124h],edx
  004024E2: C7 05 40 13 41 00  mov         dword ptr ds:[411340h],0C0000409h
            09 04 00 C0
  004024EC: C7 05 44 13 41 00  mov         dword ptr ds:[411344h],1
            01 00 00 00
  004024F6: A3 18 11 41 00     mov         [00411118],eax
  004024FB: A3 4C 13 41 00     mov         [0041134C],eax
  00402500: 8B 45 08           mov         eax,dword ptr [ebp+8]
  00402503: C7 04 24 00 00 00  mov         dword ptr [esp],0
            00
  0040250A: A3 0C 11 41 00     mov         [0041110C],eax
  0040250F: A1 78 F0 40 00     mov         eax,[0040F078]
  00402514: 89 45 F0           mov         dword ptr [ebp-10h],eax
  00402517: A1 7C F0 40 00     mov         eax,[0040F07C]
  0040251C: 89 45 F4           mov         dword ptr [ebp-0Ch],eax
  0040251F: FF 15 08 22 41 00  call        dword ptr ds:[412208h]
  00402525: 83 EC 04           sub         esp,4
  00402528: C7 04 24 98 02 41  mov         dword ptr [esp],410298h
            00
  0040252F: FF 15 18 22 41 00  call        dword ptr ds:[412218h]
  00402535: 83 EC 04           sub         esp,4
  00402538: FF 15 CC 21 41 00  call        dword ptr ds:[4121CCh]
  0040253E: C7 44 24 04 09 04  mov         dword ptr [esp+4],0C0000409h
            00 C0
  00402546: 89 04 24           mov         dword ptr [esp],eax
  00402549: FF 15 10 22 41 00  call        dword ptr ds:[412210h]
  0040254F: 83 EC 08           sub         esp,8
  00402552: E8 29 BA 00 00     call        0040DF80
  00402557: 90                 nop
  00402558: 90                 nop
  00402559: 90                 nop
  0040255A: 90                 nop
  0040255B: 90                 nop
  0040255C: 90                 nop
  0040255D: 90                 nop
  0040255E: 90                 nop
  0040255F: 90                 nop
  00402560: 55                 push        ebp
  00402561: 57                 push        edi
  00402562: 56                 push        esi
  00402563: 53                 push        ebx
  00402564: 83 EC 1C           sub         esp,1Ch
  00402567: C7 04 24 A4 13 41  mov         dword ptr [esp],4113A4h
            00
  0040256E: FF 15 C8 21 41 00  call        dword ptr ds:[4121C8h]
  00402574: 8B 1D BC 13 41 00  mov         ebx,dword ptr ds:[4113BCh]
  0040257A: 8B 2D 14 22 41 00  mov         ebp,dword ptr ds:[412214h]
  00402580: 8B 3D D8 21 41 00  mov         edi,dword ptr ds:[4121D8h]
  00402586: 83 EC 04           sub         esp,4
  00402589: 85 DB              test        ebx,ebx
  0040258B: 74 28              je          004025B5
  0040258D: 8D 76 00           lea         esi,[esi]
  00402590: 8B 03              mov         eax,dword ptr [ebx]
  00402592: 89 04 24           mov         dword ptr [esp],eax
  00402595: FF D5              call        ebp
  00402597: 83 EC 04           sub         esp,4
  0040259A: 89 C6              mov         esi,eax
  0040259C: FF D7              call        edi
  0040259E: 85 C0              test        eax,eax
  004025A0: 75 0C              jne         004025AE
  004025A2: 85 F6              test        esi,esi
  004025A4: 74 08              je          004025AE
  004025A6: 8B 43 04           mov         eax,dword ptr [ebx+4]
  004025A9: 89 34 24           mov         dword ptr [esp],esi
  004025AC: FF D0              call        eax
  004025AE: 8B 5B 08           mov         ebx,dword ptr [ebx+8]
  004025B1: 85 DB              test        ebx,ebx
  004025B3: 75 DB              jne         00402590
  004025B5: C7 04 24 A4 13 41  mov         dword ptr [esp],4113A4h
            00
  004025BC: FF 15 F8 21 41 00  call        dword ptr ds:[4121F8h]
  004025C2: 83 EC 04           sub         esp,4
  004025C5: 83 C4 1C           add         esp,1Ch
  004025C8: 5B                 pop         ebx
  004025C9: 5E                 pop         esi
  004025CA: 5F                 pop         edi
  004025CB: 5D                 pop         ebp
  004025CC: C3                 ret
  004025CD: 8D 76 00           lea         esi,[esi]
  004025D0: 83 EC 1C           sub         esp,1Ch
  004025D3: A1 A0 13 41 00     mov         eax,[004113A0]
  004025D8: 89 74 24 18        mov         dword ptr [esp+18h],esi
  004025DC: 31 F6              xor         esi,esi
  004025DE: 89 5C 24 14        mov         dword ptr [esp+14h],ebx
  004025E2: 85 C0              test        eax,eax
  004025E4: 75 0E              jne         004025F4
  004025E6: 89 F0              mov         eax,esi
  004025E8: 8B 5C 24 14        mov         ebx,dword ptr [esp+14h]
  004025EC: 8B 74 24 18        mov         esi,dword ptr [esp+18h]
  004025F0: 83 C4 1C           add         esp,1Ch
  004025F3: C3                 ret
  004025F4: C7 44 24 04 0C 00  mov         dword ptr [esp+4],0Ch
            00 00
  004025FC: C7 04 24 01 00 00  mov         dword ptr [esp],1
            00
  00402603: E8 88 B9 00 00     call        0040DF90
  00402608: 85 C0              test        eax,eax
  0040260A: 89 C3              mov         ebx,eax
  0040260C: 74 49              je          00402657
  0040260E: 8B 44 24 20        mov         eax,dword ptr [esp+20h]
  00402612: C7 04 24 A4 13 41  mov         dword ptr [esp],4113A4h
            00
  00402619: 89 03              mov         dword ptr [ebx],eax
  0040261B: 8B 44 24 24        mov         eax,dword ptr [esp+24h]
  0040261F: 89 43 04           mov         dword ptr [ebx+4],eax
  00402622: FF 15 C8 21 41 00  call        dword ptr ds:[4121C8h]
  00402628: A1 BC 13 41 00     mov         eax,[004113BC]
  0040262D: 89 1D BC 13 41 00  mov         dword ptr ds:[4113BCh],ebx
  00402633: 89 43 08           mov         dword ptr [ebx+8],eax
  00402636: 83 EC 04           sub         esp,4
  00402639: C7 04 24 A4 13 41  mov         dword ptr [esp],4113A4h
            00
  00402640: FF 15 F8 21 41 00  call        dword ptr ds:[4121F8h]
  00402646: 89 F0              mov         eax,esi
  00402648: 83 EC 04           sub         esp,4
  0040264B: 8B 5C 24 14        mov         ebx,dword ptr [esp+14h]
  0040264F: 8B 74 24 18        mov         esi,dword ptr [esp+18h]
  00402653: 83 C4 1C           add         esp,1Ch
  00402656: C3                 ret
  00402657: BE FF FF FF FF     mov         esi,0FFFFFFFFh
  0040265C: EB 88              jmp         004025E6
  0040265E: 66
  0040265F: 90                 nop
  00402660: 53                 push        ebx
  00402661: 83 EC 18           sub         esp,18h
  00402664: A1 A0 13 41 00     mov         eax,[004113A0]
  00402669: 8B 5C 24 20        mov         ebx,dword ptr [esp+20h]
  0040266D: 85 C0              test        eax,eax
  0040266F: 75 07              jne         00402678
  00402671: 83 C4 18           add         esp,18h
  00402674: 31 C0              xor         eax,eax
  00402676: 5B                 pop         ebx
  00402677: C3                 ret
  00402678: C7 04 24 A4 13 41  mov         dword ptr [esp],4113A4h
            00
  0040267F: FF 15 C8 21 41 00  call        dword ptr ds:[4121C8h]
  00402685: 8B 15 BC 13 41 00  mov         edx,dword ptr ds:[4113BCh]
  0040268B: 83 EC 04           sub         esp,4
  0040268E: 85 D2              test        edx,edx
  00402690: 74 1D              je          004026AF
  00402692: 8B 02              mov         eax,dword ptr [edx]
  00402694: 39 D8              cmp         eax,ebx
  00402696: 75 10              jne         004026A8
  00402698: EB 4C              jmp         004026E6
  0040269A: 8D B6 00 00 00 00  lea         esi,[esi]
  004026A0: 8B 08              mov         ecx,dword ptr [eax]
  004026A2: 39 D9              cmp         ecx,ebx
  004026A4: 74 20              je          004026C6
  004026A6: 89 C2              mov         edx,eax
  004026A8: 8B 42 08           mov         eax,dword ptr [edx+8]
  004026AB: 85 C0              test        eax,eax
  004026AD: 75 F1              jne         004026A0
  004026AF: C7 04 24 A4 13 41  mov         dword ptr [esp],4113A4h
            00
  004026B6: FF 15 F8 21 41 00  call        dword ptr ds:[4121F8h]
  004026BC: 83 EC 04           sub         esp,4
  004026BF: 83 C4 18           add         esp,18h
  004026C2: 31 C0              xor         eax,eax
  004026C4: 5B                 pop         ebx
  004026C5: C3                 ret
  004026C6: 8B 48 08           mov         ecx,dword ptr [eax+8]
  004026C9: 89 4A 08           mov         dword ptr [edx+8],ecx
  004026CC: 89 04 24           mov         dword ptr [esp],eax
  004026CF: E8 C4 B8 00 00     call        0040DF98
  004026D4: C7 04 24 A4 13 41  mov         dword ptr [esp],4113A4h
            00
  004026DB: FF 15 F8 21 41 00  call        dword ptr ds:[4121F8h]
  004026E1: 83 EC 04           sub         esp,4
  004026E4: EB D9              jmp         004026BF
  004026E6: 8B 42 08           mov         eax,dword ptr [edx+8]
  004026E9: A3 BC 13 41 00     mov         [004113BC],eax
  004026EE: 89 D0              mov         eax,edx
  004026F0: EB DA              jmp         004026CC
  004026F2: 8D B4 26 00 00 00  lea         esi,[esi]
            00
  004026F9: 8D BC 27 00 00 00  lea         edi,[edi]
            00
  00402700: 83 EC 1C           sub         esp,1Ch
  00402703: 8B 44 24 24        mov         eax,dword ptr [esp+24h]
  00402707: 83 F8 01           cmp         eax,1
  0040270A: 74 44              je          00402750
  0040270C: 72 12              jb          00402720
  0040270E: 83 F8 03           cmp         eax,3
  00402711: 74 5D              je          00402770
  00402713: B8 01 00 00 00     mov         eax,1
  00402718: 83 C4 1C           add         esp,1Ch
  0040271B: C3                 ret
  0040271C: 8D 74 26 00        lea         esi,[esi]
  00402720: A1 A0 13 41 00     mov         eax,[004113A0]
  00402725: 85 C0              test        eax,eax
  00402727: 75 69              jne         00402792
  00402729: A1 A0 13 41 00     mov         eax,[004113A0]
  0040272E: 83 F8 01           cmp         eax,1
  00402731: 75 E0              jne         00402713
  00402733: C7 05 A0 13 41 00  mov         dword ptr ds:[4113A0h],0
            00 00 00 00
  0040273D: C7 04 24 A4 13 41  mov         dword ptr [esp],4113A4h
            00
  00402744: FF 15 C4 21 41 00  call        dword ptr ds:[4121C4h]
  0040274A: 83 EC 04           sub         esp,4
  0040274D: EB C4              jmp         00402713
  0040274F: 90                 nop
  00402750: A1 A0 13 41 00     mov         eax,[004113A0]
  00402755: 85 C0              test        eax,eax
  00402757: 74 27              je          00402780
  00402759: C7 05 A0 13 41 00  mov         dword ptr ds:[4113A0h],1
            01 00 00 00
  00402763: B8 01 00 00 00     mov         eax,1
  00402768: 83 C4 1C           add         esp,1Ch
  0040276B: C3                 ret
  0040276C: 8D 74 26 00        lea         esi,[esi]
  00402770: A1 A0 13 41 00     mov         eax,[004113A0]
  00402775: 85 C0              test        eax,eax
  00402777: 74 9A              je          00402713
  00402779: E8 E2 FD FF FF     call        00402560
  0040277E: EB 93              jmp         00402713
  00402780: C7 04 24 A4 13 41  mov         dword ptr [esp],4113A4h
            00
  00402787: FF 15 F0 21 41 00  call        dword ptr ds:[4121F0h]
  0040278D: 83 EC 04           sub         esp,4
  00402790: EB C7              jmp         00402759
  00402792: E8 C9 FD FF FF     call        00402560
  00402797: EB 90              jmp         00402729
  00402799: 90                 nop
  0040279A: 90                 nop
  0040279B: 90                 nop
  0040279C: 90                 nop
  0040279D: 90                 nop
  0040279E: 90                 nop
  0040279F: 90                 nop
  004027A0: FF 25 A8 21 41 00  jmp         dword ptr ds:[4121A8h]
  004027A6: 90                 nop
  004027A7: 90                 nop
  004027A8: FF 25 B0 21 41 00  jmp         dword ptr ds:[4121B0h]
  004027AE: 90                 nop
  004027AF: 90                 nop
  004027B0: FF 25 AC 21 41 00  jmp         dword ptr ds:[4121ACh]
  004027B6: 90                 nop
  004027B7: 90                 nop
  004027B8: 51                 push        ecx
  004027B9: 50                 push        eax
  004027BA: 3D 00 10 00 00     cmp         eax,1000h
  004027BF: 8D 4C 24 0C        lea         ecx,[esp+0Ch]
  004027C3: 72 15              jb          004027DA
  004027C5: 81 E9 00 10 00 00  sub         ecx,1000h
  004027CB: 83 09 00           or          dword ptr [ecx],0
  004027CE: 2D 00 10 00 00     sub         eax,1000h
  004027D3: 3D 00 10 00 00     cmp         eax,1000h
  004027D8: 77 EB              ja          004027C5
  004027DA: 29 C1              sub         ecx,eax
  004027DC: 83 09 00           or          dword ptr [ecx],0
  004027DF: 58                 pop         eax
  004027E0: 59                 pop         ecx
  004027E1: C3                 ret
  004027E2: 90                 nop
  004027E3: 90                 nop
  004027E4: 66
  004027E5: 90                 nop
  004027E6: 66
  004027E7: 90                 nop
  004027E8: 66
  004027E9: 90                 nop
  004027EA: 66
  004027EB: 90                 nop
  004027EC: 66
  004027ED: 90                 nop
  004027EE: 66
  004027EF: 90                 nop
  004027F0: 83 EC 1C           sub         esp,1Ch
  004027F3: 8D 44 24 24        lea         eax,[esp+24h]
  004027F7: 89 44 24 08        mov         dword ptr [esp+8],eax
  004027FB: 8B 44 24 20        mov         eax,dword ptr [esp+20h]
  004027FF: 89 44 24 04        mov         dword ptr [esp+4],eax
  00402803: A1 60 22 41 00     mov         eax,[00412260]
  00402808: 89 04 24           mov         dword ptr [esp],eax
  0040280B: E8 E0 2F 00 00     call        004057F0
  00402810: 83 C4 1C           add         esp,1Ch
  00402813: C3                 ret
  00402814: 8D B6 00 00 00 00  lea         esi,[esi]
  0040281A: 8D BF 00 00 00 00  lea         edi,[edi]
  00402820: 83 EC 1C           sub         esp,1Ch
  00402823: 8B 44 24 24        mov         eax,dword ptr [esp+24h]
  00402827: 89 44 24 08        mov         dword ptr [esp+8],eax
  0040282B: 8B 44 24 20        mov         eax,dword ptr [esp+20h]
  0040282F: 89 44 24 04        mov         dword ptr [esp+4],eax
  00402833: A1 60 22 41 00     mov         eax,[00412260]
  00402838: 89 04 24           mov         dword ptr [esp],eax
  0040283B: E8 B0 2F 00 00     call        004057F0
  00402840: 83 C4 1C           add         esp,1Ch
  00402843: C3                 ret
  00402844: 90                 nop
  00402845: 90                 nop
  00402846: 90                 nop
  00402847: 90                 nop
  00402848: 90                 nop
  00402849: 90                 nop
  0040284A: 90                 nop
  0040284B: 90                 nop
  0040284C: 90                 nop
  0040284D: 90                 nop
  0040284E: 90                 nop
  0040284F: 90                 nop
  00402850: 83 EC 2C           sub         esp,2Ch
  00402853: 8B 44 24 34        mov         eax,dword ptr [esp+34h]
  00402857: C7 44 24 08 00 00  mov         dword ptr [esp+8],0
            00 00
  0040285F: C7 04 24 00 60 00  mov         dword ptr [esp],6000h
            00
  00402866: 89 44 24 10        mov         dword ptr [esp+10h],eax
  0040286A: 8B 44 24 30        mov         eax,dword ptr [esp+30h]
  0040286E: 89 44 24 0C        mov         dword ptr [esp+0Ch],eax
  00402872: A1 60 22 41 00     mov         eax,[00412260]
  00402877: 83 C0 20           add         eax,20h
  0040287A: 89 44 24 04        mov         dword ptr [esp+4],eax
  0040287E: E8 8D 46 00 00     call        00406F10
  00402883: 83 C4 2C           add         esp,2Ch
  00402886: C3                 ret
  00402887: 90                 nop
  00402888: 90                 nop
  00402889: 90                 nop
  0040288A: 90                 nop
  0040288B: 90                 nop
  0040288C: 90                 nop
  0040288D: 90                 nop
  0040288E: 90                 nop
  0040288F: 90                 nop
  00402890: 83 EC 2C           sub         esp,2Ch
  00402893: 8D 44 24 38        lea         eax,[esp+38h]
  00402897: 89 44 24 10        mov         dword ptr [esp+10h],eax
  0040289B: 8B 44 24 34        mov         eax,dword ptr [esp+34h]
  0040289F: C7 44 24 08 00 00  mov         dword ptr [esp+8],0
            00 00
  004028A7: C7 04 24 00 60 00  mov         dword ptr [esp],6000h
            00
  004028AE: 89 44 24 0C        mov         dword ptr [esp+0Ch],eax
  004028B2: 8B 44 24 30        mov         eax,dword ptr [esp+30h]
  004028B6: 89 44 24 04        mov         dword ptr [esp+4],eax
  004028BA: E8 51 46 00 00     call        00406F10
  004028BF: 83 C4 2C           add         esp,2Ch
  004028C2: C3                 ret
  004028C3: 90                 nop
  004028C4: 90                 nop
  004028C5: 90                 nop
  004028C6: 90                 nop
  004028C7: 90                 nop
  004028C8: 90                 nop
  004028C9: 90                 nop
  004028CA: 90                 nop
  004028CB: 90                 nop
  004028CC: 90                 nop
  004028CD: 90                 nop
  004028CE: 90                 nop
  004028CF: 90                 nop
  004028D0: 83 EC 2C           sub         esp,2Ch
  004028D3: 8B 44 24 38        mov         eax,dword ptr [esp+38h]
  004028D7: C7 44 24 08 00 00  mov         dword ptr [esp+8],0
            00 00
  004028DF: C7 04 24 00 60 00  mov         dword ptr [esp],6000h
            00
  004028E6: 89 44 24 10        mov         dword ptr [esp+10h],eax
  004028EA: 8B 44 24 34        mov         eax,dword ptr [esp+34h]
  004028EE: 89 44 24 0C        mov         dword ptr [esp+0Ch],eax
  004028F2: 8B 44 24 30        mov         eax,dword ptr [esp+30h]
  004028F6: 89 44 24 04        mov         dword ptr [esp+4],eax
  004028FA: E8 11 46 00 00     call        00406F10
  004028FF: 83 C4 2C           add         esp,2Ch
  00402902: C3                 ret
  00402903: 90                 nop
  00402904: 90                 nop
  00402905: 90                 nop
  00402906: 90                 nop
  00402907: 90                 nop
  00402908: 90                 nop
  00402909: 90                 nop
  0040290A: 90                 nop
  0040290B: 90                 nop
  0040290C: 90                 nop
  0040290D: 90                 nop
  0040290E: 90                 nop
  0040290F: 90                 nop
  00402910: 53                 push        ebx
  00402911: 89 C3              mov         ebx,eax
  00402913: 83 EC 18           sub         esp,18h
  00402916: 85 C0              test        eax,eax
  00402918: 74 1E              je          00402938
  0040291A: 8B 00              mov         eax,dword ptr [eax]
  0040291C: 85 C0              test        eax,eax
  0040291E: 74 18              je          00402938
  00402920: 29 C2              sub         edx,eax
  00402922: 39 CA              cmp         edx,ecx
  00402924: 74 12              je          00402938
  00402926: 89 54 24 04        mov         dword ptr [esp+4],edx
  0040292A: 89 04 24           mov         dword ptr [esp],eax
  0040292D: E8 6E B6 00 00     call        0040DFA0
  00402932: 85 C0              test        eax,eax
  00402934: 74 02              je          00402938
  00402936: 89 03              mov         dword ptr [ebx],eax
  00402938: 83 C4 18           add         esp,18h
  0040293B: 5B                 pop         ebx
  0040293C: C3                 ret
  0040293D: 8D 76 00           lea         esi,[esi]
  00402940: 83 EC 1C           sub         esp,1Ch
  00402943: 89 5C 24 10        mov         dword ptr [esp+10h],ebx
  00402947: 89 CB              mov         ebx,ecx
  00402949: 8B 0A              mov         ecx,dword ptr [edx]
  0040294B: 89 74 24 14        mov         dword ptr [esp+14h],esi
  0040294F: 89 D6              mov         esi,edx
  00402951: 89 7C 24 18        mov         dword ptr [esp+18h],edi
  00402955: 39 C1              cmp         ecx,eax
  00402957: 74 17              je          00402970
  00402959: 89 D8              mov         eax,ebx
  0040295B: 8B 74 24 14        mov         esi,dword ptr [esp+14h]
  0040295F: 8B 5C 24 10        mov         ebx,dword ptr [esp+10h]
  00402963: 8B 7C 24 18        mov         edi,dword ptr [esp+18h]
  00402967: 83 C4 1C           add         esp,1Ch
  0040296A: C3                 ret
  0040296B: 90                 nop
  0040296C: 8D 74 26 00        lea         esi,[esi]
  00402970: 8D 3C 09           lea         edi,[ecx+ecx]
  00402973: B8 00 01 00 00     mov         eax,100h
  00402978: 81 FF 00 01 00 00  cmp         edi,100h
  0040297E: 0F 42 F8           cmovb       edi,eax
  00402981: 85 DB              test        ebx,ebx
  00402983: 74 1B              je          004029A0
  00402985: 89 7C 24 04        mov         dword ptr [esp+4],edi
  00402989: 89 1C 24           mov         dword ptr [esp],ebx
  0040298C: E8 0F B6 00 00     call        0040DFA0
  00402991: 85 C0              test        eax,eax
  00402993: 74 1B              je          004029B0
  00402995: 89 3E              mov         dword ptr [esi],edi
  00402997: 89 C3              mov         ebx,eax
  00402999: EB BE              jmp         00402959
  0040299B: 90                 nop
  0040299C: 8D 74 26 00        lea         esi,[esi]
  004029A0: 89 3C 24           mov         dword ptr [esp],edi
  004029A3: E8 80 B5 00 00     call        0040DF28
  004029A8: 85 C0              test        eax,eax
  004029AA: 75 E9              jne         00402995
  004029AC: EB AB              jmp         00402959
  004029AE: 66
  004029AF: 90                 nop
  004029B0: 89 1C 24           mov         dword ptr [esp],ebx
  004029B3: 31 DB              xor         ebx,ebx
  004029B5: E8 DE B5 00 00     call        0040DF98
  004029BA: EB 9D              jmp         00402959
  004029BC: 8D 74 26 00        lea         esi,[esi]
  004029C0: 85 D2              test        edx,edx
  004029C2: 74 0D              je          004029D1
  004029C4: 83 FA 01           cmp         edx,1
  004029C7: 8D 4C 90 FC        lea         ecx,[eax+edx*4-4]
  004029CB: 0F 45 C1           cmovne      eax,ecx
  004029CE: 8B 00              mov         eax,dword ptr [eax]
  004029D0: C3                 ret
  004029D1: 83 EC 0C           sub         esp,0Ch
  004029D4: E8 A7 B5 00 00     call        0040DF80
  004029D9: 8D B4 26 00 00 00  lea         esi,[esi]
            00
  004029E0: 53                 push        ebx
  004029E1: 89 C3              mov         ebx,eax
  004029E3: 83 EC 18           sub         esp,18h
  004029E6: 85 C0              test        eax,eax
  004029E8: 74 05              je          004029EF
  004029EA: 83 38 1F           cmp         dword ptr [eax],1Fh
  004029ED: 76 17              jbe         00402A06
  004029EF: C7 04 24 88 00 00  mov         dword ptr [esp],88h
            00
  004029F6: E8 2D B5 00 00     call        0040DF28
  004029FB: 89 58 04           mov         dword ptr [eax+4],ebx
  004029FE: 89 C3              mov         ebx,eax
  00402A00: C7 00 00 00 00 00  mov         dword ptr [eax],0
  00402A06: 83 C4 18           add         esp,18h
  00402A09: 89 D8              mov         eax,ebx
  00402A0B: 5B                 pop         ebx
  00402A0C: C3                 ret
  00402A0D: 8D 76 00           lea         esi,[esi]
  00402A10: 55                 push        ebp
  00402A11: 57                 push        edi
  00402A12: 89 C7              mov         edi,eax
  00402A14: 56                 push        esi
  00402A15: 53                 push        ebx
  00402A16: 83 EC 1C           sub         esp,1Ch
  00402A19: 85 C0              test        eax,eax
  00402A1B: 74 61              je          00402A7E
  00402A1D: 8B 30              mov         esi,dword ptr [eax]
  00402A1F: 89 D5              mov         ebp,edx
  00402A21: 85 F6              test        esi,esi
  00402A23: 74 59              je          00402A7E
  00402A25: 8B 06              mov         eax,dword ptr [esi]
  00402A27: 31 DB              xor         ebx,ebx
  00402A29: 85 C0              test        eax,eax
  00402A2B: 74 22              je          00402A4F
  00402A2D: 8D 76 00           lea         esi,[esi]
  00402A30: 8B 44 9E 08        mov         eax,dword ptr [esi+ebx*4+8]
  00402A34: 8B 00              mov         eax,dword ptr [eax]
  00402A36: 89 04 24           mov         dword ptr [esp],eax
  00402A39: E8 5A B5 00 00     call        0040DF98
  00402A3E: 8B 44 9E 08        mov         eax,dword ptr [esi+ebx*4+8]
  00402A42: 83 C3 01           add         ebx,1
  00402A45: 39 1E              cmp         dword ptr [esi],ebx
  00402A47: C7 00 00 00 00 00  mov         dword ptr [eax],0
  00402A4D: 77 E1              ja          00402A30
  00402A4F: 8B 5E 04           mov         ebx,dword ptr [esi+4]
  00402A52: 89 34 24           mov         dword ptr [esp],esi
  00402A55: E8 3E B5 00 00     call        0040DF98
  00402A5A: 85 DB              test        ebx,ebx
  00402A5C: 74 04              je          00402A62
  00402A5E: 89 DE              mov         esi,ebx
  00402A60: EB C3              jmp         00402A25
  00402A62: 85 ED              test        ebp,ebp
  00402A64: C7 07 00 00 00 00  mov         dword ptr [edi],0
  00402A6A: 74 12              je          00402A7E
  00402A6C: 8B 45 00           mov         eax,dword ptr [ebp]
  00402A6F: 89 04 24           mov         dword ptr [esp],eax
  00402A72: E8 21 B5 00 00     call        0040DF98
  00402A77: C7 45 00 00 00 00  mov         dword ptr [ebp],0
            00
  00402A7E: 83 C4 1C           add         esp,1Ch
  00402A81: 5B                 pop         ebx
  00402A82: 5E                 pop         esi
  00402A83: 5F                 pop         edi
  00402A84: 5D                 pop         ebp
  00402A85: C3                 ret
  00402A86: 8D 76 00           lea         esi,[esi]
  00402A89: 8D BC 27 00 00 00  lea         edi,[edi]
            00
  00402A90: 55                 push        ebp
  00402A91: 89 C5              mov         ebp,eax
  00402A93: 57                 push        edi
  00402A94: 56                 push        esi
  00402A95: 89 D6              mov         esi,edx
  00402A97: 53                 push        ebx
  00402A98: 83 EC 1C           sub         esp,1Ch
  00402A9B: 83 F8 FF           cmp         eax,0FFFFFFFFh
  00402A9E: 74 65              je          00402B05
  00402AA0: 85 D2              test        edx,edx
  00402AA2: 89 CF              mov         edi,ecx
  00402AA4: 74 21              je          00402AC7
  00402AA6: 8B 02              mov         eax,dword ptr [edx]
  00402AA8: 85 C0              test        eax,eax
  00402AAA: 74 15              je          00402AC1
  00402AAC: 8D 74 26 00        lea         esi,[esi]
  00402AB0: 8B 58 04           mov         ebx,dword ptr [eax+4]
  00402AB3: 89 04 24           mov         dword ptr [esp],eax
  00402AB6: E8 DD B4 00 00     call        0040DF98
  00402ABB: 85 DB              test        ebx,ebx
  00402ABD: 89 D8              mov         eax,ebx
  00402ABF: 75 EF              jne         00402AB0
  00402AC1: C7 06 00 00 00 00  mov         dword ptr [esi],0
  00402AC7: 85 FF              test        edi,edi
  00402AC9: 74 10              je          00402ADB
  00402ACB: 8B 07              mov         eax,dword ptr [edi]
  00402ACD: 89 04 24           mov         dword ptr [esp],eax
  00402AD0: E8 C3 B4 00 00     call        0040DF98
  00402AD5: C7 07 00 00 00 00  mov         dword ptr [edi],0
  00402ADB: 8B 54 24 30        mov         edx,dword ptr [esp+30h]
  00402ADF: 85 D2              test        edx,edx
  00402AE1: 74 18              je          00402AFB
  00402AE3: 8B 54 24 30        mov         edx,dword ptr [esp+30h]
  00402AE7: 8B 02              mov         eax,dword ptr [edx]
  00402AE9: 89 04 24           mov         dword ptr [esp],eax
  00402AEC: E8 A7 B4 00 00     call        0040DF98
  00402AF1: 8B 54 24 30        mov         edx,dword ptr [esp+30h]
  00402AF5: C7 02 00 00 00 00  mov         dword ptr [edx],0
  00402AFB: 83 C4 1C           add         esp,1Ch
  00402AFE: 89 E8              mov         eax,ebp
  00402B00: 5B                 pop         ebx
  00402B01: 5E                 pop         esi
  00402B02: 5F                 pop         edi
  00402B03: 5D                 pop         ebp
  00402B04: C3                 ret
  00402B05: 8B 54 24 30        mov         edx,dword ptr [esp+30h]
  00402B09: 89 F0              mov         eax,esi
  00402B0B: E8 00 FF FF FF     call        00402A10
  00402B10: EB E9              jmp         00402AFB
  00402B12: 8D B4 26 00 00 00  lea         esi,[esi]
            00
  00402B19: 8D BC 27 00 00 00  lea         edi,[edi]
            00
  00402B20: 83 EC 2C           sub         esp,2Ch
  00402B23: 89 5C 24 24        mov         dword ptr [esp+24h],ebx
  00402B27: 89 C3              mov         ebx,eax
  00402B29: 8B 80 08 10 00 00  mov         eax,dword ptr [eax+1008h]
  00402B2F: 89 74 24 28        mov         dword ptr [esp+28h],esi
  00402B33: 85 C0              test        eax,eax
  00402B35: 74 1C              je          00402B53
  00402B37: 83 E8 01           sub         eax,1
  00402B3A: 89 83 08 10 00 00  mov         dword ptr [ebx+1008h],eax
  00402B40: 8B 44 83 04        mov         eax,dword ptr [ebx+eax*4+4]
  00402B44: 83 02 01           add         dword ptr [edx],1
  00402B47: 8B 5C 24 24        mov         ebx,dword ptr [esp+24h]
  00402B4B: 8B 74 24 28        mov         esi,dword ptr [esp+28h]
  00402B4F: 83 C4 2C           add         esp,2Ch
  00402B52: C3                 ret
  00402B53: 0F B6 B3 0C 10 00  movzx       esi,byte ptr [ebx+100Ch]
            00
  00402B5A: F7 C6 01 00 00 00  test        esi,1
  00402B60: 75 4E              jne         00402BB0
  00402B62: F6 83 04 10 00 00  test        byte ptr [ebx+1004h],1
            01
  00402B69: 74 1D              je          00402B88
  00402B6B: 8B 0B              mov         ecx,dword ptr [ebx]
  00402B6D: 0F B6 01           movzx       eax,byte ptr [ecx]
  00402B70: 83 C1 01           add         ecx,1
  00402B73: 85 C0              test        eax,eax
  00402B75: 74 49              je          00402BC0
  00402B77: 83 02 01           add         dword ptr [edx],1
  00402B7A: 8B 74 24 28        mov         esi,dword ptr [esp+28h]
  00402B7E: 89 0B              mov         dword ptr [ebx],ecx
  00402B80: 8B 5C 24 24        mov         ebx,dword ptr [esp+24h]
  00402B84: 83 C4 2C           add         esp,2Ch
  00402B87: C3                 ret
  00402B88: 8B 03              mov         eax,dword ptr [ebx]
  00402B8A: 89 54 24 1C        mov         dword ptr [esp+1Ch],edx
  00402B8E: 89 04 24           mov         dword ptr [esp],eax
  00402B91: E8 12 B4 00 00     call        0040DFA8
  00402B96: 8B 54 24 1C        mov         edx,dword ptr [esp+1Ch]
  00402B9A: 83 F8 FF           cmp         eax,0FFFFFFFFh
  00402B9D: 74 18              je          00402BB7
  00402B9F: 83 02 01           add         dword ptr [edx],1
  00402BA2: 8B 5C 24 24        mov         ebx,dword ptr [esp+24h]
  00402BA6: 8B 74 24 28        mov         esi,dword ptr [esp+28h]
  00402BAA: 83 C4 2C           add         esp,2Ch
  00402BAD: C3                 ret
  00402BAE: 66
  00402BAF: 90                 nop
  00402BB0: B8 FF FF FF FF     mov         eax,0FFFFFFFFh
  00402BB5: EB 90              jmp         00402B47
  00402BB7: 80 8B 0C 10 00 00  or          byte ptr [ebx+100Ch],1
            01
  00402BBE: EB 87              jmp         00402B47
  00402BC0: 89 F0              mov         eax,esi
  00402BC2: 83 C8 01           or          eax,1
  00402BC5: 88 83 0C 10 00 00  mov         byte ptr [ebx+100Ch],al
  00402BCB: B8 FF FF FF FF     mov         eax,0FFFFFFFFh
  00402BD0: E9 72 FF FF FF     jmp         00402B47
  00402BD5: 8D 74 26 00        lea         esi,[esi]
  00402BD9: 8D BC 27 00 00 00  lea         edi,[edi]
            00
  00402BE0: 83 EC 2C           sub         esp,2Ch
  00402BE3: 83 7C 24 30 00     cmp         dword ptr [esp+30h],0
  00402BE8: 74 26              je          00402C10
  00402BEA: F6 82 04 10 00 00  test        byte ptr [edx+1004h],1
            01
  00402BF1: 74 2B              je          00402C1E
  00402BF3: 83 29 01           sub         dword ptr [ecx],1
  00402BF6: 8B 8A 08 10 00 00  mov         ecx,dword ptr [edx+1008h]
  00402BFC: 89 44 8A 04        mov         dword ptr [edx+ecx*4+4],eax
  00402C00: 83 C1 01           add         ecx,1
  00402C03: 89 8A 08 10 00 00  mov         dword ptr [edx+1008h],ecx
  00402C09: 83 C4 2C           add         esp,2Ch
  00402C0C: C3                 ret
  00402C0D: 8D 76 00           lea         esi,[esi]
  00402C10: 83 F8 FF           cmp         eax,0FFFFFFFFh
  00402C13: 74 F4              je          00402C09
  00402C15: F6 82 04 10 00 00  test        byte ptr [edx+1004h],1
            01
  00402C1C: 75 D5              jne         00402BF3
  00402C1E: 8B 12              mov         edx,dword ptr [edx]
  00402C20: 89 04 24           mov         dword ptr [esp],eax
  00402C23: 89 4C 24 1C        mov         dword ptr [esp+1Ch],ecx
  00402C27: 89 54 24 04        mov         dword ptr [esp+4],edx
  00402C2B: E8 80 B3 00 00     call        0040DFB0
  00402C30: 8B 4C 24 1C        mov         ecx,dword ptr [esp+1Ch]
  00402C34: 83 29 01           sub         dword ptr [ecx],1
  00402C37: 83 C4 2C           add         esp,2Ch
  00402C3A: C3                 ret
  00402C3B: 90                 nop
  00402C3C: 8D 74 26 00        lea         esi,[esi]
  00402C40: 55                 push        ebp
  00402C41: 57                 push        edi
  00402C42: 56                 push        esi
  00402C43: 53                 push        ebx
  00402C44: 81 EC CC 00 00 00  sub         esp,0CCh
  00402C4A: 85 C0              test        eax,eax
  00402C4C: 89 44 24 34        mov         dword ptr [esp+34h],eax
  00402C50: 89 4C 24 5C        mov         dword ptr [esp+5Ch],ecx
  00402C54: C7 84 24 9C 00 00  mov         dword ptr [esp+9Ch],0
            00 00 00 00 00
  00402C5F: C7 84 24 A0 00 00  mov         dword ptr [esp+0A0h],0
            00 00 00 00 00
  00402C6A: C7 84 24 A4 00 00  mov         dword ptr [esp+0A4h],0
            00 00 00 00 00
  00402C75: C7 84 24 A8 00 00  mov         dword ptr [esp+0A8h],0
            00 00 00 00 00
  00402C80: 0F 84 56 1E 00 00  je          00404ADC
  00402C86: 8B 00              mov         eax,dword ptr [eax]
  00402C88: 85 C0              test        eax,eax
  00402C8A: 0F 84 4C 1E 00 00  je          00404ADC
  00402C90: 85 D2              test        edx,edx
  00402C92: 89 D6              mov         esi,edx
  00402C94: 0F 84 42 1E 00 00  je          00404ADC
  00402C9A: C7 84 24 B0 00 00  mov         dword ptr [esp+0B0h],0
            00 00 00 00 00
  00402CA5: E8 0E B3 00 00     call        0040DFB8
  00402CAA: 8B 00              mov         eax,dword ptr [eax]
  00402CAC: 89 44 24 60        mov         dword ptr [esp+60h],eax
  00402CB0: E8 03 B3 00 00     call        0040DFB8
  00402CB5: 8B 40 04           mov         eax,dword ptr [eax+4]
  00402CB8: 85 C0              test        eax,eax
  00402CBA: 89 44 24 3C        mov         dword ptr [esp+3Ch],eax
  00402CBE: 74 11              je          00402CD1
  00402CC0: 80 38 00           cmp         byte ptr [eax],0
  00402CC3: B8 00 00 00 00     mov         eax,0
  00402CC8: 0F 45 44 24 3C     cmovne      eax,dword ptr [esp+3Ch]
  00402CCD: 89 44 24 3C        mov         dword ptr [esp+3Ch],eax
  00402CD1: 8B 4C 24 5C        mov         ecx,dword ptr [esp+5Ch]
  00402CD5: 31 FF              xor         edi,edi
  00402CD7: C7 44 24 50 00 00  mov         dword ptr [esp+50h],0
            00 00
  00402CDF: C7 44 24 30 00 00  mov         dword ptr [esp+30h],0
            00 00
  00402CE7: C7 44 24 48 00 00  mov         dword ptr [esp+48h],0
            00 00
  00402CEF: 89 4C 24 54        mov         dword ptr [esp+54h],ecx
  00402CF3: C7 44 24 58 00 00  mov         dword ptr [esp+58h],0
            00 00
  00402CFB: C7 44 24 4C 00 00  mov         dword ptr [esp+4Ch],0
            00 00
  00402D03: C7 44 24 68 00 00  mov         dword ptr [esp+68h],0
            00 00
  00402D0B: C7 44 24 64 00 00  mov         dword ptr [esp+64h],0
            00 00
  00402D13: 0F B6 06           movzx       eax,byte ptr [esi]
  00402D16: 3C 00              cmp         al,0
  00402D18: 0F 84 4B 10 00 00  je          00403D69
  00402D1E: 0F 8C EC 02 00 00  jl          00403010
  00402D24: 3C 25              cmp         al,25h
  00402D26: 8D 5E 01           lea         ebx,[esi+1]
  00402D29: 74 25              je          00402D50
  00402D2B: 0F B6 F0           movzx       esi,al
  00402D2E: 89 34 24           mov         dword ptr [esp],esi
  00402D31: E8 8A B2 00 00     call        0040DFC0
  00402D36: 85 C0              test        eax,eax
  00402D38: 0F 84 62 02 00 00  je          00402FA0
  00402D3E: C7 44 24 30 01 00  mov         dword ptr [esp+30h],1
            00 00
  00402D46: 89 DE              mov         esi,ebx
  00402D48: EB C9              jmp         00402D13
  00402D4A: 8D B6 00 00 00 00  lea         esi,[esi]
  00402D50: 0F B6 46 01        movzx       eax,byte ptr [esi+1]
  00402D54: C7 44 24 44 00 00  mov         dword ptr [esp+44h],0
            00 00
  00402D5C: 0F B6 D0           movzx       edx,al
  00402D5F: 83 EA 30           sub         edx,30h
  00402D62: 83 FA 09           cmp         edx,9
  00402D65: 77 60              ja          00402DC7
  00402D67: 8D 4E 02           lea         ecx,[esi+2]
  00402D6A: 0F B6 76 02        movzx       esi,byte ptr [esi+2]
  00402D6E: 89 54 24 44        mov         dword ptr [esp+44h],edx
  00402D72: 89 F2              mov         edx,esi
  00402D74: 0F B6 D2           movzx       edx,dl
  00402D77: 89 D5              mov         ebp,edx
  00402D79: 83 ED 30           sub         ebp,30h
  00402D7C: 83 FD 09           cmp         ebp,9
  00402D7F: 89 54 24 40        mov         dword ptr [esp+40h],edx
  00402D83: 77 2F              ja          00402DB4
  00402D85: 89 5C 24 38        mov         dword ptr [esp+38h],ebx
  00402D89: 8B 5C 24 44        mov         ebx,dword ptr [esp+44h]
  00402D8D: 89 C5              mov         ebp,eax
  00402D8F: 90                 nop
  00402D90: 8D 04 9B           lea         eax,[ebx+ebx*4]
  00402D93: 83 C1 01           add         ecx,1
  00402D96: 8D 5C 42 D0        lea         ebx,[edx+eax*2-30h]
  00402D9A: 0F B6 01           movzx       eax,byte ptr [ecx]
  00402D9D: 0F B6 D0           movzx       edx,al
  00402DA0: 8D 72 D0           lea         esi,[edx-30h]
  00402DA3: 83 FE 09           cmp         esi,9
  00402DA6: 76 E8              jbe         00402D90
  00402DA8: 89 5C 24 44        mov         dword ptr [esp+44h],ebx
  00402DAC: 8B 5C 24 38        mov         ebx,dword ptr [esp+38h]
  00402DB0: 89 C6              mov         esi,eax
  00402DB2: 89 E8              mov         eax,ebp
  00402DB4: 89 F2              mov         edx,esi
  00402DB6: 80 FA 24           cmp         dl,24h
  00402DB9: 0F 84 8A 03 00 00  je          00403149
  00402DBF: C7 44 24 44 00 00  mov         dword ptr [esp+44h],0
            00 00
  00402DC7: C7 44 24 38 00 00  mov         dword ptr [esp+38h],0
            00 00
  00402DCF: 31 D2              xor         edx,edx
  00402DD1: 8B 4C 24 3C        mov         ecx,dword ptr [esp+3Ch]
  00402DD5: EB 1A              jmp         00402DF1
  00402DD7: 3C 27              cmp         al,27h
  00402DD9: 74 25              je          00402E00
  00402DDB: 3C 49              cmp         al,49h
  00402DDD: 75 55              jne         00402E34
  00402DDF: 0F B6 43 01        movzx       eax,byte ptr [ebx+1]
  00402DE3: 3C 36              cmp         al,36h
  00402DE5: 74 29              je          00402E10
  00402DE7: 3C 33              cmp         al,33h
  00402DE9: 74 37              je          00402E22
  00402DEB: 83 CA 04           or          edx,4
  00402DEE: 83 C3 01           add         ebx,1
  00402DF1: 3C 2A              cmp         al,2Ah
  00402DF3: 75 E2              jne         00402DD7
  00402DF5: 80 CA 80           or          dl,80h
  00402DF8: 0F B6 43 01        movzx       eax,byte ptr [ebx+1]
  00402DFC: EB F0              jmp         00402DEE
  00402DFE: 66
  00402DFF: 90                 nop
  00402E00: 85 C9              test        ecx,ecx
  00402E02: 74 03              je          00402E07
  00402E04: 80 CE 01           or          dh,1
  00402E07: 0F B6 43 01        movzx       eax,byte ptr [ebx+1]
  00402E0B: EB E1              jmp         00402DEE
  00402E0D: 8D 76 00           lea         esi,[esi]
  00402E10: 80 7B 02 34        cmp         byte ptr [ebx+2],34h
  00402E14: 75 D5              jne         00402DEB
  00402E16: 0F B6 43 03        movzx       eax,byte ptr [ebx+3]
  00402E1A: 83 CA 0C           or          edx,0Ch
  00402E1D: 83 C3 02           add         ebx,2
  00402E20: EB CC              jmp         00402DEE
  00402E22: 80 7B 02 32        cmp         byte ptr [ebx+2],32h
  00402E26: 75 C3              jne         00402DEB
  00402E28: 0F B6 43 03        movzx       eax,byte ptr [ebx+3]
  00402E2C: 83 CA 04           or          edx,4
  00402E2F: 83 C3 02           add         ebx,2
  00402E32: EB BA              jmp         00402DEE
  00402E34: 0F B6 F0           movzx       esi,al
  00402E37: 31 ED              xor         ebp,ebp
  00402E39: 83 EE 30           sub         esi,30h
  00402E3C: 89 D1              mov         ecx,edx
  00402E3E: 83 FE 09           cmp         esi,9
  00402E41: 89 54 24 38        mov         dword ptr [esp+38h],edx
  00402E45: 0F B6 D0           movzx       edx,al
  00402E48: 0F 87 11 0F 00 00  ja          00403D5F
  00402E4E: 66
  00402E4F: 90                 nop
  00402E50: 8D 44 AD 00        lea         eax,[ebp+ebp*4]
  00402E54: 83 C3 01           add         ebx,1
  00402E57: 8D 6C 42 D0        lea         ebp,[edx+eax*2-30h]
  00402E5B: 0F B6 03           movzx       eax,byte ptr [ebx]
  00402E5E: 0F B6 F0           movzx       esi,al
  00402E61: 0F B6 D0           movzx       edx,al
  00402E64: 83 EE 30           sub         esi,30h
  00402E67: 83 FE 09           cmp         esi,9
  00402E6A: 76 E4              jbe         00402E50
  00402E6C: 85 ED              test        ebp,ebp
  00402E6E: BA FF FF FF FF     mov         edx,0FFFFFFFFh
  00402E73: 0F 44 EA           cmove       ebp,edx
  00402E76: 3C 6C              cmp         al,6Ch
  00402E78: 0F 84 C2 0E 00 00  je          00403D40
  00402E7E: 0F 8E EE 01 00 00  jle         00403072
  00402E84: 3C 71              cmp         al,71h
  00402E86: 0F 84 02 03 00 00  je          0040318E
  00402E8C: 8D 74 26 00        lea         esi,[esi]
  00402E90: 0F 8F C7 02 00 00  jg          0040315D
  00402E96: 3C 6D              cmp         al,6Dh
  00402E98: 0F 84 2E 0E 00 00  je          00403CCC
  00402E9E: 0F B6 33           movzx       esi,byte ptr [ebx]
  00402EA1: 89 5C 24 40        mov         dword ptr [esp+40h],ebx
  00402EA5: 89 F3              mov         ebx,esi
  00402EA7: 84 DB              test        bl,bl
  00402EA9: 0F 84 71 02 00 00  je          00403120
  00402EAF: 8B 5C 24 40        mov         ebx,dword ptr [esp+40h]
  00402EB3: 8B 4C 24 30        mov         ecx,dword ptr [esp+30h]
  00402EB7: 83 C3 01           add         ebx,1
  00402EBA: 85 C9              test        ecx,ecx
  00402EBC: 75 22              jne         00402EE0
  00402EBE: 89 F0              mov         eax,esi
  00402EC0: 3C 63              cmp         al,63h
  00402EC2: 0F 84 AB 00 00 00  je          00402F73
  00402EC8: 3C 5B              cmp         al,5Bh
  00402ECA: 0F 84 A3 00 00 00  je          00402F73
  00402ED0: 3C 6E              cmp         al,6Eh
  00402ED2: 0F 84 9B 00 00 00  je          00402F73
  00402ED8: 3C 43              cmp         al,43h
  00402EDA: 0F 84 93 00 00 00  je          00402F73
  00402EE0: E8 E3 B0 00 00     call        0040DFC8
  00402EE5: 8B 00              mov         eax,dword ptr [eax]
  00402EE7: 89 44 24 30        mov         dword ptr [esp+30h],eax
  00402EEB: E8 D8 B0 00 00     call        0040DFC8
  00402EF0: C7 00 00 00 00 00  mov         dword ptr [eax],0
  00402EF6: 89 F8              mov         eax,edi
  00402EF8: 89 F7              mov         edi,esi
  00402EFA: 89 DE              mov         esi,ebx
  00402EFC: 89 C3              mov         ebx,eax
  00402EFE: EB 23              jmp         00402F23
  00402F00: 8B 44 24 34        mov         eax,dword ptr [esp+34h]
  00402F04: 8D 94 24 A0 00 00  lea         edx,[esp+0A0h]
            00
  00402F0B: E8 10 FC FF FF     call        00402B20
  00402F10: 83 F8 FF           cmp         eax,0FFFFFFFFh
  00402F13: 89 C3              mov         ebx,eax
  00402F15: 74 11              je          00402F28
  00402F17: 89 1C 24           mov         dword ptr [esp],ebx
  00402F1A: E8 A1 B0 00 00     call        0040DFC0
  00402F1F: 85 C0              test        eax,eax
  00402F21: 74 24              je          00402F47
  00402F23: 83 FB FF           cmp         ebx,0FFFFFFFFh
  00402F26: 75 D8              jne         00402F00
  00402F28: E8 9B B0 00 00     call        0040DFC8
  00402F2D: 83 38 04           cmp         dword ptr [eax],4
  00402F30: 0F 84 E1 0E 00 00  je          00403E17
  00402F36: BB FF FF FF FF     mov         ebx,0FFFFFFFFh
  00402F3B: 89 1C 24           mov         dword ptr [esp],ebx
  00402F3E: E8 7D B0 00 00     call        0040DFC0
  00402F43: 85 C0              test        eax,eax
  00402F45: 75 DC              jne         00402F23
  00402F47: 89 D8              mov         eax,ebx
  00402F49: 89 F3              mov         ebx,esi
  00402F4B: 89 FE              mov         esi,edi
  00402F4D: 89 C7              mov         edi,eax
  00402F4F: E8 74 B0 00 00     call        0040DFC8
  00402F54: 8B 4C 24 30        mov         ecx,dword ptr [esp+30h]
  00402F58: 8B 54 24 34        mov         edx,dword ptr [esp+34h]
  00402F5C: 89 08              mov         dword ptr [eax],ecx
  00402F5E: 8D 8C 24 A0 00 00  lea         ecx,[esp+0A0h]
            00
  00402F65: 89 F8              mov         eax,edi
  00402F67: C7 04 24 00 00 00  mov         dword ptr [esp],0
            00
  00402F6E: E8 6D FC FF FF     call        00402BE0
  00402F73: 89 F0              mov         eax,esi
  00402F75: 3C 63              cmp         al,63h
  00402F77: 0F 84 EB 03 00 00  je          00403368
  00402F7D: 3C 73              cmp         al,73h
  00402F7F: 0F 84 1E 02 00 00  je          004031A3
  00402F85: 8D 46 DB           lea         eax,[esi-25h]
  00402F88: 3C 53              cmp         al,53h
  00402F8A: 0F 87 90 01 00 00  ja          00403120
  00402F90: 0F B6 C0           movzx       eax,al
  00402F93: FF 24 85 B4 02 41  jmp         dword ptr [eax*4+4102B4h]
            00
  00402F9A: 8D B6 00 00 00 00  lea         esi,[esi]
  00402FA0: 8B 44 24 34        mov         eax,dword ptr [esp+34h]
  00402FA4: 8D 94 24 A0 00 00  lea         edx,[esp+0A0h]
            00
  00402FAB: E8 70 FB FF FF     call        00402B20
  00402FB0: 83 F8 FF           cmp         eax,0FFFFFFFFh
  00402FB3: 89 C7              mov         edi,eax
  00402FB5: 0F 84 FA 0D 00 00  je          00403DB5
  00402FBB: 8B 6C 24 30        mov         ebp,dword ptr [esp+30h]
  00402FBF: 85 ED              test        ebp,ebp
  00402FC1: 74 35              je          00402FF8
  00402FC3: 89 04 24           mov         dword ptr [esp],eax
  00402FC6: E8 F5 AF 00 00     call        0040DFC0
  00402FCB: 85 C0              test        eax,eax
  00402FCD: 74 29              je          00402FF8
  00402FCF: 8B 6C 24 34        mov         ebp,dword ptr [esp+34h]
  00402FD3: 8D 94 24 A0 00 00  lea         edx,[esp+0A0h]
            00
  00402FDA: 89 E8              mov         eax,ebp
  00402FDC: E8 3F FB FF FF     call        00402B20
  00402FE1: 83 F8 FF           cmp         eax,0FFFFFFFFh
  00402FE4: 89 C7              mov         edi,eax
  00402FE6: 0F 84 C9 0D 00 00  je          00403DB5
  00402FEC: 89 04 24           mov         dword ptr [esp],eax
  00402FEF: E8 CC AF 00 00     call        0040DFC0
  00402FF4: 85 C0              test        eax,eax
  00402FF6: 75 DB              jne         00402FD3
  00402FF8: 39 FE              cmp         esi,edi
  00402FFA: 0F 85 F6 00 00 00  jne         004030F6
  00403000: C7 44 24 30 00 00  mov         dword ptr [esp+30h],0
            00 00
  00403008: 89 DE              mov         esi,ebx
  0040300A: E9 04 FD FF FF     jmp         00402D13
  0040300F: 90                 nop
  00403010: 89 34 24           mov         dword ptr [esp],esi
  00403013: 89 F3              mov         ebx,esi
  00403015: E8 16 AF 00 00     call        0040DF30
  0040301A: 8D 94 24 B0 00 00  lea         edx,[esp+0B0h]
            00
  00403021: 89 54 24 08        mov         dword ptr [esp+8],edx
  00403025: 89 34 24           mov         dword ptr [esp],esi
  00403028: 89 44 24 04        mov         dword ptr [esp+4],eax
  0040302C: E8 7F 4B 00 00     call        00407BB0
  00403031: 85 C0              test        eax,eax
  00403033: 8D 2C 06           lea         ebp,[esi+eax]
  00403036: 0F 8E 19 01 00 00  jle         00403155
  0040303C: 8B 74 24 34        mov         esi,dword ptr [esp+34h]
  00403040: 8D 94 24 A0 00 00  lea         edx,[esp+0A0h]
            00
  00403047: 89 F0              mov         eax,esi
  00403049: E8 D2 FA FF FF     call        00402B20
  0040304E: 83 F8 FF           cmp         eax,0FFFFFFFFh
  00403051: 89 C7              mov         edi,eax
  00403053: 0F 84 8C 0D 00 00  je          00403DE5
  00403059: 0F B6 03           movzx       eax,byte ptr [ebx]
  0040305C: 83 C3 01           add         ebx,1
  0040305F: 39 C7              cmp         edi,eax
  00403061: 0F 85 7E 0D 00 00  jne         00403DE5
  00403067: 39 EB              cmp         ebx,ebp
  00403069: 75 D5              jne         00403040
  0040306B: 89 DE              mov         esi,ebx
  0040306D: E9 A1 FC FF FF     jmp         00402D13
  00403072: 3C 61              cmp         al,61h
  00403074: 0F 84 26 0C 00 00  je          00403CA0
  0040307A: 8D B6 00 00 00 00  lea         esi,[esi]
  00403080: 0F 8E FC 00 00 00  jle         00403182
  00403086: 3C 68              cmp         al,68h
  00403088: 0F 84 76 0C 00 00  je          00403D04
  0040308E: 3C 6A              cmp         al,6Ah
  00403090: 0F 85 08 FE FF FF  jne         00402E9E
  00403096: 8D 53 01           lea         edx,[ebx+1]
  00403099: 0F B6 73 01        movzx       esi,byte ptr [ebx+1]
  0040309D: 83 4C 24 38 08     or          dword ptr [esp+38h],8
  004030A2: 89 54 24 40        mov         dword ptr [esp+40h],edx
  004030A6: E9 FA FD FF FF     jmp         00402EA5
  004030AB: F6 44 24 38 20     test        byte ptr [esp+38h],20h
  004030B0: 74 44              je          004030F6
  004030B2: 89 3C 24           mov         dword ptr [esp],edi
  004030B5: E8 16 AF 00 00     call        0040DFD0
  004030BA: 3C 28              cmp         al,28h
  004030BC: 75 38              jne         004030F6
  004030BE: BE A1 02 41 00     mov         esi,4102A1h
  004030C3: 8B 6C 24 34        mov         ebp,dword ptr [esp+34h]
  004030C7: EB 18              jmp         004030E1
  004030C9: 89 04 24           mov         dword ptr [esp],eax
  004030CC: E8 FF AE 00 00     call        0040DFD0
  004030D1: 38 06              cmp         byte ptr [esi],al
  004030D3: 75 21              jne         004030F6
  004030D5: 83 C6 01           add         esi,1
  004030D8: 80 3E 00           cmp         byte ptr [esi],0
  004030DB: 0F 84 FD 21 00 00  je          004052DE
  004030E1: 8D 94 24 A0 00 00  lea         edx,[esp+0A0h]
            00
  004030E8: 89 E8              mov         eax,ebp
  004030EA: E8 31 FA FF FF     call        00402B20
  004030EF: 83 F8 FF           cmp         eax,0FFFFFFFFh
  004030F2: 89 C7              mov         edi,eax
  004030F4: 75 D3              jne         004030C9
  004030F6: 8B 54 24 34        mov         edx,dword ptr [esp+34h]
  004030FA: 8D 8C 24 A0 00 00  lea         ecx,[esp+0A0h]
            00
  00403101: 89 F8              mov         eax,edi
  00403103: C7 04 24 00 00 00  mov         dword ptr [esp],0
            00
  0040310A: E8 D1 FA FF FF     call        00402BE0
  0040310F: EB 0F              jmp         00403120
  00403111: DD D8              fstp        st(0)
  00403113: EB 0B              jmp         00403120
  00403115: DD D8              fstp        st(0)
  00403117: EB 07              jmp         00403120
  00403119: DD D8              fstp        st(0)
  0040311B: 90                 nop
  0040311C: 8D 74 26 00        lea         esi,[esi]
  00403120: 8D 84 24 A8 00 00  lea         eax,[esp+0A8h]
            00
  00403127: 8B 4C 24 4C        mov         ecx,dword ptr [esp+4Ch]
  0040312B: 89 04 24           mov         dword ptr [esp],eax
  0040312E: 8B 44 24 48        mov         eax,dword ptr [esp+48h]
  00403132: 8D 94 24 9C 00 00  lea         edx,[esp+9Ch]
            00
  00403139: E8 52 F9 FF FF     call        00402A90
  0040313E: 81 C4 CC 00 00 00  add         esp,0CCh
  00403144: 5B                 pop         ebx
  00403145: 5E                 pop         esi
  00403146: 5F                 pop         edi
  00403147: 5D                 pop         ebp
  00403148: C3                 ret
  00403149: 8D 59 01           lea         ebx,[ecx+1]
  0040314C: 0F B6 41 01        movzx       eax,byte ptr [ecx+1]
  00403150: E9 72 FC FF FF     jmp         00402DC7
  00403155: 0F B6 06           movzx       eax,byte ptr [esi]
  00403158: E9 C7 FB FF FF     jmp         00402D24
  0040315D: 3C 74              cmp         al,74h
  0040315F: 0F 84 BF 0B 00 00  je          00403D24
  00403165: 3C 7A              cmp         al,7Ah
  00403167: 0F 85 31 FD FF FF  jne         00402E9E
  0040316D: 8D 43 01           lea         eax,[ebx+1]
  00403170: 0F B6 73 01        movzx       esi,byte ptr [ebx+1]
  00403174: 83 4C 24 38 04     or          dword ptr [esp+38h],4
  00403179: 89 44 24 40        mov         dword ptr [esp+40h],eax
  0040317D: E9 23 FD FF FF     jmp         00402EA5
  00403182: 84 C0              test        al,al
  00403184: 74 9A              je          00403120
  00403186: 3C 4C              cmp         al,4Ch
  00403188: 0F 85 10 FD FF FF  jne         00402E9E
  0040318E: 8D 53 01           lea         edx,[ebx+1]
  00403191: 0F B6 73 01        movzx       esi,byte ptr [ebx+1]
  00403195: 89 54 24 40        mov         dword ptr [esp+40h],edx
  00403199: 83 4C 24 38 0C     or          dword ptr [esp+38h],0Ch
  0040319E: E9 02 FD FF FF     jmp         00402EA5
  004031A3: F6 44 24 38 04     test        byte ptr [esp+38h],4
  004031A8: 0F 85 48 06 00 00  jne         004037F6
  004031AE: 8B 74 24 38        mov         esi,dword ptr [esp+38h]
  004031B2: 81 E6 80 00 00 00  and         esi,80h
  004031B8: 0F 85 83 00 00 00  jne         00403241
  004031BE: F7 44 24 38 00 06  test        dword ptr [esp+38h],600h
            00 00
  004031C6: 0F 84 CD 0D 00 00  je          00403F99
  004031CC: 8B 7C 24 44        mov         edi,dword ptr [esp+44h]
  004031D0: 85 FF              test        edi,edi
  004031D2: 0F 85 E3 1E 00 00  jne         004050BB
  004031D8: 8B 54 24 54        mov         edx,dword ptr [esp+54h]
  004031DC: 8B 4C 24 54        mov         ecx,dword ptr [esp+54h]
  004031E0: 8B 12              mov         edx,dword ptr [edx]
  004031E2: 83 C1 04           add         ecx,4
  004031E5: 89 4C 24 54        mov         dword ptr [esp+54h],ecx
  004031E9: 89 54 24 4C        mov         dword ptr [esp+4Ch],edx
  004031ED: 8B 4C 24 4C        mov         ecx,dword ptr [esp+4Ch]
  004031F1: 85 C9              test        ecx,ecx
  004031F3: 0F 84 86 24 00 00  je          0040567F
  004031F9: C7 04 24 64 00 00  mov         dword ptr [esp],64h
            00
  00403200: E8 23 AD 00 00     call        0040DF28
  00403205: 8B 4C 24 4C        mov         ecx,dword ptr [esp+4Ch]
  00403209: 85 C0              test        eax,eax
  0040320B: 89 44 24 68        mov         dword ptr [esp+68h],eax
  0040320F: 89 01              mov         dword ptr [ecx],eax
  00403211: 0F 84 23 0D 00 00  je          00403F3A
  00403217: 8B 84 24 9C 00 00  mov         eax,dword ptr [esp+9Ch]
            00
  0040321E: E8 BD F7 FF FF     call        004029E0
  00403223: 8B 4C 24 4C        mov         ecx,dword ptr [esp+4Ch]
  00403227: C7 44 24 64 64 00  mov         dword ptr [esp+64h],64h
            00 00
  0040322F: 8B 10              mov         edx,dword ptr [eax]
  00403231: 89 84 24 9C 00 00  mov         dword ptr [esp+9Ch],eax
            00
  00403238: 89 4C 90 08        mov         dword ptr [eax+edx*4+8],ecx
  0040323C: 83 C2 01           add         edx,1
  0040323F: 89 10              mov         dword ptr [eax],edx
  00403241: 8B 44 24 34        mov         eax,dword ptr [esp+34h]
  00403245: 8D 94 24 A0 00 00  lea         edx,[esp+0A0h]
            00
  0040324C: E8 CF F8 FF FF     call        00402B20
  00403251: 83 F8 FF           cmp         eax,0FFFFFFFFh
  00403254: 89 C7              mov         edi,eax
  00403256: 0F 84 59 0B 00 00  je          00403DB5
  0040325C: 8B 4C 24 38        mov         ecx,dword ptr [esp+38h]
  00403260: 89 5C 24 44        mov         dword ptr [esp+44h],ebx
  00403264: 8B 5C 24 68        mov         ebx,dword ptr [esp+68h]
  00403268: 81 E1 00 06 00 00  and         ecx,600h
  0040326E: 89 4C 24 30        mov         dword ptr [esp+30h],ecx
  00403272: 89 3C 24           mov         dword ptr [esp],edi
  00403275: E8 46 AD 00 00     call        0040DFC0
  0040327A: 85 C0              test        eax,eax
  0040327C: 0F 85 C0 1B 00 00  jne         00404E42
  00403282: 85 F6              test        esi,esi
  00403284: 75 23              jne         004032A9
  00403286: 89 F8              mov         eax,edi
  00403288: 88 03              mov         byte ptr [ebx],al
  0040328A: 8B 44 24 30        mov         eax,dword ptr [esp+30h]
  0040328E: 83 C3 01           add         ebx,1
  00403291: 85 C0              test        eax,eax
  00403293: 74 14              je          004032A9
  00403295: 8B 4C 24 4C        mov         ecx,dword ptr [esp+4Ch]
  00403299: 8B 01              mov         eax,dword ptr [ecx]
  0040329B: 8B 4C 24 64        mov         ecx,dword ptr [esp+64h]
  0040329F: 01 C1              add         ecx,eax
  004032A1: 39 CB              cmp         ebx,ecx
  004032A3: 0F 84 F7 19 00 00  je          00404CA0
  004032A9: 85 ED              test        ebp,ebp
  004032AB: 7E 05              jle         004032B2
  004032AD: 83 ED 01           sub         ebp,1
  004032B0: 74 17              je          004032C9
  004032B2: 8B 44 24 34        mov         eax,dword ptr [esp+34h]
  004032B6: 8D 94 24 A0 00 00  lea         edx,[esp+0A0h]
            00
  004032BD: E8 5E F8 FF FF     call        00402B20
  004032C2: 83 F8 FF           cmp         eax,0FFFFFFFFh
  004032C5: 89 C7              mov         edi,eax
  004032C7: 75 A9              jne         00403272
  004032C9: 89 5C 24 68        mov         dword ptr [esp+68h],ebx
  004032CD: 8B 5C 24 44        mov         ebx,dword ptr [esp+44h]
  004032D1: 85 F6              test        esi,esi
  004032D3: C7 44 24 30 00 00  mov         dword ptr [esp+30h],0
            00 00
  004032DB: 0F 85 65 FA FF FF  jne         00402D46
  004032E1: 8B 44 24 68        mov         eax,dword ptr [esp+68h]
  004032E5: C6 00 00           mov         byte ptr [eax],0
  004032E8: 8B 4C 24 64        mov         ecx,dword ptr [esp+64h]
  004032EC: 83 C0 01           add         eax,1
  004032EF: 89 44 24 68        mov         dword ptr [esp+68h],eax
  004032F3: 89 C2              mov         edx,eax
  004032F5: 8B 44 24 4C        mov         eax,dword ptr [esp+4Ch]
  004032F9: 89 DE              mov         esi,ebx
  004032FB: E8 10 F6 FF FF     call        00402910
  00403300: 83 44 24 48 01     add         dword ptr [esp+48h],1
  00403305: C7 44 24 4C 00 00  mov         dword ptr [esp+4Ch],0
            00 00
  0040330D: E9 01 FA FF FF     jmp         00402D13
  00403312: F6 44 24 38 80     test        byte ptr [esp+38h],80h
  00403317: C7 44 24 30 00 00  mov         dword ptr [esp+30h],0
            00 00
  0040331F: 0F 85 21 FA FF FF  jne         00402D46
  00403325: F6 44 24 38 08     test        byte ptr [esp+38h],8
  0040332A: 0F 84 C8 17 00 00  je          00404AF8
  00403330: 8B 54 24 44        mov         edx,dword ptr [esp+44h]
  00403334: 85 D2              test        edx,edx
  00403336: 0F 85 A1 1E 00 00  jne         004051DD
  0040333C: 8B 54 24 54        mov         edx,dword ptr [esp+54h]
  00403340: 8B 02              mov         eax,dword ptr [edx]
  00403342: 83 C2 04           add         edx,4
  00403345: 89 54 24 54        mov         dword ptr [esp+54h],edx
  00403349: 8B 8C 24 A0 00 00  mov         ecx,dword ptr [esp+0A0h]
            00
  00403350: 89 DE              mov         esi,ebx
  00403352: C7 40 04 00 00 00  mov         dword ptr [eax+4],0
            00
  00403359: C7 44 24 30 00 00  mov         dword ptr [esp+30h],0
            00 00
  00403361: 89 08              mov         dword ptr [eax],ecx
  00403363: E9 AB F9 FF FF     jmp         00402D13
  00403368: F6 44 24 38 04     test        byte ptr [esp+38h],4
  0040336D: 0F 85 C9 05 00 00  jne         0040393C
  00403373: 83 FD FF           cmp         ebp,0FFFFFFFFh
  00403376: B8 01 00 00 00     mov         eax,1
  0040337B: 0F 44 E8           cmove       ebp,eax
  0040337E: F6 44 24 38 80     test        byte ptr [esp+38h],80h
  00403383: 0F 85 B4 22 00 00  jne         0040563D
  00403389: 8B 44 24 38        mov         eax,dword ptr [esp+38h]
  0040338D: 25 00 06 00 00     and         eax,600h
  00403392: 89 44 24 30        mov         dword ptr [esp+30h],eax
  00403396: 0F 85 98 0C 00 00  jne         00404034
  0040339C: 8B 7C 24 44        mov         edi,dword ptr [esp+44h]
  004033A0: 85 FF              test        edi,edi
  004033A2: 0F 85 8C 1D 00 00  jne         00405134
  004033A8: 8B 44 24 54        mov         eax,dword ptr [esp+54h]
  004033AC: 8B 54 24 54        mov         edx,dword ptr [esp+54h]
  004033B0: 8B 00              mov         eax,dword ptr [eax]
  004033B2: 83 C2 04           add         edx,4
  004033B5: 89 54 24 54        mov         dword ptr [esp+54h],edx
  004033B9: 89 44 24 68        mov         dword ptr [esp+68h],eax
  004033BD: 8B 74 24 68        mov         esi,dword ptr [esp+68h]
  004033C1: 85 F6              test        esi,esi
  004033C3: 0F 84 57 FD FF FF  je          00403120
  004033C9: 8B 44 24 34        mov         eax,dword ptr [esp+34h]
  004033CD: 8D 94 24 A0 00 00  lea         edx,[esp+0A0h]
            00
  004033D4: E8 47 F7 FF FF     call        00402B20
  004033D9: 83 F8 FF           cmp         eax,0FFFFFFFFh
  004033DC: 89 C7              mov         edi,eax
  004033DE: 0F 84 33 0A 00 00  je          00403E17
  004033E4: 89 5C 24 38        mov         dword ptr [esp+38h],ebx
  004033E8: 8B 74 24 64        mov         esi,dword ptr [esp+64h]
  004033EC: 89 FA              mov         edx,edi
  004033EE: 8B 5C 24 68        mov         ebx,dword ptr [esp+68h]
  004033F2: EB 3E              jmp         00403432
  004033F4: 8B 4C 24 4C        mov         ecx,dword ptr [esp+4Ch]
  004033F8: 89 F7              mov         edi,esi
  004033FA: 8B 01              mov         eax,dword ptr [ecx]
  004033FC: 8D 0C 30           lea         ecx,[eax+esi]
  004033FF: 39 CB              cmp         ebx,ecx
  00403401: 0F 84 1A 19 00 00  je          00404D21
  00403407: 83 ED 01           sub         ebp,1
  0040340A: 88 13              mov         byte ptr [ebx],dl
  0040340C: 83 C3 01           add         ebx,1
  0040340F: 85 ED              test        ebp,ebp
  00403411: 0F 8E 8B 14 00 00  jle         004048A2
  00403417: 8B 44 24 34        mov         eax,dword ptr [esp+34h]
  0040341B: 8D 94 24 A0 00 00  lea         edx,[esp+0A0h]
            00
  00403422: E8 F9 F6 FF FF     call        00402B20
  00403427: 83 F8 FF           cmp         eax,0FFFFFFFFh
  0040342A: 89 C2              mov         edx,eax
  0040342C: 0F 84 70 14 00 00  je          004048A2
  00403432: 8B 4C 24 30        mov         ecx,dword ptr [esp+30h]
  00403436: 85 C9              test        ecx,ecx
  00403438: 75 BA              jne         004033F4
  0040343A: 89 F7              mov         edi,esi
  0040343C: EB C9              jmp         00403407
  0040343E: 8B 74 24 38        mov         esi,dword ptr [esp+38h]
  00403442: 83 E6 04           and         esi,4
  00403445: 0F 85 8B 0A 00 00  jne         00403ED6
  0040344B: F6 44 24 38 80     test        byte ptr [esp+38h],80h
  00403450: 0F 85 83 00 00 00  jne         004034D9
  00403456: F7 44 24 38 00 06  test        dword ptr [esp+38h],600h
            00 00
  0040345E: 0F 84 AC 19 00 00  je          00404E10
  00403464: 8B 44 24 44        mov         eax,dword ptr [esp+44h]
  00403468: 85 C0              test        eax,eax
  0040346A: 0F 85 64 1F 00 00  jne         004053D4
  00403470: 8B 4C 24 54        mov         ecx,dword ptr [esp+54h]
  00403474: 8B 44 24 54        mov         eax,dword ptr [esp+54h]
  00403478: 8B 09              mov         ecx,dword ptr [ecx]
  0040347A: 83 C0 04           add         eax,4
  0040347D: 89 44 24 54        mov         dword ptr [esp+54h],eax
  00403481: 89 4C 24 4C        mov         dword ptr [esp+4Ch],ecx
  00403485: 8B 44 24 4C        mov         eax,dword ptr [esp+4Ch]
  00403489: 85 C0              test        eax,eax
  0040348B: 0F 84 EE 21 00 00  je          0040567F
  00403491: C7 04 24 64 00 00  mov         dword ptr [esp],64h
            00
  00403498: E8 8B AA 00 00     call        0040DF28
  0040349D: 8B 4C 24 4C        mov         ecx,dword ptr [esp+4Ch]
  004034A1: 85 C0              test        eax,eax
  004034A3: 89 44 24 68        mov         dword ptr [esp+68h],eax
  004034A7: 89 01              mov         dword ptr [ecx],eax
  004034A9: 0F 84 8B 0A 00 00  je          00403F3A
  004034AF: 8B 84 24 9C 00 00  mov         eax,dword ptr [esp+9Ch]
            00
  004034B6: E8 25 F5 FF FF     call        004029E0
  004034BB: 8B 4C 24 4C        mov         ecx,dword ptr [esp+4Ch]
  004034BF: 8B 10              mov         edx,dword ptr [eax]
  004034C1: 89 84 24 9C 00 00  mov         dword ptr [esp+9Ch],eax
            00
  004034C8: 89 4C 90 08        mov         dword ptr [eax+edx*4+8],ecx
  004034CC: 83 C2 01           add         edx,1
  004034CF: 89 10              mov         dword ptr [eax],edx
  004034D1: C7 44 24 64 64 00  mov         dword ptr [esp+64h],64h
            00 00
  004034D9: 8B 4C 24 40        mov         ecx,dword ptr [esp+40h]
  004034DD: 80 79 01 5E        cmp         byte ptr [ecx+1],5Eh
  004034E1: 89 C8              mov         eax,ecx
  004034E3: 0F 94 44 24 30     sete        byte ptr [esp+30h]
  004034E8: 83 C0 02           add         eax,2
  004034EB: 80 7C 24 30 00     cmp         byte ptr [esp+30h],0
  004034F0: 0F 45 D8           cmovne      ebx,eax
  004034F3: 85 ED              test        ebp,ebp
  004034F5: B8 FF FF FF 7F     mov         eax,7FFFFFFFh
  004034FA: 0F 48 E8           cmovs       ebp,eax
  004034FD: 81 BC 24 A4 00 00  cmp         dword ptr [esp+0A4h],0FFh
            00 FF 00 00 00
  00403508: 0F 86 22 13 00 00  jbe         00404830
  0040350E: 8B 84 24 A8 00 00  mov         eax,dword ptr [esp+0A8h]
            00
  00403515: A8 01              test        al,1
  00403517: 89 C7              mov         edi,eax
  00403519: BA 00 01 00 00     mov         edx,100h
  0040351E: 0F 85 7F 1C 00 00  jne         004051A3
  00403524: F7 C7 02 00 00 00  test        edi,2
  0040352A: 0F 85 10 1B 00 00  jne         00405040
  00403530: 89 D1              mov         ecx,edx
  00403532: 31 C0              xor         eax,eax
  00403534: C1 E9 02           shr         ecx,2
  00403537: F6 C2 02           test        dl,2
  0040353A: F3 AB              rep stos    dword ptr [edi]
  0040353C: 74 08              je          00403546
  0040353E: 66 C7 07 00 00     mov         word ptr [edi],0
  00403543: 83 C7 02           add         edi,2
  00403546: 83 E2 01           and         edx,1
  00403549: 74 03              je          0040354E
  0040354B: C6 07 00           mov         byte ptr [edi],0
  0040354E: 0F B6 03           movzx       eax,byte ptr [ebx]
  00403551: 3C 2D              cmp         al,2Dh
  00403553: 74 04              je          00403559
  00403555: 3C 5D              cmp         al,5Dh
  00403557: 75 25              jne         0040357E
  00403559: 8B 94 24 A8 00 00  mov         edx,dword ptr [esp+0A8h]
            00
  00403560: C6 04 02 01        mov         byte ptr [edx+eax],1
  00403564: 0F B6 43 01        movzx       eax,byte ptr [ebx+1]
  00403568: 83 C3 01           add         ebx,1
  0040356B: EB 11              jmp         0040357E
  0040356D: 8D 76 00           lea         esi,[esi]
  00403570: 8B 94 24 A8 00 00  mov         edx,dword ptr [esp+0A8h]
            00
  00403577: C6 04 02 01        mov         byte ptr [edx+eax],1
  0040357B: 0F B6 03           movzx       eax,byte ptr [ebx]
  0040357E: 83 C3 01           add         ebx,1
  00403581: 84 C0              test        al,al
  00403583: 0F 84 97 FB FF FF  je          00403120
  00403589: 3C 5D              cmp         al,5Dh
  0040358B: 0F 84 80 10 00 00  je          00404611
  00403591: 3C 2D              cmp         al,2Dh
  00403593: 75 DB              jne         00403570
  00403595: 0F B6 0B           movzx       ecx,byte ptr [ebx]
  00403598: 84 C9              test        cl,cl
  0040359A: 74 D4              je          00403570
  0040359C: 80 F9 5D           cmp         cl,5Dh
  0040359F: 74 CF              je          00403570
  004035A1: 0F B6 53 FE        movzx       edx,byte ptr [ebx-2]
  004035A5: 38 CA              cmp         dl,cl
  004035A7: 77 C7              ja          00403570
  004035A9: 73 D0              jae         0040357B
  004035AB: 90                 nop
  004035AC: 8D 74 26 00        lea         esi,[esi]
  004035B0: 8B 8C 24 A8 00 00  mov         ecx,dword ptr [esp+0A8h]
            00
  004035B7: 0F B6 C2           movzx       eax,dl
  004035BA: 83 C2 01           add         edx,1
  004035BD: C6 04 01 01        mov         byte ptr [ecx+eax],1
  004035C1: 38 13              cmp         byte ptr [ebx],dl
  004035C3: 77 EB              ja          004035B0
  004035C5: EB B4              jmp         0040357B
  004035C7: 8D 46 A8           lea         eax,[esi-58h]
  004035CA: 3C 20              cmp         al,20h
  004035CC: 0F 86 FA 08 00 00  jbe         00403ECC
  004035D2: 8B 44 24 34        mov         eax,dword ptr [esp+34h]
  004035D6: 8D 94 24 A0 00 00  lea         edx,[esp+0A0h]
            00
  004035DD: E8 3E F5 FF FF     call        00402B20
  004035E2: 83 F8 FF           cmp         eax,0FFFFFFFFh
  004035E5: 89 C7              mov         edi,eax
  004035E7: 0F 84 C8 07 00 00  je          00403DB5
  004035ED: 83 F8 2D           cmp         eax,2Dh
  004035F0: 0F 84 E1 0A 00 00  je          004040D7
  004035F6: 83 F8 2B           cmp         eax,2Bh
  004035F9: C7 44 24 30 00 00  mov         dword ptr [esp+30h],0
            00 00
  00403601: 0F 84 D0 0A 00 00  je          004040D7
  00403607: 85 ED              test        ebp,ebp
  00403609: 0F 95 C2           setne       dl
  0040360C: 83 FF 30           cmp         edi,30h
  0040360F: 89 D0              mov         eax,edx
  00403611: 0F 85 59 09 00 00  jne         00403F70
  00403617: 84 D2              test        dl,dl
  00403619: 0F 84 51 09 00 00  je          00403F70
  0040361F: 85 ED              test        ebp,ebp
  00403621: 0F 8E CA 15 00 00  jle         00404BF1
  00403627: 8B 8C 24 A8 00 00  mov         ecx,dword ptr [esp+0A8h]
            00
  0040362E: 8D B4 24 A4 00 00  lea         esi,[esp+0A4h]
            00
  00403635: 83 ED 01           sub         ebp,1
  00403638: 8B 44 24 30        mov         eax,dword ptr [esp+30h]
  0040363C: 89 F2              mov         edx,esi
  0040363E: E8 FD F2 FF FF     call        00402940
  00403643: 8B 4C 24 30        mov         ecx,dword ptr [esp+30h]
  00403647: 8D 94 24 A0 00 00  lea         edx,[esp+0A0h]
            00
  0040364E: 89 84 24 A8 00 00  mov         dword ptr [esp+0A8h],eax
            00
  00403655: C6 04 08 30        mov         byte ptr [eax+ecx],30h
  00403659: 8B 44 24 34        mov         eax,dword ptr [esp+34h]
  0040365D: 83 C1 01           add         ecx,1
  00403660: 89 4C 24 30        mov         dword ptr [esp+30h],ecx
  00403664: E8 B7 F4 FF FF     call        00402B20
  00403669: 85 ED              test        ebp,ebp
  0040366B: 89 C7              mov         edi,eax
  0040366D: 0F 85 BF 15 00 00  jne         00404C32
  00403673: 8B 4C 24 50        mov         ecx,dword ptr [esp+50h]
  00403677: B8 08 00 00 00     mov         eax,8
  0040367C: 85 C9              test        ecx,ecx
  0040367E: 0F 45 44 24 50     cmovne      eax,dword ptr [esp+50h]
  00403683: 89 44 24 50        mov         dword ptr [esp+50h],eax
  00403687: 85 ED              test        ebp,ebp
  00403689: 0F 95 C0           setne       al
  0040368C: 83 FF FF           cmp         edi,0FFFFFFFFh
  0040368F: 74 41              je          004036D2
  00403691: 84 C0              test        al,al
  00403693: 74 3D              je          004036D2
  00403695: 8B 44 24 38        mov         eax,dword ptr [esp+38h]
  00403699: 89 5C 24 70        mov         dword ptr [esp+70h],ebx
  0040369D: 89 FB              mov         ebx,edi
  0040369F: 25 00 01 00 00     and         eax,100h
  004036A4: 83 7C 24 50 10     cmp         dword ptr [esp+50h],10h
  004036A9: 89 44 24 6C        mov         dword ptr [esp+6Ch],eax
  004036AD: 0F 84 D6 0B 00 00  je          00404289
  004036B3: 8D 43 D0           lea         eax,[ebx-30h]
  004036B6: 83 F8 09           cmp         eax,9
  004036B9: 0F 87 C4 0A 00 00  ja          00404183
  004036BF: 8D 43 D1           lea         eax,[ebx-2Fh]
  004036C2: 3B 44 24 50        cmp         eax,dword ptr [esp+50h]
  004036C6: 0F 8E 5A 0B 00 00  jle         00404226
  004036CC: 89 DF              mov         edi,ebx
  004036CE: 8B 5C 24 70        mov         ebx,dword ptr [esp+70h]
  004036D2: 8B 44 24 30        mov         eax,dword ptr [esp+30h]
  004036D6: 85 C0              test        eax,eax
  004036D8: 0F 84 CD F9 FF FF  je          004030AB
  004036DE: 83 7C 24 30 01     cmp         dword ptr [esp+30h],1
  004036E3: 75 1A              jne         004036FF
  004036E5: 8B 84 24 A8 00 00  mov         eax,dword ptr [esp+0A8h]
            00
  004036EC: 0F B6 00           movzx       eax,byte ptr [eax]
  004036EF: 3C 2D              cmp         al,2Dh
  004036F1: 0F 84 FF F9 FF FF  je          004030F6
  004036F7: 3C 2B              cmp         al,2Bh
  004036F9: 0F 84 F7 F9 FF FF  je          004030F6
  004036FF: 8B 54 24 34        mov         edx,dword ptr [esp+34h]
  00403703: 8D 8C 24 A0 00 00  lea         ecx,[esp+0A0h]
            00
  0040370A: 89 F8              mov         eax,edi
  0040370C: C7 04 24 00 00 00  mov         dword ptr [esp],0
            00
  00403713: 8D B4 24 A4 00 00  lea         esi,[esp+0A4h]
            00
  0040371A: E8 C1 F4 FF FF     call        00402BE0
  0040371F: 8B 8C 24 A8 00 00  mov         ecx,dword ptr [esp+0A8h]
            00
  00403726: 89 F2              mov         edx,esi
  00403728: 8B 44 24 30        mov         eax,dword ptr [esp+30h]
  0040372C: E8 0F F2 FF FF     call        00402940
  00403731: 8B 6C 24 38        mov         ebp,dword ptr [esp+38h]
  00403735: 8B 4C 24 30        mov         ecx,dword ptr [esp+30h]
  00403739: 83 E5 08           and         ebp,8
  0040373C: 89 84 24 A8 00 00  mov         dword ptr [esp+0A8h],eax
            00
  00403743: C6 04 08 00        mov         byte ptr [eax+ecx],0
  00403747: 0F 84 21 11 00 00  je          0040486E
  0040374D: F6 44 24 38 10     test        byte ptr [esp+38h],10h
  00403752: 0F 84 37 14 00 00  je          00404B8F
  00403758: 8B 44 24 50        mov         eax,dword ptr [esp+50h]
  0040375C: 8D 94 24 AC 00 00  lea         edx,[esp+0ACh]
            00
  00403763: 89 54 24 04        mov         dword ptr [esp+4],edx
  00403767: 89 44 24 08        mov         dword ptr [esp+8],eax
  0040376B: 8B 84 24 A8 00 00  mov         eax,dword ptr [esp+0A8h]
            00
  00403772: 89 04 24           mov         dword ptr [esp],eax
  00403775: E8 96 44 00 00     call        00407C10
  0040377A: 89 C6              mov         esi,eax
  0040377C: 89 94 24 84 00 00  mov         dword ptr [esp+84h],edx
            00
  00403783: 8B 8C 24 AC 00 00  mov         ecx,dword ptr [esp+0ACh]
            00
  0040378A: 39 8C 24 A8 00 00  cmp         dword ptr [esp+0A8h],ecx
            00
  00403791: 0F 84 89 F9 FF FF  je          00403120
  00403797: F6 44 24 38 80     test        byte ptr [esp+38h],80h
  0040379C: C7 44 24 30 00 00  mov         dword ptr [esp+30h],0
            00 00
  004037A4: 0F 85 9C F5 FF FF  jne         00402D46
  004037AA: F6 44 24 38 10     test        byte ptr [esp+38h],10h
  004037AF: 0F 84 0A 14 00 00  je          00404BBF
  004037B5: 85 ED              test        ebp,ebp
  004037B7: 0F 84 8D 19 00 00  je          0040514A
  004037BD: 8B 44 24 44        mov         eax,dword ptr [esp+44h]
  004037C1: 85 C0              test        eax,eax
  004037C3: 0F 85 37 1C 00 00  jne         00405400
  004037C9: 8B 54 24 54        mov         edx,dword ptr [esp+54h]
  004037CD: 8B 02              mov         eax,dword ptr [edx]
  004037CF: 83 C2 04           add         edx,4
  004037D2: 89 54 24 54        mov         dword ptr [esp+54h],edx
  004037D6: 8B 8C 24 84 00 00  mov         ecx,dword ptr [esp+84h]
            00
  004037DD: 89 30              mov         dword ptr [eax],esi
  004037DF: 89 48 04           mov         dword ptr [eax+4],ecx
  004037E2: 83 44 24 48 01     add         dword ptr [esp+48h],1
  004037E7: 89 DE              mov         esi,ebx
  004037E9: C7 44 24 30 00 00  mov         dword ptr [esp+30h],0
            00 00
  004037F1: E9 1D F5 FF FF     jmp         00402D13
  004037F6: 8B 74 24 38        mov         esi,dword ptr [esp+38h]
  004037FA: 81 E6 80 00 00 00  and         esi,80h
  00403800: 0F 85 83 00 00 00  jne         00403889
  00403806: F7 44 24 38 00 06  test        dword ptr [esp+38h],600h
            00 00
  0040380E: 0F 84 BC 07 00 00  je          00403FD0
  00403814: 8B 44 24 44        mov         eax,dword ptr [esp+44h]
  00403818: 85 C0              test        eax,eax
  0040381A: 0F 85 85 18 00 00  jne         004050A5
  00403820: 8B 54 24 54        mov         edx,dword ptr [esp+54h]
  00403824: 8B 4C 24 54        mov         ecx,dword ptr [esp+54h]
  00403828: 8B 12              mov         edx,dword ptr [edx]
  0040382A: 83 C1 04           add         ecx,4
  0040382D: 89 4C 24 54        mov         dword ptr [esp+54h],ecx
  00403831: 89 54 24 4C        mov         dword ptr [esp+4Ch],edx
  00403835: 8B 44 24 4C        mov         eax,dword ptr [esp+4Ch]
  00403839: 85 C0              test        eax,eax
  0040383B: 0F 84 3E 1E 00 00  je          0040567F
  00403841: C7 04 24 C8 00 00  mov         dword ptr [esp],0C8h
            00
  00403848: E8 DB A6 00 00     call        0040DF28
  0040384D: 8B 4C 24 4C        mov         ecx,dword ptr [esp+4Ch]
  00403851: 85 C0              test        eax,eax
  00403853: 89 44 24 58        mov         dword ptr [esp+58h],eax
  00403857: 89 01              mov         dword ptr [ecx],eax
  00403859: 0F 84 DB 06 00 00  je          00403F3A
  0040385F: 8B 84 24 9C 00 00  mov         eax,dword ptr [esp+9Ch]
            00
  00403866: E8 75 F1 FF FF     call        004029E0
  0040386B: 8B 4C 24 4C        mov         ecx,dword ptr [esp+4Ch]
  0040386F: C7 44 24 64 64 00  mov         dword ptr [esp+64h],64h
            00 00
  00403877: 8B 10              mov         edx,dword ptr [eax]
  00403879: 89 84 24 9C 00 00  mov         dword ptr [esp+9Ch],eax
            00
  00403880: 89 4C 90 08        mov         dword ptr [eax+edx*4+8],ecx
  00403884: 83 C2 01           add         edx,1
  00403887: 89 10              mov         dword ptr [eax],edx
  00403889: 8B 44 24 34        mov         eax,dword ptr [esp+34h]
  0040388D: 8D 94 24 A0 00 00  lea         edx,[esp+0A0h]
            00
  00403894: E8 87 F2 FF FF     call        00402B20
  00403899: 83 F8 FF           cmp         eax,0FFFFFFFFh
  0040389C: 89 C7              mov         edi,eax
  0040389E: 0F 84 11 05 00 00  je          00403DB5
  004038A4: 89 6C 24 30        mov         dword ptr [esp+30h],ebp
  004038A8: 8B 6C 24 58        mov         ebp,dword ptr [esp+58h]
  004038AC: 89 5C 24 44        mov         dword ptr [esp+44h],ebx
  004038B0: 89 C3              mov         ebx,eax
  004038B2: C7 84 24 B4 00 00  mov         dword ptr [esp+0B4h],0
            00 00 00 00 00
  004038BD: 89 1C 24           mov         dword ptr [esp],ebx
  004038C0: E8 FB A6 00 00     call        0040DFC0
  004038C5: 85 C0              test        eax,eax
  004038C7: 0F 85 CA 1B 00 00  jne         00405497
  004038CD: 88 9C 24 BB 00 00  mov         byte ptr [esp+0BBh],bl
            00
  004038D4: 31 FF              xor         edi,edi
  004038D6: EB 07              jmp         004038DF
  004038D8: 88 84 24 BB 00 00  mov         byte ptr [esp+0BBh],al
            00
  004038DF: 85 F6              test        esi,esi
  004038E1: 89 F8              mov         eax,edi
  004038E3: 0F 44 C5           cmove       eax,ebp
  004038E6: 8D 8C 24 B4 00 00  lea         ecx,[esp+0B4h]
            00
  004038ED: 8D 94 24 BB 00 00  lea         edx,[esp+0BBh]
            00
  004038F4: 89 4C 24 0C        mov         dword ptr [esp+0Ch],ecx
  004038F8: C7 44 24 08 01 00  mov         dword ptr [esp+8],1
            00 00
  00403900: 89 54 24 04        mov         dword ptr [esp+4],edx
  00403904: 89 04 24           mov         dword ptr [esp],eax
  00403907: E8 F4 40 00 00     call        00407A00
  0040390C: 83 F8 FE           cmp         eax,0FFFFFFFEh
  0040390F: 0F 85 62 10 00 00  jne         00404977
  00403915: 8B 44 24 34        mov         eax,dword ptr [esp+34h]
  00403919: 8D 94 24 A0 00 00  lea         edx,[esp+0A0h]
            00
  00403920: E8 FB F1 FF FF     call        00402B20
  00403925: 83 F8 FF           cmp         eax,0FFFFFFFFh
  00403928: 89 C3              mov         ebx,eax
  0040392A: 75 AC              jne         004038D8
  0040392C: E8 97 A6 00 00     call        0040DFC8
  00403931: C7 00 2A 00 00 00  mov         dword ptr [eax],2Ah
  00403937: E9 E4 F7 FF FF     jmp         00403120
  0040393C: 83 FD FF           cmp         ebp,0FFFFFFFFh
  0040393F: B8 01 00 00 00     mov         eax,1
  00403944: 0F 44 E8           cmove       ebp,eax
  00403947: 8B 44 24 38        mov         eax,dword ptr [esp+38h]
  0040394B: 25 80 00 00 00     and         eax,80h
  00403950: 89 44 24 40        mov         dword ptr [esp+40h],eax
  00403954: 0F 85 8B 00 00 00  jne         004039E5
  0040395A: F7 44 24 38 00 06  test        dword ptr [esp+38h],600h
            00 00
  00403962: 0F 84 9A 06 00 00  je          00404002
  00403968: 8B 44 24 44        mov         eax,dword ptr [esp+44h]
  0040396C: 85 C0              test        eax,eax
  0040396E: 0F 85 73 17 00 00  jne         004050E7
  00403974: 8B 54 24 54        mov         edx,dword ptr [esp+54h]
  00403978: 8B 4C 24 54        mov         ecx,dword ptr [esp+54h]
  0040397C: 8B 12              mov         edx,dword ptr [edx]
  0040397E: 83 C1 04           add         ecx,4
  00403981: 89 4C 24 54        mov         dword ptr [esp+54h],ecx
  00403985: 89 54 24 4C        mov         dword ptr [esp+4Ch],edx
  00403989: 8B 44 24 4C        mov         eax,dword ptr [esp+4Ch]
  0040398D: 85 C0              test        eax,eax
  0040398F: 0F 84 EA 1C 00 00  je          0040567F
  00403995: 81 FD 00 04 00 00  cmp         ebp,400h
  0040399B: B8 00 04 00 00     mov         eax,400h
  004039A0: 0F 4E C5           cmovle      eax,ebp
  004039A3: 89 44 24 64        mov         dword ptr [esp+64h],eax
  004039A7: 01 C0              add         eax,eax
  004039A9: 89 04 24           mov         dword ptr [esp],eax
  004039AC: E8 77 A5 00 00     call        0040DF28
  004039B1: 8B 4C 24 4C        mov         ecx,dword ptr [esp+4Ch]
  004039B5: 85 C0              test        eax,eax
  004039B7: 89 44 24 58        mov         dword ptr [esp+58h],eax
  004039BB: 89 01              mov         dword ptr [ecx],eax
  004039BD: 0F 84 77 05 00 00  je          00403F3A
  004039C3: 8B 84 24 9C 00 00  mov         eax,dword ptr [esp+9Ch]
            00
  004039CA: E8 11 F0 FF FF     call        004029E0
  004039CF: 8B 4C 24 4C        mov         ecx,dword ptr [esp+4Ch]
  004039D3: 8B 10              mov         edx,dword ptr [eax]
  004039D5: 89 84 24 9C 00 00  mov         dword ptr [esp+9Ch],eax
            00
  004039DC: 89 4C 90 08        mov         dword ptr [eax+edx*4+8],ecx
  004039E0: 83 C2 01           add         edx,1
  004039E3: 89 10              mov         dword ptr [eax],edx
  004039E5: 8B 44 24 34        mov         eax,dword ptr [esp+34h]
  004039E9: 8D 94 24 A0 00 00  lea         edx,[esp+0A0h]
            00
  004039F0: E8 2B F1 FF FF     call        00402B20
  004039F5: 83 F8 FF           cmp         eax,0FFFFFFFFh
  004039F8: 89 C7              mov         edi,eax
  004039FA: 0F 84 B5 03 00 00  je          00403DB5
  00403A00: 8B 4C 24 38        mov         ecx,dword ptr [esp+38h]
  00403A04: 89 6C 24 38        mov         dword ptr [esp+38h],ebp
  00403A08: 8B 6C 24 40        mov         ebp,dword ptr [esp+40h]
  00403A0C: C7 84 24 B4 00 00  mov         dword ptr [esp+0B4h],0
            00 00 00 00 00
  00403A17: 89 5C 24 44        mov         dword ptr [esp+44h],ebx
  00403A1B: 81 E1 00 06 00 00  and         ecx,600h
  00403A21: 89 4C 24 30        mov         dword ptr [esp+30h],ecx
  00403A25: 89 FB              mov         ebx,edi
  00403A27: 85 ED              test        ebp,ebp
  00403A29: 88 9C 24 BB 00 00  mov         byte ptr [esp+0BBh],bl
            00
  00403A30: 0F 84 FA 03 00 00  je          00403E30
  00403A36: 8D B4 24 B4 00 00  lea         esi,[esp+0B4h]
            00
  00403A3D: 8D 9C 24 BB 00 00  lea         ebx,[esp+0BBh]
            00
  00403A44: 31 C0              xor         eax,eax
  00403A46: 89 74 24 0C        mov         dword ptr [esp+0Ch],esi
  00403A4A: C7 44 24 08 01 00  mov         dword ptr [esp+8],1
            00 00
  00403A52: 89 5C 24 04        mov         dword ptr [esp+4],ebx
  00403A56: 89 04 24           mov         dword ptr [esp],eax
  00403A59: E8 A2 3F 00 00     call        00407A00
  00403A5E: 83 F8 FE           cmp         eax,0FFFFFFFEh
  00403A61: 0F 85 9B 0E 00 00  jne         00404902
  00403A67: 8B 44 24 34        mov         eax,dword ptr [esp+34h]
  00403A6B: 8D 94 24 A0 00 00  lea         edx,[esp+0A0h]
            00
  00403A72: E8 A9 F0 FF FF     call        00402B20
  00403A77: 83 F8 FF           cmp         eax,0FFFFFFFFh
  00403A7A: 89 C7              mov         edi,eax
  00403A7C: 0F 84 AA FE FF FF  je          0040392C
  00403A82: 88 84 24 BB 00 00  mov         byte ptr [esp+0BBh],al
            00
  00403A89: 85 ED              test        ebp,ebp
  00403A8B: 8B 44 24 58        mov         eax,dword ptr [esp+58h]
  00403A8F: 74 B5              je          00403A46
  00403A91: EB B1              jmp         00403A44
  00403A93: 31 C0              xor         eax,eax
  00403A95: 85 ED              test        ebp,ebp
  00403A97: 0F 9F C0           setg        al
  00403A9A: 29 C5              sub         ebp,eax
  00403A9C: 8B 44 24 34        mov         eax,dword ptr [esp+34h]
  00403AA0: 8D 94 24 A0 00 00  lea         edx,[esp+0A0h]
            00
  00403AA7: E8 74 F0 FF FF     call        00402B20
  00403AAC: 83 F8 FF           cmp         eax,0FFFFFFFFh
  00403AAF: 89 C7              mov         edi,eax
  00403AB1: 0F 84 FE 02 00 00  je          00403DB5
  00403AB7: 83 F8 2D           cmp         eax,2Dh
  00403ABA: 0F 94 44 24 7F     sete        byte ptr [esp+7Fh]
  00403ABF: 83 F8 2B           cmp         eax,2Bh
  00403AC2: 0F 85 C1 04 00 00  jne         00403F89
  00403AC8: 85 ED              test        ebp,ebp
  00403ACA: 0F 84 50 F6 FF FF  je          00403120
  00403AD0: 8B 44 24 34        mov         eax,dword ptr [esp+34h]
  00403AD4: 8D 94 24 A0 00 00  lea         edx,[esp+0A0h]
            00
  00403ADB: E8 40 F0 FF FF     call        00402B20
  00403AE0: 83 F8 FF           cmp         eax,0FFFFFFFFh
  00403AE3: 89 C7              mov         edi,eax
  00403AE5: 0F 84 35 F6 FF FF  je          00403120
  00403AEB: 31 C0              xor         eax,eax
  00403AED: 85 ED              test        ebp,ebp
  00403AEF: 0F 9F C0           setg        al
  00403AF2: 29 C5              sub         ebp,eax
  00403AF4: 89 3C 24           mov         dword ptr [esp],edi
  00403AF7: E8 D4 A4 00 00     call        0040DFD0
  00403AFC: 83 F8 6E           cmp         eax,6Eh
  00403AFF: 0F 84 63 13 00 00  je          00404E68
  00403B05: 83 F8 69           cmp         eax,69h
  00403B08: 0F 84 1B 14 00 00  je          00404F29
  00403B0E: 85 ED              test        ebp,ebp
  00403B10: C6 44 24 70 65     mov         byte ptr [esp+70h],65h
  00403B15: C7 44 24 74 00 00  mov         dword ptr [esp+74h],0
            00 00
  00403B1D: 74 09              je          00403B28
  00403B1F: 83 FF 30           cmp         edi,30h
  00403B22: 0F 84 E4 17 00 00  je          0040530C
  00403B28: 8B 4C 24 38        mov         ecx,dword ptr [esp+38h]
  00403B2C: 89 9C 24 80 00 00  mov         dword ptr [esp+80h],ebx
            00
  00403B33: 8B 5C 24 74        mov         ebx,dword ptr [esp+74h]
  00403B37: C6 44 24 40 00     mov         byte ptr [esp+40h],0
  00403B3C: C6 44 24 6C 00     mov         byte ptr [esp+6Ch],0
  00403B41: 81 E1 00 01 00 00  and         ecx,100h
  00403B47: 89 4C 24 78        mov         dword ptr [esp+78h],ecx
  00403B4B: 89 6C 24 30        mov         dword ptr [esp+30h],ebp
  00403B4F: E9 B7 00 00 00     jmp         00403C0B
  00403B54: 8B 8C 24 A8 00 00  mov         ecx,dword ptr [esp+0A8h]
            00
  00403B5B: 0F B6 44 24 70     movzx       eax,byte ptr [esp+70h]
  00403B60: 38 44 19 FF        cmp         byte ptr [ecx+ebx-1],al
  00403B64: 0F 84 58 09 00 00  je          004044C2
  00403B6A: 80 7C 24 40 00     cmp         byte ptr [esp+40h],0
  00403B6F: 75 16              jne         00403B87
  00403B71: 85 DB              test        ebx,ebx
  00403B73: 74 12              je          00403B87
  00403B75: 89 3C 24           mov         dword ptr [esp],edi
  00403B78: E8 53 A4 00 00     call        0040DFD0
  00403B7D: 38 44 24 70        cmp         byte ptr [esp+70h],al
  00403B81: 0F 84 54 0A 00 00  je          004045DB
  00403B87: 8B 44 24 30        mov         eax,dword ptr [esp+30h]
  00403B8B: BD FF FF FF 7F     mov         ebp,7FFFFFFFh
  00403B90: 85 C0              test        eax,eax
  00403B92: 0F 4F 6C 24 30     cmovg       ebp,dword ptr [esp+30h]
  00403B97: 80 7C 24 6C 00     cmp         byte ptr [esp+6Ch],0
  00403B9C: 0F 84 51 07 00 00  je          004042F3
  00403BA2: 8B 4C 24 60        mov         ecx,dword ptr [esp+60h]
  00403BA6: 80 39 00           cmp         byte ptr [ecx],0
  00403BA9: 0F 84 2E 07 00 00  je          004042DD
  00403BAF: 8B 44 24 3C        mov         eax,dword ptr [esp+3Ch]
  00403BB3: 85 C0              test        eax,eax
  00403BB5: 0F 84 B4 11 00 00  je          00404D6F
  00403BBB: 0F B6 10           movzx       edx,byte ptr [eax]
  00403BBE: 84 D2              test        dl,dl
  00403BC0: 0F 85 A9 11 00 00  jne         00404D6F
  00403BC6: 8B 74 24 30        mov         esi,dword ptr [esp+30h]
  00403BCA: 85 F6              test        esi,esi
  00403BCC: 0F 4E 6C 24 30     cmovle      ebp,dword ptr [esp+30h]
  00403BD1: 89 6C 24 30        mov         dword ptr [esp+30h],ebp
  00403BD5: 8B 4C 24 30        mov         ecx,dword ptr [esp+30h]
  00403BD9: 85 C9              test        ecx,ecx
  00403BDB: 0F 84 0B 09 00 00  je          004044EC
  00403BE1: 8B 44 24 34        mov         eax,dword ptr [esp+34h]
  00403BE5: 8D 94 24 A0 00 00  lea         edx,[esp+0A0h]
            00
  00403BEC: E8 2F EF FF FF     call        00402B20
  00403BF1: 83 F8 FF           cmp         eax,0FFFFFFFFh
  00403BF4: 89 C7              mov         edi,eax
  00403BF6: 0F 84 F0 08 00 00  je          004044EC
  00403BFC: 8B 54 24 30        mov         edx,dword ptr [esp+30h]
  00403C00: 31 C0              xor         eax,eax
  00403C02: 85 D2              test        edx,edx
  00403C04: 0F 9F C0           setg        al
  00403C07: 29 44 24 30        sub         dword ptr [esp+30h],eax
  00403C0B: 8D 47 D0           lea         eax,[edi-30h]
  00403C0E: 83 F8 09           cmp         eax,9
  00403C11: 76 26              jbe         00403C39
  00403C13: 80 7C 24 40 00     cmp         byte ptr [esp+40h],0
  00403C18: 0F 85 36 FF FF FF  jne         00403B54
  00403C1E: F6 44 24 38 40     test        byte ptr [esp+38h],40h
  00403C23: 0F 84 41 FF FF FF  je          00403B6A
  00403C29: 89 3C 24           mov         dword ptr [esp],edi
  00403C2C: E8 A7 A3 00 00     call        0040DFD8
  00403C31: 85 C0              test        eax,eax
  00403C33: 0F 84 31 FF FF FF  je          00403B6A
  00403C39: 8B 8C 24 A8 00 00  mov         ecx,dword ptr [esp+0A8h]
            00
  00403C40: 8D 94 24 A4 00 00  lea         edx,[esp+0A4h]
            00
  00403C47: 89 D8              mov         eax,ebx
  00403C49: E8 F2 EC FF FF     call        00402940
  00403C4E: 89 FA              mov         edx,edi
  00403C50: 89 84 24 A8 00 00  mov         dword ptr [esp+0A8h],eax
            00
  00403C57: 88 14 18           mov         byte ptr [eax+ebx],dl
  00403C5A: 83 C3 01           add         ebx,1
  00403C5D: E9 73 FF FF FF     jmp         00403BD5
  00403C62: 8B 44 24 34        mov         eax,dword ptr [esp+34h]
  00403C66: 8D 94 24 A0 00 00  lea         edx,[esp+0A0h]
            00
  00403C6D: E8 AE EE FF FF     call        00402B20
  00403C72: 83 F8 FF           cmp         eax,0FFFFFFFFh
  00403C75: 89 C7              mov         edi,eax
  00403C77: 0F 84 38 01 00 00  je          00403DB5
  00403C7D: 83 F8 25           cmp         eax,25h
  00403C80: 0F 84 7A F3 FF FF  je          00403000
  00403C86: C7 04 24 01 00 00  mov         dword ptr [esp],1
            00
  00403C8D: 8D 8C 24 A0 00 00  lea         ecx,[esp+0A0h]
            00
  00403C94: 8B 54 24 34        mov         edx,dword ptr [esp+34h]
  00403C98: E9 6D F4 FF FF     jmp         0040310A
  00403C9D: 8D 76 00           lea         esi,[esi]
  00403CA0: 0F B6 73 01        movzx       esi,byte ptr [ebx+1]
  00403CA4: 89 F0              mov         eax,esi
  00403CA6: 83 E0 DF           and         eax,0FFFFFFDFh
  00403CA9: 3C 53              cmp         al,53h
  00403CAB: 74 0B              je          00403CB8
  00403CAD: 89 F1              mov         ecx,esi
  00403CAF: 80 F9 5B           cmp         cl,5Bh
  00403CB2: 0F 85 E6 F1 FF FF  jne         00402E9E
  00403CB8: 83 C3 01           add         ebx,1
  00403CBB: 89 5C 24 40        mov         dword ptr [esp+40h],ebx
  00403CBF: 81 4C 24 38 00 02  or          dword ptr [esp+38h],200h
            00 00
  00403CC7: E9 D9 F1 FF FF     jmp         00402EA5
  00403CCC: 0F B6 73 01        movzx       esi,byte ptr [ebx+1]
  00403CD0: 8D 43 01           lea         eax,[ebx+1]
  00403CD3: 81 4C 24 38 00 04  or          dword ptr [esp+38h],400h
            00 00
  00403CDB: 89 44 24 40        mov         dword ptr [esp+40h],eax
  00403CDF: 89 F2              mov         edx,esi
  00403CE1: 80 FA 6C           cmp         dl,6Ch
  00403CE4: 0F 85 BB F1 FF FF  jne         00402EA5
  00403CEA: 81 C9 04 04 00 00  or          ecx,404h
  00403CF0: 0F B6 73 02        movzx       esi,byte ptr [ebx+2]
  00403CF4: 89 4C 24 38        mov         dword ptr [esp+38h],ecx
  00403CF8: 8D 4B 02           lea         ecx,[ebx+2]
  00403CFB: 89 4C 24 40        mov         dword ptr [esp+40h],ecx
  00403CFF: E9 A1 F1 FF FF     jmp         00402EA5
  00403D04: 0F B6 73 01        movzx       esi,byte ptr [ebx+1]
  00403D08: 89 F1              mov         ecx,esi
  00403D0A: 80 F9 68           cmp         cl,68h
  00403D0D: 0F 84 52 0D 00 00  je          00404A65
  00403D13: 83 C3 01           add         ebx,1
  00403D16: 89 5C 24 40        mov         dword ptr [esp+40h],ebx
  00403D1A: 83 4C 24 38 02     or          dword ptr [esp+38h],2
  00403D1F: E9 81 F1 FF FF     jmp         00402EA5
  00403D24: 8D 4B 01           lea         ecx,[ebx+1]
  00403D27: 0F B6 73 01        movzx       esi,byte ptr [ebx+1]
  00403D2B: 83 4C 24 38 04     or          dword ptr [esp+38h],4
  00403D30: 89 4C 24 40        mov         dword ptr [esp+40h],ecx
  00403D34: E9 6C F1 FF FF     jmp         00402EA5
  00403D39: 8D B4 26 00 00 00  lea         esi,[esi]
            00
  00403D40: 0F B6 73 01        movzx       esi,byte ptr [ebx+1]
  00403D44: 89 F0              mov         eax,esi
  00403D46: 3C 6C              cmp         al,6Ch
  00403D48: 0F 84 2C 0D 00 00  je          00404A7A
  00403D4E: 83 C3 01           add         ebx,1
  00403D51: 89 5C 24 40        mov         dword ptr [esp+40h],ebx
  00403D55: 83 4C 24 38 04     or          dword ptr [esp+38h],4
  00403D5A: E9 46 F1 FF FF     jmp         00402EA5
  00403D5F: BD FF FF FF FF     mov         ebp,0FFFFFFFFh
  00403D64: E9 0D F1 FF FF     jmp         00402E76
  00403D69: 8B 44 24 30        mov         eax,dword ptr [esp+30h]
  00403D6D: 85 C0              test        eax,eax
  00403D6F: 0F 84 AB F3 FF FF  je          00403120
  00403D75: 8B 74 24 34        mov         esi,dword ptr [esp+34h]
  00403D79: 8D B4 26 00 00 00  lea         esi,[esi]
            00
  00403D80: 8D 94 24 A0 00 00  lea         edx,[esp+0A0h]
            00
  00403D87: 89 F0              mov         eax,esi
  00403D89: E8 92 ED FF FF     call        00402B20
  00403D8E: 89 04 24           mov         dword ptr [esp],eax
  00403D91: 89 C3              mov         ebx,eax
  00403D93: E8 28 A2 00 00     call        0040DFC0
  00403D98: 85 C0              test        eax,eax
  00403D9A: 75 E4              jne         00403D80
  00403D9C: C7 04 24 00 00 00  mov         dword ptr [esp],0
            00
  00403DA3: 8D 8C 24 A0 00 00  lea         ecx,[esp+0A0h]
            00
  00403DAA: 8B 54 24 34        mov         edx,dword ptr [esp+34h]
  00403DAE: 89 D8              mov         eax,ebx
  00403DB0: E9 55 F3 FF FF     jmp         0040310A
  00403DB5: 8B 4C 24 48        mov         ecx,dword ptr [esp+48h]
  00403DB9: 8D 84 24 A8 00 00  lea         eax,[esp+0A8h]
            00
  00403DC0: 89 04 24           mov         dword ptr [esp],eax
  00403DC3: 8D 94 24 9C 00 00  lea         edx,[esp+9Ch]
            00
  00403DCA: 85 C9              test        ecx,ecx
  00403DCC: 8B 4C 24 4C        mov         ecx,dword ptr [esp+4Ch]
  00403DD0: 0F 45 7C 24 48     cmovne      edi,dword ptr [esp+48h]
  00403DD5: 89 F8              mov         eax,edi
  00403DD7: 89 7C 24 48        mov         dword ptr [esp+48h],edi
  00403DDB: E8 B0 EC FF FF     call        00402A90
  00403DE0: E9 59 F3 FF FF     jmp         0040313E
  00403DE5: 8B 54 24 34        mov         edx,dword ptr [esp+34h]
  00403DE9: 89 F8              mov         eax,edi
  00403DEB: C7 04 24 01 00 00  mov         dword ptr [esp],1
            00
  00403DF2: 8D 8C 24 A0 00 00  lea         ecx,[esp+0A0h]
            00
  00403DF9: E8 E2 ED FF FF     call        00402BE0
  00403DFE: 8B 44 24 48        mov         eax,dword ptr [esp+48h]
  00403E02: 85 C0              test        eax,eax
  00403E04: B8 FF FF FF FF     mov         eax,0FFFFFFFFh
  00403E09: 0F 45 44 24 48     cmovne      eax,dword ptr [esp+48h]
  00403E0E: 89 44 24 48        mov         dword ptr [esp+48h],eax
  00403E12: E9 09 F3 FF FF     jmp         00403120
  00403E17: 8B 5C 24 48        mov         ebx,dword ptr [esp+48h]
  00403E1B: B8 FF FF FF FF     mov         eax,0FFFFFFFFh
  00403E20: 85 DB              test        ebx,ebx
  00403E22: 0F 45 44 24 48     cmovne      eax,dword ptr [esp+48h]
  00403E27: 89 44 24 48        mov         dword ptr [esp+48h],eax
  00403E2B: E9 F0 F2 FF FF     jmp         00403120
  00403E30: 8B 44 24 30        mov         eax,dword ptr [esp+30h]
  00403E34: 85 C0              test        eax,eax
  00403E36: 0F 84 88 02 00 00  je          004040C4
  00403E3C: 8B 44 24 4C        mov         eax,dword ptr [esp+4Ch]
  00403E40: 8D B4 24 B4 00 00  lea         esi,[esp+0B4h]
            00
  00403E47: 8B 54 24 64        mov         edx,dword ptr [esp+64h]
  00403E4B: 8D 9C 24 BB 00 00  lea         ebx,[esp+0BBh]
            00
  00403E52: 8B 08              mov         ecx,dword ptr [eax]
  00403E54: 01 D2              add         edx,edx
  00403E56: 8D 04 11           lea         eax,[ecx+edx]
  00403E59: 39 44 24 58        cmp         dword ptr [esp+58h],eax
  00403E5D: 0F 85 26 FC FF FF  jne         00403A89
  00403E63: 8B 5C 24 38        mov         ebx,dword ptr [esp+38h]
  00403E67: 8B 74 24 64        mov         esi,dword ptr [esp+64h]
  00403E6B: 8B 44 24 38        mov         eax,dword ptr [esp+38h]
  00403E6F: 83 EB 01           sub         ebx,1
  00403E72: 39 44 24 64        cmp         dword ptr [esp+64h],eax
  00403E76: 0F 4E 5C 24 64     cmovle      ebx,dword ptr [esp+64h]
  00403E7B: 83 C6 01           add         esi,1
  00403E7E: 03 5C 24 64        add         ebx,dword ptr [esp+64h]
  00403E82: EB 08              jmp         00403E8C
  00403E84: 8B 5C 24 4C        mov         ebx,dword ptr [esp+4Ch]
  00403E88: 8B 0B              mov         ecx,dword ptr [ebx]
  00403E8A: 89 F3              mov         ebx,esi
  00403E8C: 8D 04 1B           lea         eax,[ebx+ebx]
  00403E8F: 89 44 24 04        mov         dword ptr [esp+4],eax
  00403E93: 89 0C 24           mov         dword ptr [esp],ecx
  00403E96: 89 54 24 20        mov         dword ptr [esp+20h],edx
  00403E9A: E8 01 A1 00 00     call        0040DFA0
  00403E9F: 8B 54 24 20        mov         edx,dword ptr [esp+20h]
  00403EA3: 85 C0              test        eax,eax
  00403EA5: 0F 85 09 02 00 00  jne         004040B4
  00403EAB: 39 F3              cmp         ebx,esi
  00403EAD: 77 D5              ja          00403E84
  00403EAF: 8D 84 24 9C 00 00  lea         eax,[esp+9Ch]
            00
  00403EB6: 8D 94 24 A8 00 00  lea         edx,[esp+0A8h]
            00
  00403EBD: E8 4E EB FF FF     call        00402A10
  00403EC2: B8 FF FF FF FF     mov         eax,0FFFFFFFFh
  00403EC7: E9 72 F2 FF FF     jmp         0040313E
  00403ECC: 0F B6 C0           movzx       eax,al
  00403ECF: FF 24 85 04 04 41  jmp         dword ptr [eax*4+410404h]
            00
  00403ED6: F6 44 24 38 80     test        byte ptr [esp+38h],80h
  00403EDB: 0F 85 F8 F5 FF FF  jne         004034D9
  00403EE1: F7 44 24 38 00 06  test        dword ptr [esp+38h],600h
            00 00
  00403EE9: 0F 84 EA 0E 00 00  je          00404DD9
  00403EEF: 8B 54 24 44        mov         edx,dword ptr [esp+44h]
  00403EF3: 85 D2              test        edx,edx
  00403EF5: 0F 85 59 15 00 00  jne         00405454
  00403EFB: 8B 4C 24 54        mov         ecx,dword ptr [esp+54h]
  00403EFF: 8B 44 24 54        mov         eax,dword ptr [esp+54h]
  00403F03: 8B 09              mov         ecx,dword ptr [ecx]
  00403F05: 83 C0 04           add         eax,4
  00403F08: 89 44 24 54        mov         dword ptr [esp+54h],eax
  00403F0C: 89 4C 24 4C        mov         dword ptr [esp+4Ch],ecx
  00403F10: 8B 44 24 4C        mov         eax,dword ptr [esp+4Ch]
  00403F14: 85 C0              test        eax,eax
  00403F16: 0F 84 63 17 00 00  je          0040567F
  00403F1C: C7 04 24 C8 00 00  mov         dword ptr [esp],0C8h
            00
  00403F23: E8 00 A0 00 00     call        0040DF28
  00403F28: 8B 4C 24 4C        mov         ecx,dword ptr [esp+4Ch]
  00403F2C: 85 C0              test        eax,eax
  00403F2E: 89 44 24 58        mov         dword ptr [esp+58h],eax
  00403F32: 89 01              mov         dword ptr [ecx],eax
  00403F34: 0F 85 75 F5 FF FF  jne         004034AF
  00403F3A: F7 44 24 38 00 04  test        dword ptr [esp+38h],400h
            00 00
  00403F42: B8 FF FF FF FF     mov         eax,0FFFFFFFFh
  00403F47: 0F 44 44 24 48     cmove       eax,dword ptr [esp+48h]
  00403F4C: 8D 94 24 9C 00 00  lea         edx,[esp+9Ch]
            00
  00403F53: 89 44 24 48        mov         dword ptr [esp+48h],eax
  00403F57: 8D 84 24 A8 00 00  lea         eax,[esp+0A8h]
            00
  00403F5E: 89 04 24           mov         dword ptr [esp],eax
  00403F61: 8B 44 24 48        mov         eax,dword ptr [esp+48h]
  00403F65: E8 26 EB FF FF     call        00402A90
  00403F6A: E9 CF F1 FF FF     jmp         0040313E
  00403F6F: 90                 nop
  00403F70: 8B 54 24 50        mov         edx,dword ptr [esp+50h]
  00403F74: 85 D2              test        edx,edx
  00403F76: BA 0A 00 00 00     mov         edx,0Ah
  00403F7B: 0F 45 54 24 50     cmovne      edx,dword ptr [esp+50h]
  00403F80: 89 54 24 50        mov         dword ptr [esp+50h],edx
  00403F84: E9 03 F7 FF FF     jmp         0040368C
  00403F89: 80 7C 24 7F 00     cmp         byte ptr [esp+7Fh],0
  00403F8E: 0F 84 60 FB FF FF  je          00403AF4
  00403F94: E9 2F FB FF FF     jmp         00403AC8
  00403F99: 8B 54 24 44        mov         edx,dword ptr [esp+44h]
  00403F9D: 85 D2              test        edx,edx
  00403F9F: 0F 85 2C 11 00 00  jne         004050D1
  00403FA5: 8B 44 24 54        mov         eax,dword ptr [esp+54h]
  00403FA9: 8B 54 24 54        mov         edx,dword ptr [esp+54h]
  00403FAD: 8B 00              mov         eax,dword ptr [eax]
  00403FAF: 83 C2 04           add         edx,4
  00403FB2: 89 54 24 54        mov         dword ptr [esp+54h],edx
  00403FB6: 89 44 24 68        mov         dword ptr [esp+68h],eax
  00403FBA: 8B 44 24 68        mov         eax,dword ptr [esp+68h]
  00403FBE: 85 C0              test        eax,eax
  00403FC0: 0F 85 7B F2 FF FF  jne         00403241
  00403FC6: E9 55 F1 FF FF     jmp         00403120
  00403FCB: 90                 nop
  00403FCC: 8D 74 26 00        lea         esi,[esi]
  00403FD0: 8B 44 24 44        mov         eax,dword ptr [esp+44h]
  00403FD4: 85 C0              test        eax,eax
  00403FD6: 0F 85 9B 11 00 00  jne         00405177
  00403FDC: 8B 44 24 54        mov         eax,dword ptr [esp+54h]
  00403FE0: 8B 54 24 54        mov         edx,dword ptr [esp+54h]
  00403FE4: 8B 00              mov         eax,dword ptr [eax]
  00403FE6: 83 C2 04           add         edx,4
  00403FE9: 89 54 24 54        mov         dword ptr [esp+54h],edx
  00403FED: 89 44 24 58        mov         dword ptr [esp+58h],eax
  00403FF1: 8B 44 24 58        mov         eax,dword ptr [esp+58h]
  00403FF5: 85 C0              test        eax,eax
  00403FF7: 0F 85 8C F8 FF FF  jne         00403889
  00403FFD: E9 1E F1 FF FF     jmp         00403120
  00404002: 8B 44 24 44        mov         eax,dword ptr [esp+44h]
  00404006: 85 C0              test        eax,eax
  00404008: 0F 85 7F 11 00 00  jne         0040518D
  0040400E: 8B 44 24 54        mov         eax,dword ptr [esp+54h]
  00404012: 8B 54 24 54        mov         edx,dword ptr [esp+54h]
  00404016: 8B 00              mov         eax,dword ptr [eax]
  00404018: 83 C2 04           add         edx,4
  0040401B: 89 54 24 54        mov         dword ptr [esp+54h],edx
  0040401F: 89 44 24 58        mov         dword ptr [esp+58h],eax
  00404023: 8B 44 24 58        mov         eax,dword ptr [esp+58h]
  00404027: 85 C0              test        eax,eax
  00404029: 0F 85 B6 F9 FF FF  jne         004039E5
  0040402F: E9 EC F0 FF FF     jmp         00403120
  00404034: 8B 44 24 44        mov         eax,dword ptr [esp+44h]
  00404038: 85 C0              test        eax,eax
  0040403A: 0F 85 10 10 00 00  jne         00405050
  00404040: 8B 54 24 54        mov         edx,dword ptr [esp+54h]
  00404044: 8B 4C 24 54        mov         ecx,dword ptr [esp+54h]
  00404048: 8B 12              mov         edx,dword ptr [edx]
  0040404A: 83 C1 04           add         ecx,4
  0040404D: 89 4C 24 54        mov         dword ptr [esp+54h],ecx
  00404051: 89 54 24 4C        mov         dword ptr [esp+4Ch],edx
  00404055: 8B 44 24 4C        mov         eax,dword ptr [esp+4Ch]
  00404059: 85 C0              test        eax,eax
  0040405B: 0F 84 1E 16 00 00  je          0040567F
  00404061: 81 FD 00 04 00 00  cmp         ebp,400h
  00404067: B8 00 04 00 00     mov         eax,400h
  0040406C: 0F 4E C5           cmovle      eax,ebp
  0040406F: 89 04 24           mov         dword ptr [esp],eax
  00404072: 89 44 24 64        mov         dword ptr [esp+64h],eax
  00404076: E8 AD 9E 00 00     call        0040DF28
  0040407B: 8B 4C 24 4C        mov         ecx,dword ptr [esp+4Ch]
  0040407F: 85 C0              test        eax,eax
  00404081: 89 44 24 68        mov         dword ptr [esp+68h],eax
  00404085: 89 01              mov         dword ptr [ecx],eax
  00404087: 0F 84 AD FE FF FF  je          00403F3A
  0040408D: 8B 84 24 9C 00 00  mov         eax,dword ptr [esp+9Ch]
            00
  00404094: E8 47 E9 FF FF     call        004029E0
  00404099: 8B 4C 24 4C        mov         ecx,dword ptr [esp+4Ch]
  0040409D: 8B 10              mov         edx,dword ptr [eax]
  0040409F: 89 84 24 9C 00 00  mov         dword ptr [esp+9Ch],eax
            00
  004040A6: 89 4C 90 08        mov         dword ptr [eax+edx*4+8],ecx
  004040AA: 83 C2 01           add         edx,1
  004040AD: 89 10              mov         dword ptr [eax],edx
  004040AF: E9 15 F3 FF FF     jmp         004033C9
  004040B4: 8B 4C 24 4C        mov         ecx,dword ptr [esp+4Ch]
  004040B8: 89 5C 24 64        mov         dword ptr [esp+64h],ebx
  004040BC: 89 01              mov         dword ptr [ecx],eax
  004040BE: 01 D0              add         eax,edx
  004040C0: 89 44 24 58        mov         dword ptr [esp+58h],eax
  004040C4: 8D B4 24 B4 00 00  lea         esi,[esp+0B4h]
            00
  004040CB: 8D 9C 24 BB 00 00  lea         ebx,[esp+0BBh]
            00
  004040D2: E9 B2 F9 FF FF     jmp         00403A89
  004040D7: 8B 8C 24 A8 00 00  mov         ecx,dword ptr [esp+0A8h]
            00
  004040DE: 8D B4 24 A4 00 00  lea         esi,[esp+0A4h]
            00
  004040E5: 31 C0              xor         eax,eax
  004040E7: 89 F2              mov         edx,esi
  004040E9: E8 52 E8 FF FF     call        00402940
  004040EE: 89 FA              mov         edx,edi
  004040F0: 89 84 24 A8 00 00  mov         dword ptr [esp+0A8h],eax
            00
  004040F7: 88 10              mov         byte ptr [eax],dl
  004040F9: 31 C0              xor         eax,eax
  004040FB: 85 ED              test        ebp,ebp
  004040FD: 0F 9F C0           setg        al
  00404100: 29 C5              sub         ebp,eax
  00404102: 8B 44 24 34        mov         eax,dword ptr [esp+34h]
  00404106: 8D 94 24 A0 00 00  lea         edx,[esp+0A0h]
            00
  0040410D: E8 0E EA FF FF     call        00402B20
  00404112: C7 44 24 30 01 00  mov         dword ptr [esp+30h],1
            00 00
  0040411A: 89 C7              mov         edi,eax
  0040411C: E9 E6 F4 FF FF     jmp         00403607
  00404121: C7 44 24 50 0A 00  mov         dword ptr [esp+50h],0Ah
            00 00
  00404129: E9 A4 F4 FF FF     jmp         004035D2
  0040412E: 83 64 24 38 F1     and         dword ptr [esp+38h],0FFFFFFF1h
  00404133: 83 4C 24 38 24     or          dword ptr [esp+38h],24h
  00404138: C7 44 24 50 10 00  mov         dword ptr [esp+50h],10h
            00 00
  00404140: E9 8D F4 FF FF     jmp         004035D2
  00404145: C7 44 24 50 08 00  mov         dword ptr [esp+50h],8
            00 00
  0040414D: E9 80 F4 FF FF     jmp         004035D2
  00404152: 83 4C 24 38 10     or          dword ptr [esp+38h],10h
  00404157: C7 44 24 50 00 00  mov         dword ptr [esp+50h],0
            00 00
  0040415F: E9 6E F4 FF FF     jmp         004035D2
  00404164: 83 4C 24 38 10     or          dword ptr [esp+38h],10h
  00404169: C7 44 24 50 0A 00  mov         dword ptr [esp+50h],0Ah
            00 00
  00404171: E9 5C F4 FF FF     jmp         004035D2
  00404176: C7 44 24 50 10 00  mov         dword ptr [esp+50h],10h
            00 00
  0040417E: E9 4F F4 FF FF     jmp         004035D2
  00404183: 83 7C 24 50 0A     cmp         dword ptr [esp+50h],0Ah
  00404188: 0F 85 3E F5 FF FF  jne         004036CC
  0040418E: 8B 44 24 6C        mov         eax,dword ptr [esp+6Ch]
  00404192: 85 C0              test        eax,eax
  00404194: 0F 84 32 F5 FF FF  je          004036CC
  0040419A: 8B 4C 24 3C        mov         ecx,dword ptr [esp+3Ch]
  0040419E: 85 ED              test        ebp,ebp
  004041A0: BF FF FF FF 7F     mov         edi,7FFFFFFFh
  004041A5: 0F 4F FD           cmovg       edi,ebp
  004041A8: 0F B6 11           movzx       edx,byte ptr [ecx]
  004041AB: 0F B6 C2           movzx       eax,dl
  004041AE: 39 C3              cmp         ebx,eax
  004041B0: 0F 85 B0 0B 00 00  jne         00404D66
  004041B6: 89 CE              mov         esi,ecx
  004041B8: 83 C6 01           add         esi,1
  004041BB: 80 79 01 00        cmp         byte ptr [ecx+1],0
  004041BF: 0F 84 98 0B 00 00  je          00404D5D
  004041C5: 89 6C 24 40        mov         dword ptr [esp+40h],ebp
  004041C9: 89 FD              mov         ebp,edi
  004041CB: 8B 7C 24 34        mov         edi,dword ptr [esp+34h]
  004041CF: EB 25              jmp         004041F6
  004041D1: 0F B6 16           movzx       edx,byte ptr [esi]
  004041D4: 83 ED 01           sub         ebp,1
  004041D7: 0F B6 C2           movzx       eax,dl
  004041DA: 39 D8              cmp         eax,ebx
  004041DC: 0F 85 60 02 00 00  jne         00404442
  004041E2: 83 C6 01           add         esi,1
  004041E5: 80 3E 00           cmp         byte ptr [esi],0
  004041E8: 0F 84 5F 02 00 00  je          0040444D
  004041EE: 85 ED              test        ebp,ebp
  004041F0: 0F 84 64 02 00 00  je          0040445A
  004041F6: 8D 94 24 A0 00 00  lea         edx,[esp+0A0h]
            00
  004041FD: 89 F8              mov         eax,edi
  004041FF: E8 1C E9 FF FF     call        00402B20
  00404204: 83 F8 FF           cmp         eax,0FFFFFFFFh
  00404207: 89 C3              mov         ebx,eax
  00404209: 75 C6              jne         004041D1
  0040420B: 89 EF              mov         edi,ebp
  0040420D: 0F B6 16           movzx       edx,byte ptr [esi]
  00404210: 8B 6C 24 40        mov         ebp,dword ptr [esp+40h]
  00404214: 84 D2              test        dl,dl
  00404216: 0F 85 00 15 00 00  jne         0040571C
  0040421C: 85 ED              test        ebp,ebp
  0040421E: 0F 4F EF           cmovg       ebp,edi
  00404221: 83 6C 24 30 01     sub         dword ptr [esp+30h],1
  00404226: 8B 8C 24 A8 00 00  mov         ecx,dword ptr [esp+0A8h]
            00
  0040422D: 8D 94 24 A4 00 00  lea         edx,[esp+0A4h]
            00
  00404234: 8B 44 24 30        mov         eax,dword ptr [esp+30h]
  00404238: E8 03 E7 FF FF     call        00402940
  0040423D: 8B 54 24 30        mov         edx,dword ptr [esp+30h]
  00404241: 89 84 24 A8 00 00  mov         dword ptr [esp+0A8h],eax
            00
  00404248: 88 1C 10           mov         byte ptr [eax+edx],bl
  0040424B: 83 C2 01           add         edx,1
  0040424E: 31 C0              xor         eax,eax
  00404250: 85 ED              test        ebp,ebp
  00404252: 0F 9F C0           setg        al
  00404255: 29 C5              sub         ebp,eax
  00404257: 8B 44 24 34        mov         eax,dword ptr [esp+34h]
  0040425B: 89 54 24 30        mov         dword ptr [esp+30h],edx
  0040425F: 8D 94 24 A0 00 00  lea         edx,[esp+0A0h]
            00
  00404266: E8 B5 E8 FF FF     call        00402B20
  0040426B: 85 ED              test        ebp,ebp
  0040426D: 89 C3              mov         ebx,eax
  0040426F: 0F 84 57 F4 FF FF  je          004036CC
  00404275: 83 F8 FF           cmp         eax,0FFFFFFFFh
  00404278: 0F 84 4E F4 FF FF  je          004036CC
  0040427E: 83 7C 24 50 10     cmp         dword ptr [esp+50h],10h
  00404283: 0F 85 2A F4 FF FF  jne         004036B3
  00404289: 89 1C 24           mov         dword ptr [esp],ebx
  0040428C: E8 47 9D 00 00     call        0040DFD8
  00404291: 85 C0              test        eax,eax
  00404293: 75 91              jne         00404226
  00404295: E9 32 F4 FF FF     jmp         004036CC
  0040429A: 89 C7              mov         edi,eax
  0040429C: 8B 44 24 60        mov         eax,dword ptr [esp+60h]
  004042A0: 0F B6 08           movzx       ecx,byte ptr [eax]
  004042A3: 84 C9              test        cl,cl
  004042A5: 74 36              je          004042DD
  004042A7: 8B 74 24 60        mov         esi,dword ptr [esp+60h]
  004042AB: 90                 nop
  004042AC: 8D 74 26 00        lea         esi,[esi]
  004042B0: 8B 8C 24 A8 00 00  mov         ecx,dword ptr [esp+0A8h]
            00
  004042B7: 8D 94 24 A4 00 00  lea         edx,[esp+0A4h]
            00
  004042BE: 89 D8              mov         eax,ebx
  004042C0: E8 7B E6 FF FF     call        00402940
  004042C5: 89 84 24 A8 00 00  mov         dword ptr [esp+0A8h],eax
            00
  004042CC: 0F B6 16           movzx       edx,byte ptr [esi]
  004042CF: 83 C6 01           add         esi,1
  004042D2: 88 14 18           mov         byte ptr [eax+ebx],dl
  004042D5: 83 C3 01           add         ebx,1
  004042D8: 80 3E 00           cmp         byte ptr [esi],0
  004042DB: 75 D3              jne         004042B0
  004042DD: 8B 44 24 30        mov         eax,dword ptr [esp+30h]
  004042E1: 85 C0              test        eax,eax
  004042E3: 7E 04              jle         004042E9
  004042E5: 89 6C 24 30        mov         dword ptr [esp+30h],ebp
  004042E9: C6 44 24 6C 01     mov         byte ptr [esp+6Ch],1
  004042EE: E9 E2 F8 FF FF     jmp         00403BD5
  004042F3: 8B 44 24 60        mov         eax,dword ptr [esp+60h]
  004042F7: 0F B6 08           movzx       ecx,byte ptr [eax]
  004042FA: 0F B6 C1           movzx       eax,cl
  004042FD: 89 CA              mov         edx,ecx
  004042FF: 39 F8              cmp         eax,edi
  00404301: 0F 85 AB 0E 00 00  jne         004051B2
  00404307: 8B 74 24 60        mov         esi,dword ptr [esp+60h]
  0040430B: 8B 54 24 60        mov         edx,dword ptr [esp+60h]
  0040430F: 83 C6 01           add         esi,1
  00404312: 80 7A 01 00        cmp         byte ptr [edx+1],0
  00404316: 0F 84 F9 13 00 00  je          00405715
  0040431C: 8B 7C 24 34        mov         edi,dword ptr [esp+34h]
  00404320: EB 25              jmp         00404347
  00404322: 0F B6 16           movzx       edx,byte ptr [esi]
  00404325: 83 ED 01           sub         ebp,1
  00404328: 0F B6 C2           movzx       eax,dl
  0040432B: 39 C8              cmp         eax,ecx
  0040432D: 0F 85 A6 01 00 00  jne         004044D9
  00404333: 83 C6 01           add         esi,1
  00404336: 80 3E 00           cmp         byte ptr [esi],0
  00404339: 0F 84 5B FF FF FF  je          0040429A
  0040433F: 85 ED              test        ebp,ebp
  00404341: 0F 84 9E 01 00 00  je          004044E5
  00404347: 8D 94 24 A0 00 00  lea         edx,[esp+0A0h]
            00
  0040434E: 89 F8              mov         eax,edi
  00404350: E8 CB E7 FF FF     call        00402B20
  00404355: 83 F8 FF           cmp         eax,0FFFFFFFFh
  00404358: 89 C1              mov         ecx,eax
  0040435A: 75 C6              jne         00404322
  0040435C: 0F B6 16           movzx       edx,byte ptr [esi]
  0040435F: 84 D2              test        dl,dl
  00404361: 89 C7              mov         edi,eax
  00404363: 0F 84 A5 13 00 00  je          0040570E
  00404369: 8B 44 24 78        mov         eax,dword ptr [esp+78h]
  0040436D: 85 C0              test        eax,eax
  0040436F: 0F 84 3A F8 FF FF  je          00403BAF
  00404375: 2B 74 24 60        sub         esi,dword ptr [esp+60h]
  00404379: 85 F6              test        esi,esi
  0040437B: 0F 8E 91 10 00 00  jle         00405412
  00404381: 8B 54 24 60        mov         edx,dword ptr [esp+60h]
  00404385: 8B 4C 24 3C        mov         ecx,dword ptr [esp+3Ch]
  00404389: 0F B6 12           movzx       edx,byte ptr [edx]
  0040438C: 38 11              cmp         byte ptr [ecx],dl
  0040438E: 0F 85 1B F8 FF FF  jne         00403BAF
  00404394: 89 6C 24 74        mov         dword ptr [esp+74h],ebp
  00404398: 89 C8              mov         eax,ecx
  0040439A: 8B 6C 24 60        mov         ebp,dword ptr [esp+60h]
  0040439E: 89 5C 24 1C        mov         dword ptr [esp+1Ch],ebx
  004043A2: EB 0D              jmp         004043B1
  004043A4: 0F B6 5C 15 00     movzx       ebx,byte ptr [ebp+edx]
  004043A9: 38 18              cmp         byte ptr [eax],bl
  004043AB: 0F 85 A7 06 00 00  jne         00404A58
  004043B1: 83 C0 01           add         eax,1
  004043B4: 89 C2              mov         edx,eax
  004043B6: 29 CA              sub         edx,ecx
  004043B8: 39 D6              cmp         esi,edx
  004043BA: 7F E8              jg          004043A4
  004043BC: 8B 6C 24 74        mov         ebp,dword ptr [esp+74h]
  004043C0: 8B 5C 24 1C        mov         ebx,dword ptr [esp+1Ch]
  004043C4: 39 D6              cmp         esi,edx
  004043C6: 0F 85 E7 F7 FF FF  jne         00403BB3
  004043CC: 0F B6 10           movzx       edx,byte ptr [eax]
  004043CF: 0F B6 CA           movzx       ecx,dl
  004043D2: 39 F9              cmp         ecx,edi
  004043D4: 0F 85 E4 F7 FF FF  jne         00403BBE
  004043DA: 0F B6 50 01        movzx       edx,byte ptr [eax+1]
  004043DE: 8D 70 01           lea         esi,[eax+1]
  004043E1: 84 D2              test        dl,dl
  004043E3: 0F 84 DD F7 FF FF  je          00403BC6
  004043E9: 85 ED              test        ebp,ebp
  004043EB: 0F 84 CD F7 FF FF  je          00403BBE
  004043F1: 89 DF              mov         edi,ebx
  004043F3: 8B 5C 24 34        mov         ebx,dword ptr [esp+34h]
  004043F7: EB 27              jmp         00404420
  004043F9: 0F B6 16           movzx       edx,byte ptr [esi]
  004043FC: 83 ED 01           sub         ebp,1
  004043FF: 0F B6 CA           movzx       ecx,dl
  00404402: 39 C1              cmp         ecx,eax
  00404404: 0F 85 77 0F 00 00  jne         00405381
  0040440A: 83 C6 01           add         esi,1
  0040440D: 0F B6 16           movzx       edx,byte ptr [esi]
  00404410: 84 D2              test        dl,dl
  00404412: 0F 84 60 0F 00 00  je          00405378
  00404418: 85 ED              test        ebp,ebp
  0040441A: 0F 84 79 0E 00 00  je          00405299
  00404420: 8D 94 24 A0 00 00  lea         edx,[esp+0A0h]
            00
  00404427: 89 D8              mov         eax,ebx
  00404429: E8 F2 E6 FF FF     call        00402B20
  0040442E: 83 F8 FF           cmp         eax,0FFFFFFFFh
  00404431: 75 C6              jne         004043F9
  00404433: 89 FB              mov         ebx,edi
  00404435: 0F B6 16           movzx       edx,byte ptr [esi]
  00404438: BF FF FF FF FF     mov         edi,0FFFFFFFFh
  0040443D: E9 7C F7 FF FF     jmp         00403BBE
  00404442: 89 EF              mov         edi,ebp
  00404444: 8B 6C 24 40        mov         ebp,dword ptr [esp+40h]
  00404448: E9 C7 FD FF FF     jmp         00404214
  0040444D: 89 EF              mov         edi,ebp
  0040444F: 89 C3              mov         ebx,eax
  00404451: 8B 6C 24 40        mov         ebp,dword ptr [esp+40h]
  00404455: E9 C2 FD FF FF     jmp         0040421C
  0040445A: 8B 5C 24 70        mov         ebx,dword ptr [esp+70h]
  0040445E: 39 74 24 3C        cmp         dword ptr [esp+3Ch],esi
  00404462: 89 C7              mov         edi,eax
  00404464: 0F 83 68 F2 FF FF  jae         004036D2
  0040446A: 8B 54 24 34        mov         edx,dword ptr [esp+34h]
  0040446E: 8D 8C 24 A0 00 00  lea         ecx,[esp+0A0h]
            00
  00404475: C7 04 24 00 00 00  mov         dword ptr [esp],0
            00
  0040447C: 8D 6E FF           lea         ebp,[esi-1]
  0040447F: E8 5C E7 FF FF     call        00402BE0
  00404484: 39 6C 24 3C        cmp         dword ptr [esp+3Ch],ebp
  00404488: 73 2F              jae         004044B9
  0040448A: 89 EF              mov         edi,ebp
  0040448C: 0F B6 07           movzx       eax,byte ptr [edi]
  0040448F: 8D 8C 24 A0 00 00  lea         ecx,[esp+0A0h]
            00
  00404496: 83 EF 01           sub         edi,1
  00404499: 8B 54 24 34        mov         edx,dword ptr [esp+34h]
  0040449D: C7 04 24 01 00 00  mov         dword ptr [esp],1
            00
  004044A4: E8 37 E7 FF FF     call        00402BE0
  004044A9: 3B 7C 24 3C        cmp         edi,dword ptr [esp+3Ch]
  004044AD: 75 DD              jne         0040448C
  004044AF: 8B 44 24 3C        mov         eax,dword ptr [esp+3Ch]
  004044B3: 29 F0              sub         eax,esi
  004044B5: 8D 6C 05 01        lea         ebp,[ebp+eax+1]
  004044B9: 0F B6 7D 00        movzx       edi,byte ptr [ebp]
  004044BD: E9 10 F2 FF FF     jmp         004036D2
  004044C2: 83 FF 2B           cmp         edi,2Bh
  004044C5: 0F 84 75 F7 FF FF  je          00403C40
  004044CB: 83 FF 2D           cmp         edi,2Dh
  004044CE: 0F 85 96 F6 FF FF  jne         00403B6A
  004044D4: E9 67 F7 FF FF     jmp         00403C40
  004044D9: 89 C8              mov         eax,ecx
  004044DB: 90                 nop
  004044DC: 8D 74 26 00        lea         esi,[esi]
  004044E0: E9 7A FE FF FF     jmp         0040435F
  004044E5: 89 C7              mov         edi,eax
  004044E7: E9 7D FE FF FF     jmp         00404369
  004044EC: 89 5C 24 74        mov         dword ptr [esp+74h],ebx
  004044F0: 8B 9C 24 80 00 00  mov         ebx,dword ptr [esp+80h]
            00
  004044F7: 8B 44 24 74        mov         eax,dword ptr [esp+74h]
  004044FB: 85 C0              test        eax,eax
  004044FD: 0F 84 1D EC FF FF  je          00403120
  00404503: F6 44 24 38 40     test        byte ptr [esp+38h],40h
  00404508: 74 0B              je          00404515
  0040450A: 83 7C 24 74 02     cmp         dword ptr [esp+74h],2
  0040450F: 0F 84 0B EC FF FF  je          00403120
  00404515: 8D B4 24 A4 00 00  lea         esi,[esp+0A4h]
            00
  0040451C: 8B 8C 24 A8 00 00  mov         ecx,dword ptr [esp+0A8h]
            00
  00404523: 89 F2              mov         edx,esi
  00404525: 8B 44 24 74        mov         eax,dword ptr [esp+74h]
  00404529: E8 12 E4 FF FF     call        00402940
  0040452E: 8B 54 24 74        mov         edx,dword ptr [esp+74h]
  00404532: 8D 8C 24 AC 00 00  lea         ecx,[esp+0ACh]
            00
  00404539: F6 44 24 38 08     test        byte ptr [esp+38h],8
  0040453E: 89 84 24 A8 00 00  mov         dword ptr [esp+0A8h],eax
            00
  00404545: C6 04 10 00        mov         byte ptr [eax+edx],0
  00404549: 0F 85 E5 05 00 00  jne         00404B34
  0040454F: 8B 84 24 A8 00 00  mov         eax,dword ptr [esp+0A8h]
            00
  00404556: F6 44 24 38 04     test        byte ptr [esp+38h],4
  0040455B: 89 4C 24 04        mov         dword ptr [esp+4],ecx
  0040455F: 89 04 24           mov         dword ptr [esp],eax
  00404562: 0F 84 27 05 00 00  je          00404A8F
  00404568: E8 93 39 00 00     call        00407F00
  0040456D: F6 44 24 38 80     test        byte ptr [esp+38h],80h
  00404572: 0F 85 65 03 00 00  jne         004048DD
  00404578: 8B 84 24 A8 00 00  mov         eax,dword ptr [esp+0A8h]
            00
  0040457F: 39 84 24 AC 00 00  cmp         dword ptr [esp+0ACh],eax
            00
  00404586: 0F 84 85 EB FF FF  je          00403111
  0040458C: 8B 74 24 44        mov         esi,dword ptr [esp+44h]
  00404590: 85 F6              test        esi,esi
  00404592: 0F 85 85 0E 00 00  jne         0040541D
  00404598: 8B 54 24 54        mov         edx,dword ptr [esp+54h]
  0040459C: 8B 02              mov         eax,dword ptr [edx]
  0040459E: 83 C2 04           add         edx,4
  004045A1: 89 54 24 54        mov         dword ptr [esp+54h],edx
  004045A5: 80 7C 24 7F 00     cmp         byte ptr [esp+7Fh],0
  004045AA: DD 9C 24 88 00 00  fstp        qword ptr [esp+88h]
            00
  004045B1: DD 84 24 88 00 00  fld         qword ptr [esp+88h]
            00
  004045B8: 74 02              je          004045BC
  004045BA: D9 E0              fchs
  004045BC: DD 18              fstp        qword ptr [eax]
  004045BE: 31 C0              xor         eax,eax
  004045C0: 89 DE              mov         esi,ebx
  004045C2: F6 44 24 38 80     test        byte ptr [esp+38h],80h
  004045C7: C7 44 24 30 00 00  mov         dword ptr [esp+30h],0
            00 00
  004045CF: 0F 94 C0           sete        al
  004045D2: 01 44 24 48        add         dword ptr [esp+48h],eax
  004045D6: E9 38 E7 FF FF     jmp         00402D13
  004045DB: 8B 8C 24 A8 00 00  mov         ecx,dword ptr [esp+0A8h]
            00
  004045E2: 89 D8              mov         eax,ebx
  004045E4: 8D 94 24 A4 00 00  lea         edx,[esp+0A4h]
            00
  004045EB: E8 50 E3 FF FF     call        00402940
  004045F0: 0F B6 4C 24 70     movzx       ecx,byte ptr [esp+70h]
  004045F5: C6 44 24 40 01     mov         byte ptr [esp+40h],1
  004045FA: C6 44 24 6C 01     mov         byte ptr [esp+6Ch],1
  004045FF: 89 84 24 A8 00 00  mov         dword ptr [esp+0A8h],eax
            00
  00404606: 88 0C 18           mov         byte ptr [eax+ebx],cl
  00404609: 83 C3 01           add         ebx,1
  0040460C: E9 C4 F5 FF FF     jmp         00403BD5
  00404611: 85 F6              test        esi,esi
  00404613: 0F 84 3C 01 00 00  je          00404755
  00404619: 8B 84 24 A0 00 00  mov         eax,dword ptr [esp+0A0h]
            00
  00404620: 8D 94 24 A0 00 00  lea         edx,[esp+0A0h]
            00
  00404627: 89 44 24 40        mov         dword ptr [esp+40h],eax
  0040462B: 8B 44 24 34        mov         eax,dword ptr [esp+34h]
  0040462F: E8 EC E4 FF FF     call        00402B20
  00404634: 83 F8 FF           cmp         eax,0FFFFFFFFh
  00404637: 89 C7              mov         edi,eax
  00404639: 0F 84 76 F7 FF FF  je          00403DB5
  0040463F: 8B 4C 24 38        mov         ecx,dword ptr [esp+38h]
  00404643: 31 F6              xor         esi,esi
  00404645: 89 C2              mov         edx,eax
  00404647: 89 5C 24 44        mov         dword ptr [esp+44h],ebx
  0040464B: 89 F7              mov         edi,esi
  0040464D: 0F B6 5C 24 30     movzx       ebx,byte ptr [esp+30h]
  00404652: C7 84 24 B4 00 00  mov         dword ptr [esp+0B4h],0
            00 00 00 00 00
  0040465D: 81 E1 80 00 00 00  and         ecx,80h
  00404663: 89 CE              mov         esi,ecx
  00404665: EB 24              jmp         0040468B
  00404667: 83 ED 01           sub         ebp,1
  0040466A: 0F 84 97 03 00 00  je          00404A07
  00404670: 8B 44 24 34        mov         eax,dword ptr [esp+34h]
  00404674: 8D 94 24 A0 00 00  lea         edx,[esp+0A0h]
            00
  0040467B: E8 A0 E4 FF FF     call        00402B20
  00404680: 83 F8 FF           cmp         eax,0FFFFFFFFh
  00404683: 89 C2              mov         edx,eax
  00404685: 0F 84 7C 03 00 00  je          00404A07
  0040468B: 8B 84 24 A8 00 00  mov         eax,dword ptr [esp+0A8h]
            00
  00404692: 38 1C 10           cmp         byte ptr [eax+edx],bl
  00404695: 0F 84 9C 0B 00 00  je          00405237
  0040469B: 85 F6              test        esi,esi
  0040469D: 75 C8              jne         00404667
  0040469F: 8D 84 24 BB 00 00  lea         eax,[esp+0BBh]
            00
  004046A6: 83 C7 01           add         edi,1
  004046A9: 89 44 24 04        mov         dword ptr [esp+4],eax
  004046AD: 8B 44 24 58        mov         eax,dword ptr [esp+58h]
  004046B1: 8D 8C 24 B4 00 00  lea         ecx,[esp+0B4h]
            00
  004046B8: 89 4C 24 0C        mov         dword ptr [esp+0Ch],ecx
  004046BC: C7 44 24 08 01 00  mov         dword ptr [esp+8],1
            00 00
  004046C4: 88 94 24 BB 00 00  mov         byte ptr [esp+0BBh],dl
            00
  004046CB: 89 04 24           mov         dword ptr [esp],eax
  004046CE: 89 54 24 20        mov         dword ptr [esp+20h],edx
  004046D2: E8 29 33 00 00     call        00407A00
  004046D7: 8B 54 24 20        mov         edx,dword ptr [esp+20h]
  004046DB: 83 F8 FE           cmp         eax,0FFFFFFFEh
  004046DE: 74 90              je          00404670
  004046E0: 83 44 24 58 02     add         dword ptr [esp+58h],2
  004046E5: F7 44 24 38 00 06  test        dword ptr [esp+38h],600h
            00 00
  004046ED: 0F 84 FE 03 00 00  je          00404AF1
  004046F3: 8B 4C 24 4C        mov         ecx,dword ptr [esp+4Ch]
  004046F7: 31 FF              xor         edi,edi
  004046F9: 8B 01              mov         eax,dword ptr [ecx]
  004046FB: 8B 4C 24 64        mov         ecx,dword ptr [esp+64h]
  004046FF: 01 C9              add         ecx,ecx
  00404701: 89 4C 24 30        mov         dword ptr [esp+30h],ecx
  00404705: 01 C1              add         ecx,eax
  00404707: 39 4C 24 58        cmp         dword ptr [esp+58h],ecx
  0040470B: 0F 85 56 FF FF FF  jne         00404667
  00404711: 8B 4C 24 64        mov         ecx,dword ptr [esp+64h]
  00404715: 8B 7C 24 30        mov         edi,dword ptr [esp+30h]
  00404719: 83 C1 01           add         ecx,1
  0040471C: 89 4C 24 58        mov         dword ptr [esp+58h],ecx
  00404720: 8D 0C 3F           lea         ecx,[edi+edi]
  00404723: 89 4C 24 04        mov         dword ptr [esp+4],ecx
  00404727: 89 04 24           mov         dword ptr [esp],eax
  0040472A: 89 54 24 20        mov         dword ptr [esp+20h],edx
  0040472E: E8 6D 98 00 00     call        0040DFA0
  00404733: 8B 54 24 20        mov         edx,dword ptr [esp+20h]
  00404737: 85 C0              test        eax,eax
  00404739: 0F 85 C4 0E 00 00  jne         00405603
  0040473F: 3B 7C 24 58        cmp         edi,dword ptr [esp+58h]
  00404743: 0F 86 8D 0F 00 00  jbe         004056D6
  00404749: 8B 4C 24 4C        mov         ecx,dword ptr [esp+4Ch]
  0040474D: 8B 7C 24 58        mov         edi,dword ptr [esp+58h]
  00404751: 8B 01              mov         eax,dword ptr [ecx]
  00404753: EB CB              jmp         00404720
  00404755: 8B 94 24 A0 00 00  mov         edx,dword ptr [esp+0A0h]
            00
  0040475C: 8B 44 24 34        mov         eax,dword ptr [esp+34h]
  00404760: 89 54 24 6C        mov         dword ptr [esp+6Ch],edx
  00404764: 8D 94 24 A0 00 00  lea         edx,[esp+0A0h]
            00
  0040476B: E8 B0 E3 FF FF     call        00402B20
  00404770: 83 F8 FF           cmp         eax,0FFFFFFFFh
  00404773: 89 C7              mov         edi,eax
  00404775: 0F 84 3A F6 FF FF  je          00403DB5
  0040477B: 8B 74 24 38        mov         esi,dword ptr [esp+38h]
  0040477F: 8B 4C 24 38        mov         ecx,dword ptr [esp+38h]
  00404783: 8B 7C 24 68        mov         edi,dword ptr [esp+68h]
  00404787: 89 5C 24 40        mov         dword ptr [esp+40h],ebx
  0040478B: 89 C3              mov         ebx,eax
  0040478D: 81 E6 80 00 00 00  and         esi,80h
  00404793: 89 F0              mov         eax,esi
  00404795: 81 E1 00 06 00 00  and         ecx,600h
  0040479B: 89 EE              mov         esi,ebp
  0040479D: 89 C5              mov         ebp,eax
  0040479F: 89 4C 24 44        mov         dword ptr [esp+44h],ecx
  004047A3: 8B 84 24 A8 00 00  mov         eax,dword ptr [esp+0A8h]
            00
  004047AA: 0F B6 54 24 30     movzx       edx,byte ptr [esp+30h]
  004047AF: 38 14 18           cmp         byte ptr [eax+ebx],dl
  004047B2: 0F 84 57 0A 00 00  je          0040520F
  004047B8: 85 ED              test        ebp,ebp
  004047BA: 75 21              jne         004047DD
  004047BC: 8B 54 24 44        mov         edx,dword ptr [esp+44h]
  004047C0: 88 1F              mov         byte ptr [edi],bl
  004047C2: 83 C7 01           add         edi,1
  004047C5: 85 D2              test        edx,edx
  004047C7: 74 14              je          004047DD
  004047C9: 8B 4C 24 4C        mov         ecx,dword ptr [esp+4Ch]
  004047CD: 8B 54 24 64        mov         edx,dword ptr [esp+64h]
  004047D1: 8B 01              mov         eax,dword ptr [ecx]
  004047D3: 01 C2              add         edx,eax
  004047D5: 39 D7              cmp         edi,edx
  004047D7: 0F 84 89 08 00 00  je          00405066
  004047DD: 83 EE 01           sub         esi,1
  004047E0: 85 F6              test        esi,esi
  004047E2: 7E 17              jle         004047FB
  004047E4: 8B 44 24 34        mov         eax,dword ptr [esp+34h]
  004047E8: 8D 94 24 A0 00 00  lea         edx,[esp+0A0h]
            00
  004047EF: E8 2C E3 FF FF     call        00402B20
  004047F4: 83 F8 FF           cmp         eax,0FFFFFFFFh
  004047F7: 89 C3              mov         ebx,eax
  004047F9: 75 A8              jne         004047A3
  004047FB: 89 7C 24 68        mov         dword ptr [esp+68h],edi
  004047FF: 89 DF              mov         edi,ebx
  00404801: 8B 5C 24 40        mov         ebx,dword ptr [esp+40h]
  00404805: 8B 44 24 6C        mov         eax,dword ptr [esp+6Ch]
  00404809: 3B 84 24 A0 00 00  cmp         eax,dword ptr [esp+0A0h]
            00
  00404810: 0F 84 0A E9 FF FF  je          00403120
  00404816: F6 44 24 38 80     test        byte ptr [esp+38h],80h
  0040481B: C7 44 24 30 00 00  mov         dword ptr [esp+30h],0
            00 00
  00404823: 0F 84 B8 EA FF FF  je          004032E1
  00404829: 89 DE              mov         esi,ebx
  0040482B: E9 E3 E4 FF FF     jmp         00402D13
  00404830: 8B 94 24 A8 00 00  mov         edx,dword ptr [esp+0A8h]
            00
  00404837: B8 00 01 00 00     mov         eax,100h
  0040483C: C7 84 24 A4 00 00  mov         dword ptr [esp+0A4h],100h
            00 00 01 00 00
  00404847: 85 D2              test        edx,edx
  00404849: 74 0F              je          0040485A
  0040484B: 89 14 24           mov         dword ptr [esp],edx
  0040484E: E8 45 97 00 00     call        0040DF98
  00404853: 8B 84 24 A4 00 00  mov         eax,dword ptr [esp+0A4h]
            00
  0040485A: 89 04 24           mov         dword ptr [esp],eax
  0040485D: E8 C6 96 00 00     call        0040DF28
  00404862: 89 84 24 A8 00 00  mov         dword ptr [esp+0A8h],eax
            00
  00404869: E9 A7 EC FF FF     jmp         00403515
  0040486E: F6 44 24 38 10     test        byte ptr [esp+38h],10h
  00404873: 0F 84 FE 03 00 00  je          00404C77
  00404879: 8B 54 24 50        mov         edx,dword ptr [esp+50h]
  0040487D: 8D 8C 24 AC 00 00  lea         ecx,[esp+0ACh]
            00
  00404884: 8B 84 24 A8 00 00  mov         eax,dword ptr [esp+0A8h]
            00
  0040488B: 89 4C 24 04        mov         dword ptr [esp+4],ecx
  0040488F: 89 54 24 08        mov         dword ptr [esp+8],edx
  00404893: 89 04 24           mov         dword ptr [esp],eax
  00404896: E8 45 97 00 00     call        0040DFE0
  0040489B: 89 C6              mov         esi,eax
  0040489D: E9 E1 EE FF FF     jmp         00403783
  004048A2: 89 5C 24 68        mov         dword ptr [esp+68h],ebx
  004048A6: 8B 5C 24 38        mov         ebx,dword ptr [esp+38h]
  004048AA: 89 74 24 64        mov         dword ptr [esp+64h],esi
  004048AE: 89 FE              mov         esi,edi
  004048B0: 89 D7              mov         edi,edx
  004048B2: 8B 54 24 68        mov         edx,dword ptr [esp+68h]
  004048B6: 89 F1              mov         ecx,esi
  004048B8: 8B 44 24 4C        mov         eax,dword ptr [esp+4Ch]
  004048BC: 89 DE              mov         esi,ebx
  004048BE: E8 4D E0 FF FF     call        00402910
  004048C3: 83 44 24 48 01     add         dword ptr [esp+48h],1
  004048C8: C7 44 24 30 00 00  mov         dword ptr [esp+30h],0
            00 00
  004048D0: C7 44 24 4C 00 00  mov         dword ptr [esp+4Ch],0
            00 00
  004048D8: E9 36 E4 FF FF     jmp         00402D13
  004048DD: DD D8              fstp        st(0)
  004048DF: EB 06              jmp         004048E7
  004048E1: DD D8              fstp        st(0)
  004048E3: EB 02              jmp         004048E7
  004048E5: DD D8              fstp        st(0)
  004048E7: 8B 94 24 A8 00 00  mov         edx,dword ptr [esp+0A8h]
            00
  004048EE: 8B 84 24 AC 00 00  mov         eax,dword ptr [esp+0ACh]
            00
  004048F5: 39 C2              cmp         edx,eax
  004048F7: 0F 85 C1 FC FF FF  jne         004045BE
  004048FD: E9 1E E8 FF FF     jmp         00403120
  00404902: 83 F8 01           cmp         eax,1
  00404905: 0F 85 21 F0 FF FF  jne         0040392C
  0040490B: 83 6C 24 38 01     sub         dword ptr [esp+38h],1
  00404910: 8B 44 24 38        mov         eax,dword ptr [esp+38h]
  00404914: 83 44 24 58 02     add         dword ptr [esp+58h],2
  00404919: 85 C0              test        eax,eax
  0040491B: 7E 1B              jle         00404938
  0040491D: 8B 44 24 34        mov         eax,dword ptr [esp+34h]
  00404921: 8D 94 24 A0 00 00  lea         edx,[esp+0A0h]
            00
  00404928: E8 F3 E1 FF FF     call        00402B20
  0040492D: 83 F8 FF           cmp         eax,0FFFFFFFFh
  00404930: 89 C7              mov         edi,eax
  00404932: 0F 85 ED F0 FF FF  jne         00403A25
  00404938: 8B 6C 24 40        mov         ebp,dword ptr [esp+40h]
  0040493C: 8B 5C 24 44        mov         ebx,dword ptr [esp+44h]
  00404940: C7 44 24 30 00 00  mov         dword ptr [esp+30h],0
            00 00
  00404948: 85 ED              test        ebp,ebp
  0040494A: 0F 85 F6 E3 FF FF  jne         00402D46
  00404950: 8B 4C 24 64        mov         ecx,dword ptr [esp+64h]
  00404954: 89 DE              mov         esi,ebx
  00404956: 8B 54 24 58        mov         edx,dword ptr [esp+58h]
  0040495A: 8B 44 24 4C        mov         eax,dword ptr [esp+4Ch]
  0040495E: 01 C9              add         ecx,ecx
  00404960: E8 AB DF FF FF     call        00402910
  00404965: 83 44 24 48 01     add         dword ptr [esp+48h],1
  0040496A: C7 44 24 4C 00 00  mov         dword ptr [esp+4Ch],0
            00 00
  00404972: E9 9C E3 FF FF     jmp         00402D13
  00404977: 83 F8 01           cmp         eax,1
  0040497A: 0F 85 AC EF FF FF  jne         0040392C
  00404980: 83 C5 02           add         ebp,2
  00404983: 85 F6              test        esi,esi
  00404985: 75 21              jne         004049A8
  00404987: F7 44 24 38 00 06  test        dword ptr [esp+38h],600h
            00 00
  0040498F: 74 17              je          004049A8
  00404991: 8B 44 24 4C        mov         eax,dword ptr [esp+4Ch]
  00404995: 8B 54 24 64        mov         edx,dword ptr [esp+64h]
  00404999: 8B 08              mov         ecx,dword ptr [eax]
  0040499B: 01 D2              add         edx,edx
  0040499D: 8D 04 11           lea         eax,[ecx+edx]
  004049A0: 39 C5              cmp         ebp,eax
  004049A2: 0F 84 17 0B 00 00  je          004054BF
  004049A8: 8B 7C 24 30        mov         edi,dword ptr [esp+30h]
  004049AC: 85 FF              test        edi,edi
  004049AE: 7E 07              jle         004049B7
  004049B0: 83 6C 24 30 01     sub         dword ptr [esp+30h],1
  004049B5: 74 1B              je          004049D2
  004049B7: 8B 44 24 34        mov         eax,dword ptr [esp+34h]
  004049BB: 8D 94 24 A0 00 00  lea         edx,[esp+0A0h]
            00
  004049C2: E8 59 E1 FF FF     call        00402B20
  004049C7: 83 F8 FF           cmp         eax,0FFFFFFFFh
  004049CA: 89 C3              mov         ebx,eax
  004049CC: 0F 85 EB EE FF FF  jne         004038BD
  004049D2: 89 DF              mov         edi,ebx
  004049D4: 8B 5C 24 44        mov         ebx,dword ptr [esp+44h]
  004049D8: 89 6C 24 58        mov         dword ptr [esp+58h],ebp
  004049DC: 85 F6              test        esi,esi
  004049DE: C7 44 24 30 00 00  mov         dword ptr [esp+30h],0
            00 00
  004049E6: 0F 85 5A E3 FF FF  jne         00402D46
  004049EC: 8B 44 24 58        mov         eax,dword ptr [esp+58h]
  004049F0: 8B 4C 24 64        mov         ecx,dword ptr [esp+64h]
  004049F4: 66 C7 00 00 00     mov         word ptr [eax],0
  004049F9: 83 C0 02           add         eax,2
  004049FC: 89 44 24 58        mov         dword ptr [esp+58h],eax
  00404A00: 01 C9              add         ecx,ecx
  00404A02: E9 EC E8 FF FF     jmp         004032F3
  00404A07: 8B 5C 24 44        mov         ebx,dword ptr [esp+44h]
  00404A0B: 89 FE              mov         esi,edi
  00404A0D: 89 D7              mov         edi,edx
  00404A0F: 85 F6              test        esi,esi
  00404A11: 0F 85 15 EF FF FF  jne         0040392C
  00404A17: 8B 44 24 40        mov         eax,dword ptr [esp+40h]
  00404A1B: 3B 84 24 A0 00 00  cmp         eax,dword ptr [esp+0A0h]
            00
  00404A22: 0F 84 F8 E6 FF FF  je          00403120
  00404A28: F6 44 24 38 80     test        byte ptr [esp+38h],80h
  00404A2D: C7 44 24 30 00 00  mov         dword ptr [esp+30h],0
            00 00
  00404A35: 0F 85 0B E3 FF FF  jne         00402D46
  00404A3B: 8B 44 24 58        mov         eax,dword ptr [esp+58h]
  00404A3F: 8B 4C 24 64        mov         ecx,dword ptr [esp+64h]
  00404A43: 66 C7 00 00 00     mov         word ptr [eax],0
  00404A48: 83 C0 02           add         eax,2
  00404A4B: 89 44 24 58        mov         dword ptr [esp+58h],eax
  00404A4F: 01 C9              add         ecx,ecx
  00404A51: 89 C2              mov         edx,eax
  00404A53: E9 60 FE FF FF     jmp         004048B8
  00404A58: 8B 6C 24 74        mov         ebp,dword ptr [esp+74h]
  00404A5C: 8B 5C 24 1C        mov         ebx,dword ptr [esp+1Ch]
  00404A60: E9 4E F1 FF FF     jmp         00403BB3
  00404A65: 8D 53 02           lea         edx,[ebx+2]
  00404A68: 0F B6 73 02        movzx       esi,byte ptr [ebx+2]
  00404A6C: 83 4C 24 38 01     or          dword ptr [esp+38h],1
  00404A71: 89 54 24 40        mov         dword ptr [esp+40h],edx
  00404A75: E9 2B E4 FF FF     jmp         00402EA5
  00404A7A: 8D 4B 02           lea         ecx,[ebx+2]
  00404A7D: 0F B6 73 02        movzx       esi,byte ptr [ebx+2]
  00404A81: 83 4C 24 38 0C     or          dword ptr [esp+38h],0Ch
  00404A86: 89 4C 24 40        mov         dword ptr [esp+40h],ecx
  00404A8A: E9 16 E4 FF FF     jmp         00402EA5
  00404A8F: E8 8C 35 00 00     call        00408020
  00404A94: F6 44 24 38 80     test        byte ptr [esp+38h],80h
  00404A99: 0F 85 42 FE FF FF  jne         004048E1
  00404A9F: 8B 84 24 A8 00 00  mov         eax,dword ptr [esp+0A8h]
            00
  00404AA6: 39 84 24 AC 00 00  cmp         dword ptr [esp+0ACh],eax
            00
  00404AAD: 0F 84 62 E6 FF FF  je          00403115
  00404AB3: 8B 4C 24 44        mov         ecx,dword ptr [esp+44h]
  00404AB7: 85 C9              test        ecx,ecx
  00404AB9: 0F 85 6C 0A 00 00  jne         0040552B
  00404ABF: 8B 54 24 54        mov         edx,dword ptr [esp+54h]
  00404AC3: 8B 02              mov         eax,dword ptr [edx]
  00404AC5: 83 C2 04           add         edx,4
  00404AC8: 89 54 24 54        mov         dword ptr [esp+54h],edx
  00404ACC: 80 7C 24 7F 00     cmp         byte ptr [esp+7Fh],0
  00404AD1: 74 02              je          00404AD5
  00404AD3: D9 E0              fchs
  00404AD5: D9 18              fstp        dword ptr [eax]
  00404AD7: E9 E2 FA FF FF     jmp         004045BE
  00404ADC: E8 E7 94 00 00     call        0040DFC8
  00404AE1: C7 00 16 00 00 00  mov         dword ptr [eax],16h
  00404AE7: B8 FF FF FF FF     mov         eax,0FFFFFFFFh
  00404AEC: E9 4D E6 FF FF     jmp         0040313E
  00404AF1: 31 FF              xor         edi,edi
  00404AF3: E9 6F FB FF FF     jmp         00404667
  00404AF8: F6 44 24 38 04     test        byte ptr [esp+38h],4
  00404AFD: 0F 84 95 02 00 00  je          00404D98
  00404B03: 8B 44 24 44        mov         eax,dword ptr [esp+44h]
  00404B07: 85 C0              test        eax,eax
  00404B09: 0F 85 F8 09 00 00  jne         00405507
  00404B0F: 8B 54 24 54        mov         edx,dword ptr [esp+54h]
  00404B13: 8B 02              mov         eax,dword ptr [edx]
  00404B15: 83 C2 04           add         edx,4
  00404B18: 89 54 24 54        mov         dword ptr [esp+54h],edx
  00404B1C: 8B 94 24 A0 00 00  mov         edx,dword ptr [esp+0A0h]
            00
  00404B23: 89 DE              mov         esi,ebx
  00404B25: 89 10              mov         dword ptr [eax],edx
  00404B27: C7 44 24 30 00 00  mov         dword ptr [esp+30h],0
            00 00
  00404B2F: E9 DF E1 FF FF     jmp         00402D13
  00404B34: 8B 84 24 A8 00 00  mov         eax,dword ptr [esp+0A8h]
            00
  00404B3B: 89 4C 24 04        mov         dword ptr [esp+4],ecx
  00404B3F: 89 04 24           mov         dword ptr [esp],eax
  00404B42: E8 B9 33 00 00     call        00407F00
  00404B47: F6 44 24 38 80     test        byte ptr [esp+38h],80h
  00404B4C: 0F 85 93 FD FF FF  jne         004048E5
  00404B52: 8B 84 24 A8 00 00  mov         eax,dword ptr [esp+0A8h]
            00
  00404B59: 39 84 24 AC 00 00  cmp         dword ptr [esp+0ACh],eax
            00
  00404B60: 0F 84 B3 E5 FF FF  je          00403119
  00404B66: 8B 6C 24 44        mov         ebp,dword ptr [esp+44h]
  00404B6A: 85 ED              test        ebp,ebp
  00404B6C: 0F 85 4E 0A 00 00  jne         004055C0
  00404B72: 8B 54 24 54        mov         edx,dword ptr [esp+54h]
  00404B76: 8B 02              mov         eax,dword ptr [edx]
  00404B78: 83 C2 04           add         edx,4
  00404B7B: 89 54 24 54        mov         dword ptr [esp+54h],edx
  00404B7F: 80 7C 24 7F 00     cmp         byte ptr [esp+7Fh],0
  00404B84: 74 02              je          00404B88
  00404B86: D9 E0              fchs
  00404B88: DB 38              fstp        tbyte ptr [eax]
  00404B8A: E9 2F FA FF FF     jmp         004045BE
  00404B8F: 8D 84 24 AC 00 00  lea         eax,[esp+0ACh]
            00
  00404B96: 8B 4C 24 50        mov         ecx,dword ptr [esp+50h]
  00404B9A: 89 44 24 04        mov         dword ptr [esp+4],eax
  00404B9E: 8B 84 24 A8 00 00  mov         eax,dword ptr [esp+0A8h]
            00
  00404BA5: 89 4C 24 08        mov         dword ptr [esp+8],ecx
  00404BA9: 89 04 24           mov         dword ptr [esp],eax
  00404BAC: E8 0F 35 00 00     call        004080C0
  00404BB1: 89 C6              mov         esi,eax
  00404BB3: 89 94 24 84 00 00  mov         dword ptr [esp+84h],edx
            00
  00404BBA: E9 C4 EB FF FF     jmp         00403783
  00404BBF: 85 ED              test        ebp,ebp
  00404BC1: 0F 84 36 05 00 00  je          004050FD
  00404BC7: 8B 54 24 44        mov         edx,dword ptr [esp+44h]
  00404BCB: 85 D2              test        edx,edx
  00404BCD: 0F 85 46 09 00 00  jne         00405519
  00404BD3: 8B 4C 24 54        mov         ecx,dword ptr [esp+54h]
  00404BD7: 8B 01              mov         eax,dword ptr [ecx]
  00404BD9: 83 C1 04           add         ecx,4
  00404BDC: 89 4C 24 54        mov         dword ptr [esp+54h],ecx
  00404BE0: 8B 94 24 84 00 00  mov         edx,dword ptr [esp+84h]
            00
  00404BE7: 89 30              mov         dword ptr [eax],esi
  00404BE9: 89 50 04           mov         dword ptr [eax+4],edx
  00404BEC: E9 F1 EB FF FF     jmp         004037E2
  00404BF1: 8B 8C 24 A8 00 00  mov         ecx,dword ptr [esp+0A8h]
            00
  00404BF8: 8D B4 24 A4 00 00  lea         esi,[esp+0A4h]
            00
  00404BFF: 8B 44 24 30        mov         eax,dword ptr [esp+30h]
  00404C03: 89 F2              mov         edx,esi
  00404C05: E8 36 DD FF FF     call        00402940
  00404C0A: 8B 54 24 30        mov         edx,dword ptr [esp+30h]
  00404C0E: 89 84 24 A8 00 00  mov         dword ptr [esp+0A8h],eax
            00
  00404C15: C6 04 10 30        mov         byte ptr [eax+edx],30h
  00404C19: 8B 44 24 34        mov         eax,dword ptr [esp+34h]
  00404C1D: 83 C2 01           add         edx,1
  00404C20: 89 54 24 30        mov         dword ptr [esp+30h],edx
  00404C24: 8D 94 24 A0 00 00  lea         edx,[esp+0A0h]
            00
  00404C2B: E8 F0 DE FF FF     call        00402B20
  00404C30: 89 C7              mov         edi,eax
  00404C32: 89 3C 24           mov         dword ptr [esp],edi
  00404C35: E8 96 93 00 00     call        0040DFD0
  00404C3A: 83 F8 78           cmp         eax,78h
  00404C3D: 0F 85 30 EA FF FF  jne         00403673
  00404C43: 8B 74 24 50        mov         esi,dword ptr [esp+50h]
  00404C47: 85 F6              test        esi,esi
  00404C49: 0F 85 67 06 00 00  jne         004052B6
  00404C4F: 31 C0              xor         eax,eax
  00404C51: 85 ED              test        ebp,ebp
  00404C53: 0F 9F C0           setg        al
  00404C56: 29 C5              sub         ebp,eax
  00404C58: 8B 44 24 34        mov         eax,dword ptr [esp+34h]
  00404C5C: 8D 94 24 A0 00 00  lea         edx,[esp+0A0h]
            00
  00404C63: E8 B8 DE FF FF     call        00402B20
  00404C68: C7 44 24 50 10 00  mov         dword ptr [esp+50h],10h
            00 00
  00404C70: 89 C7              mov         edi,eax
  00404C72: E9 10 EA FF FF     jmp         00403687
  00404C77: 8B 44 24 50        mov         eax,dword ptr [esp+50h]
  00404C7B: 8D 94 24 AC 00 00  lea         edx,[esp+0ACh]
            00
  00404C82: 89 54 24 04        mov         dword ptr [esp+4],edx
  00404C86: 89 44 24 08        mov         dword ptr [esp+8],eax
  00404C8A: 8B 84 24 A8 00 00  mov         eax,dword ptr [esp+0A8h]
            00
  00404C91: 89 04 24           mov         dword ptr [esp],eax
  00404C94: E8 4F 93 00 00     call        0040DFE8
  00404C99: 89 C6              mov         esi,eax
  00404C9B: E9 E3 EA FF FF     jmp         00403783
  00404CA0: 8B 4C 24 64        mov         ecx,dword ptr [esp+64h]
  00404CA4: 8B 5C 24 64        mov         ebx,dword ptr [esp+64h]
  00404CA8: 89 74 24 40        mov         dword ptr [esp+40h],esi
  00404CAC: 01 C9              add         ecx,ecx
  00404CAE: 83 C3 01           add         ebx,1
  00404CB1: 89 CE              mov         esi,ecx
  00404CB3: EB 08              jmp         00404CBD
  00404CB5: 8B 4C 24 4C        mov         ecx,dword ptr [esp+4Ch]
  00404CB9: 89 DE              mov         esi,ebx
  00404CBB: 8B 01              mov         eax,dword ptr [ecx]
  00404CBD: 89 74 24 04        mov         dword ptr [esp+4],esi
  00404CC1: 89 04 24           mov         dword ptr [esp],eax
  00404CC4: E8 D7 92 00 00     call        0040DFA0
  00404CC9: 85 C0              test        eax,eax
  00404CCB: 0F 85 8C 06 00 00  jne         0040535D
  00404CD1: 39 DE              cmp         esi,ebx
  00404CD3: 77 E0              ja          00404CB5
  00404CD5: F7 44 24 38 00 04  test        dword ptr [esp+38h],400h
            00 00
  00404CDD: B8 FF FF FF FF     mov         eax,0FFFFFFFFh
  00404CE2: 75 1E              jne         00404D02
  00404CE4: 8B 4C 24 4C        mov         ecx,dword ptr [esp+4Ch]
  00404CE8: 8B 5C 24 64        mov         ebx,dword ptr [esp+64h]
  00404CEC: 8B 01              mov         eax,dword ptr [ecx]
  00404CEE: C6 44 18 FF 00     mov         byte ptr [eax+ebx-1],0
  00404CF3: 8B 44 24 48        mov         eax,dword ptr [esp+48h]
  00404CF7: C7 44 24 4C 00 00  mov         dword ptr [esp+4Ch],0
            00 00
  00404CFF: 83 C0 01           add         eax,1
  00404D02: 8B 4C 24 4C        mov         ecx,dword ptr [esp+4Ch]
  00404D06: 8D 94 24 A8 00 00  lea         edx,[esp+0A8h]
            00
  00404D0D: 89 14 24           mov         dword ptr [esp],edx
  00404D10: 8D 94 24 9C 00 00  lea         edx,[esp+9Ch]
            00
  00404D17: E8 74 DD FF FF     call        00402A90
  00404D1C: E9 1D E4 FF FF     jmp         0040313E
  00404D21: 39 EE              cmp         esi,ebp
  00404D23: 8D 7D FF           lea         edi,[ebp-1]
  00404D26: 0F 4C FE           cmovl       edi,esi
  00404D29: 01 F7              add         edi,esi
  00404D2B: 8D 5E 01           lea         ebx,[esi+1]
  00404D2E: 89 74 24 44        mov         dword ptr [esp+44h],esi
  00404D32: 89 FE              mov         esi,edi
  00404D34: 89 D7              mov         edi,edx
  00404D36: EB 08              jmp         00404D40
  00404D38: 8B 4C 24 4C        mov         ecx,dword ptr [esp+4Ch]
  00404D3C: 89 DE              mov         esi,ebx
  00404D3E: 8B 01              mov         eax,dword ptr [ecx]
  00404D40: 89 74 24 04        mov         dword ptr [esp+4],esi
  00404D44: 89 04 24           mov         dword ptr [esp],eax
  00404D47: E8 54 92 00 00     call        0040DFA0
  00404D4C: 85 C0              test        eax,eax
  00404D4E: 0F 85 72 05 00 00  jne         004052C6
  00404D54: 39 DE              cmp         esi,ebx
  00404D56: 77 E0              ja          00404D38
  00404D58: E9 52 F1 FF FF     jmp         00403EAF
  00404D5D: 89 D8              mov         eax,ebx
  00404D5F: 89 C3              mov         ebx,eax
  00404D61: E9 B6 F4 FF FF     jmp         0040421C
  00404D66: 8B 74 24 3C        mov         esi,dword ptr [esp+3Ch]
  00404D6A: E9 A5 F4 FF FF     jmp         00404214
  00404D6F: 8B 54 24 34        mov         edx,dword ptr [esp+34h]
  00404D73: 8D 8C 24 A0 00 00  lea         ecx,[esp+0A0h]
            00
  00404D7A: 89 F8              mov         eax,edi
  00404D7C: C7 04 24 00 00 00  mov         dword ptr [esp],0
            00
  00404D83: 89 5C 24 74        mov         dword ptr [esp+74h],ebx
  00404D87: 8B 9C 24 80 00 00  mov         ebx,dword ptr [esp+80h]
            00
  00404D8E: E8 4D DE FF FF     call        00402BE0
  00404D93: E9 5F F7 FF FF     jmp         004044F7
  00404D98: F6 44 24 38 02     test        byte ptr [esp+38h],2
  00404D9D: 0F 84 BA 04 00 00  je          0040525D
  00404DA3: 8B 44 24 44        mov         eax,dword ptr [esp+44h]
  00404DA7: 85 C0              test        eax,eax
  00404DA9: 0F 85 F9 05 00 00  jne         004053A8
  00404DAF: 8B 4C 24 54        mov         ecx,dword ptr [esp+54h]
  00404DB3: 8B 54 24 54        mov         edx,dword ptr [esp+54h]
  00404DB7: 8B 01              mov         eax,dword ptr [ecx]
  00404DB9: 83 C2 04           add         edx,4
  00404DBC: 8B 8C 24 A0 00 00  mov         ecx,dword ptr [esp+0A0h]
            00
  00404DC3: 89 DE              mov         esi,ebx
  00404DC5: 89 54 24 54        mov         dword ptr [esp+54h],edx
  00404DC9: C7 44 24 30 00 00  mov         dword ptr [esp+30h],0
            00 00
  00404DD1: 66 89 08           mov         word ptr [eax],cx
  00404DD4: E9 3A DF FF FF     jmp         00402D13
  00404DD9: 8B 44 24 44        mov         eax,dword ptr [esp+44h]
  00404DDD: 85 C0              test        eax,eax
  00404DDF: 0F 85 05 06 00 00  jne         004053EA
  00404DE5: 8B 44 24 54        mov         eax,dword ptr [esp+54h]
  00404DE9: 8B 54 24 54        mov         edx,dword ptr [esp+54h]
  00404DED: 8B 00              mov         eax,dword ptr [eax]
  00404DEF: 83 C2 04           add         edx,4
  00404DF2: 89 54 24 54        mov         dword ptr [esp+54h],edx
  00404DF6: 89 44 24 58        mov         dword ptr [esp+58h],eax
  00404DFA: 8B 44 24 58        mov         eax,dword ptr [esp+58h]
  00404DFE: 85 C0              test        eax,eax
  00404E00: 0F 85 D3 E6 FF FF  jne         004034D9
  00404E06: E9 15 E3 FF FF     jmp         00403120
  00404E0B: 90                 nop
  00404E0C: 8D 74 26 00        lea         esi,[esi]
  00404E10: 8B 44 24 44        mov         eax,dword ptr [esp+44h]
  00404E14: 85 C0              test        eax,eax
  00404E16: 0F 85 A2 05 00 00  jne         004053BE
  00404E1C: 8B 44 24 54        mov         eax,dword ptr [esp+54h]
  00404E20: 8B 54 24 54        mov         edx,dword ptr [esp+54h]
  00404E24: 8B 00              mov         eax,dword ptr [eax]
  00404E26: 83 C2 04           add         edx,4
  00404E29: 89 54 24 54        mov         dword ptr [esp+54h],edx
  00404E2D: 89 44 24 68        mov         dword ptr [esp+68h],eax
  00404E31: 8B 7C 24 68        mov         edi,dword ptr [esp+68h]
  00404E35: 85 FF              test        edi,edi
  00404E37: 0F 85 9C E6 FF FF  jne         004034D9
  00404E3D: E9 DE E2 FF FF     jmp         00403120
  00404E42: 8B 54 24 34        mov         edx,dword ptr [esp+34h]
  00404E46: 8D 8C 24 A0 00 00  lea         ecx,[esp+0A0h]
            00
  00404E4D: 89 F8              mov         eax,edi
  00404E4F: C7 04 24 01 00 00  mov         dword ptr [esp],1
            00
  00404E56: 89 5C 24 68        mov         dword ptr [esp+68h],ebx
  00404E5A: 8B 5C 24 44        mov         ebx,dword ptr [esp+44h]
  00404E5E: E8 7D DD FF FF     call        00402BE0
  00404E63: E9 69 E4 FF FF     jmp         004032D1
  00404E68: 8B 8C 24 A8 00 00  mov         ecx,dword ptr [esp+0A8h]
            00
  00404E6F: 8D B4 24 A4 00 00  lea         esi,[esp+0A4h]
            00
  00404E76: 30 C0              xor         al,al
  00404E78: 89 F2              mov         edx,esi
  00404E7A: E8 C1 DA FF FF     call        00402940
  00404E7F: 89 FA              mov         edx,edi
  00404E81: 85 ED              test        ebp,ebp
  00404E83: 89 84 24 A8 00 00  mov         dword ptr [esp+0A8h],eax
            00
  00404E8A: 88 10              mov         byte ptr [eax],dl
  00404E8C: 0F 84 8E E2 FF FF  je          00403120
  00404E92: BF A7 02 41 00     mov         edi,4102A7h
  00404E97: 89 5C 24 40        mov         dword ptr [esp+40h],ebx
  00404E9B: 89 FB              mov         ebx,edi
  00404E9D: 89 74 24 30        mov         dword ptr [esp+30h],esi
  00404EA1: BE 01 00 00 00     mov         esi,1
  00404EA6: C7 44 24 74 01 00  mov         dword ptr [esp+74h],1
            00 00
  00404EAE: EB 08              jmp         00404EB8
  00404EB0: 85 ED              test        ebp,ebp
  00404EB2: 0F 84 68 E2 FF FF  je          00403120
  00404EB8: 8B 44 24 34        mov         eax,dword ptr [esp+34h]
  00404EBC: 8D 94 24 A0 00 00  lea         edx,[esp+0A0h]
            00
  00404EC3: E8 58 DC FF FF     call        00402B20
  00404EC8: 83 F8 FF           cmp         eax,0FFFFFFFFh
  00404ECB: 89 C7              mov         edi,eax
  00404ECD: 0F 84 4D E2 FF FF  je          00403120
  00404ED3: 89 04 24           mov         dword ptr [esp],eax
  00404ED6: E8 F5 90 00 00     call        0040DFD0
  00404EDB: 0F BE 13           movsx       edx,byte ptr [ebx]
  00404EDE: 39 D0              cmp         eax,edx
  00404EE0: 0F 85 3A E2 FF FF  jne         00403120
  00404EE6: 8B 8C 24 A8 00 00  mov         ecx,dword ptr [esp+0A8h]
            00
  00404EED: 31 C0              xor         eax,eax
  00404EEF: 85 ED              test        ebp,ebp
  00404EF1: 8B 54 24 30        mov         edx,dword ptr [esp+30h]
  00404EF5: 0F 9F C0           setg        al
  00404EF8: 83 C3 01           add         ebx,1
  00404EFB: 29 C5              sub         ebp,eax
  00404EFD: 89 F0              mov         eax,esi
  00404EFF: E8 3C DA FF FF     call        00402940
  00404F04: 89 F9              mov         ecx,edi
  00404F06: 89 84 24 A8 00 00  mov         dword ptr [esp+0A8h],eax
            00
  00404F0D: 88 0C 30           mov         byte ptr [eax+esi],cl
  00404F10: 83 C6 01           add         esi,1
  00404F13: 80 3B 00           cmp         byte ptr [ebx],0
  00404F16: 75 98              jne         00404EB0
  00404F18: 89 74 24 74        mov         dword ptr [esp+74h],esi
  00404F1C: 8B 5C 24 40        mov         ebx,dword ptr [esp+40h]
___pformat_xint:
  00404F20: 8B 74 24 30        mov         esi,dword ptr [esp+30h]
  00404F24: E9 F3 F5 FF FF     jmp         0040451C
  00404F29: 8B 8C 24 A8 00 00  mov         ecx,dword ptr [esp+0A8h]
            00
  00404F30: 8D B4 24 A4 00 00  lea         esi,[esp+0A4h]
            00
  00404F37: 30 C0              xor         al,al
  00404F39: 89 F2              mov         edx,esi
  00404F3B: E8 00 DA FF FF     call        00402940
  00404F40: 89 FA              mov         edx,edi
  00404F42: 85 ED              test        ebp,ebp
  00404F44: 89 84 24 A8 00 00  mov         dword ptr [esp+0A8h],eax
            00
  00404F4B: 88 10              mov         byte ptr [eax],dl
  00404F4D: 0F 84 CD E1 FF FF  je          00403120
  00404F53: BF AB 02 41 00     mov         edi,4102ABh
  00404F58: 89 5C 24 6C        mov         dword ptr [esp+6Ch],ebx
  00404F5C: 89 FB              mov         ebx,edi
  00404F5E: 89 74 24 40        mov         dword ptr [esp+40h],esi
  00404F62: BE 01 00 00 00     mov         esi,1
  00404F67: C7 44 24 30 01 00  mov         dword ptr [esp+30h],1
            00 00
  00404F6F: EB 0A              jmp         00404F7B
  00404F71: 85 ED              test        ebp,ebp
  00404F73: 0F 84 A7 E1 FF FF  je          00403120
  00404F79: 89 C6              mov         esi,eax
  00404F7B: 8B 44 24 34        mov         eax,dword ptr [esp+34h]
  00404F7F: 8D 94 24 A0 00 00  lea         edx,[esp+0A0h]
            00
  00404F86: E8 95 DB FF FF     call        00402B20
  00404F8B: 83 F8 FF           cmp         eax,0FFFFFFFFh
  00404F8E: 89 C7              mov         edi,eax
  00404F90: 0F 84 8A E1 FF FF  je          00403120
  00404F96: 89 04 24           mov         dword ptr [esp],eax
  00404F99: E8 32 90 00 00     call        0040DFD0
  00404F9E: 0F BE 13           movsx       edx,byte ptr [ebx]
  00404FA1: 39 D0              cmp         eax,edx
  00404FA3: 0F 85 77 E1 FF FF  jne         00403120
  00404FA9: 8B 8C 24 A8 00 00  mov         ecx,dword ptr [esp+0A8h]
            00
  00404FB0: 31 C0              xor         eax,eax
  00404FB2: 85 ED              test        ebp,ebp
  00404FB4: 8B 54 24 40        mov         edx,dword ptr [esp+40h]
  00404FB8: 0F 9F C0           setg        al
  00404FBB: 83 C3 01           add         ebx,1
  00404FBE: 29 C5              sub         ebp,eax
  00404FC0: 89 F0              mov         eax,esi
  00404FC2: E8 79 D9 FF FF     call        00402940
  00404FC7: 89 F9              mov         ecx,edi
  00404FC9: 89 84 24 A8 00 00  mov         dword ptr [esp+0A8h],eax
            00
  00404FD0: 88 0C 30           mov         byte ptr [eax+esi],cl
  00404FD3: 8D 46 01           lea         eax,[esi+1]
  00404FD6: 80 3B 00           cmp         byte ptr [ebx],0
  00404FD9: 75 96              jne         00404F71
  00404FDB: 85 ED              test        ebp,ebp
  00404FDD: 8B 5C 24 6C        mov         ebx,dword ptr [esp+6Ch]
  00404FE1: 89 74 24 30        mov         dword ptr [esp+30h],esi
  00404FE5: 8B 74 24 40        mov         esi,dword ptr [esp+40h]
  00404FE9: 89 44 24 74        mov         dword ptr [esp+74h],eax
  00404FED: 0F 84 29 F5 FF FF  je          0040451C
  00404FF3: 8B 44 24 34        mov         eax,dword ptr [esp+34h]
  00404FF7: 8D 94 24 A0 00 00  lea         edx,[esp+0A0h]
            00
  00404FFE: E8 1D DB FF FF     call        00402B20
  00405003: 83 F8 FF           cmp         eax,0FFFFFFFFh
  00405006: 89 C7              mov         edi,eax
  00405008: 0F 84 0E F5 FF FF  je          0040451C
  0040500E: 89 04 24           mov         dword ptr [esp],eax
  00405011: E8 BA 8F 00 00     call        0040DFD0
  00405016: 83 F8 69           cmp         eax,69h
  00405019: 0F 84 0A 07 00 00  je          00405729
  0040501F: 8B 54 24 34        mov         edx,dword ptr [esp+34h]
  00405023: 8D 8C 24 A0 00 00  lea         ecx,[esp+0A0h]
            00
  0040502A: 89 F8              mov         eax,edi
  0040502C: C7 04 24 00 00 00  mov         dword ptr [esp],0
            00
  00405033: E8 A8 DB FF FF     call        00402BE0
  00405038: E9 DF F4 FF FF     jmp         0040451C
  0040503D: 8D 76 00           lea         esi,[esi]
  00405040: 66 C7 07 00 00     mov         word ptr [edi],0
  00405045: 83 EA 02           sub         edx,2
  00405048: 83 C7 02           add         edi,2
  0040504B: E9 E0 E4 FF FF     jmp         00403530
  00405050: 8B 54 24 44        mov         edx,dword ptr [esp+44h]
  00405054: 8B 44 24 5C        mov         eax,dword ptr [esp+5Ch]
  00405058: E8 63 D9 FF FF     call        004029C0
  0040505D: 89 44 24 4C        mov         dword ptr [esp+4Ch],eax
  00405061: E9 EF EF FF FF     jmp         00404055
  00405066: 8B 54 24 64        mov         edx,dword ptr [esp+64h]
  0040506A: 8B 7C 24 64        mov         edi,dword ptr [esp+64h]
  0040506E: 89 74 24 68        mov         dword ptr [esp+68h],esi
  00405072: 01 D2              add         edx,edx
  00405074: 83 C7 01           add         edi,1
  00405077: 89 FE              mov         esi,edi
  00405079: 89 DF              mov         edi,ebx
  0040507B: 89 D3              mov         ebx,edx
  0040507D: EB 08              jmp         00405087
  0040507F: 8B 4C 24 4C        mov         ecx,dword ptr [esp+4Ch]
  00405083: 89 F3              mov         ebx,esi
  00405085: 8B 01              mov         eax,dword ptr [ecx]
  00405087: 89 5C 24 04        mov         dword ptr [esp+4],ebx
  0040508B: 89 04 24           mov         dword ptr [esp],eax
  0040508E: E8 0D 8F 00 00     call        0040DFA0
  00405093: 85 C0              test        eax,eax
  00405095: 0F 85 9C 03 00 00  jne         00405437
  0040509B: 39 F3              cmp         ebx,esi
  0040509D: 77 E0              ja          0040507F
  0040509F: 90                 nop
  004050A0: E9 30 FC FF FF     jmp         00404CD5
  004050A5: 8B 54 24 44        mov         edx,dword ptr [esp+44h]
  004050A9: 8B 44 24 5C        mov         eax,dword ptr [esp+5Ch]
  004050AD: E8 0E D9 FF FF     call        004029C0
  004050B2: 89 44 24 4C        mov         dword ptr [esp+4Ch],eax
  004050B6: E9 7A E7 FF FF     jmp         00403835
  004050BB: 8B 54 24 44        mov         edx,dword ptr [esp+44h]
  004050BF: 8B 44 24 5C        mov         eax,dword ptr [esp+5Ch]
  004050C3: E8 F8 D8 FF FF     call        004029C0
  004050C8: 89 44 24 4C        mov         dword ptr [esp+4Ch],eax
  004050CC: E9 1C E1 FF FF     jmp         004031ED
  004050D1: 8B 54 24 44        mov         edx,dword ptr [esp+44h]
  004050D5: 8B 44 24 5C        mov         eax,dword ptr [esp+5Ch]
  004050D9: E8 E2 D8 FF FF     call        004029C0
  004050DE: 89 44 24 68        mov         dword ptr [esp+68h],eax
  004050E2: E9 D3 EE FF FF     jmp         00403FBA
  004050E7: 8B 54 24 44        mov         edx,dword ptr [esp+44h]
  004050EB: 8B 44 24 5C        mov         eax,dword ptr [esp+5Ch]
  004050EF: E8 CC D8 FF FF     call        004029C0
  004050F4: 89 44 24 4C        mov         dword ptr [esp+4Ch],eax
  004050F8: E9 8C E8 FF FF     jmp         00403989
  004050FD: F6 44 24 38 04     test        byte ptr [esp+38h],4
  00405102: 0F 85 E7 00 00 00  jne         004051EF
  00405108: F6 44 24 38 02     test        byte ptr [esp+38h],2
  0040510D: 0F 84 57 03 00 00  je          0040546A
  00405113: 8B 44 24 44        mov         eax,dword ptr [esp+44h]
  00405117: 85 C0              test        eax,eax
  00405119: 0F 85 93 05 00 00  jne         004056B2
  0040511F: 8B 54 24 54        mov         edx,dword ptr [esp+54h]
  00405123: 8B 02              mov         eax,dword ptr [edx]
  00405125: 83 C2 04           add         edx,4
  00405128: 89 54 24 54        mov         dword ptr [esp+54h],edx
  0040512C: 66 89 30           mov         word ptr [eax],si
  0040512F: E9 AE E6 FF FF     jmp         004037E2
  00405134: 8B 54 24 44        mov         edx,dword ptr [esp+44h]
  00405138: 8B 44 24 5C        mov         eax,dword ptr [esp+5Ch]
  0040513C: E8 7F D8 FF FF     call        004029C0
  00405141: 89 44 24 68        mov         dword ptr [esp+68h],eax
  00405145: E9 73 E2 FF FF     jmp         004033BD
  0040514A: F6 44 24 38 04     test        byte ptr [esp+38h],4
  0040514F: 75 6C              jne         004051BD
  00405151: F6 44 24 38 02     test        byte ptr [esp+38h],2
  00405156: 0F 84 7E 04 00 00  je          004055DA
  0040515C: 8B 44 24 44        mov         eax,dword ptr [esp+44h]
  00405160: 85 C0              test        eax,eax
  00405162: 0F 85 4A 05 00 00  jne         004056B2
  00405168: 8B 4C 24 54        mov         ecx,dword ptr [esp+54h]
  0040516C: 8B 01              mov         eax,dword ptr [ecx]
  0040516E: 83 C1 04           add         ecx,4
  00405171: 89 4C 24 54        mov         dword ptr [esp+54h],ecx
  00405175: EB B5              jmp         0040512C
  00405177: 8B 54 24 44        mov         edx,dword ptr [esp+44h]
  0040517B: 8B 44 24 5C        mov         eax,dword ptr [esp+5Ch]
  0040517F: E8 3C D8 FF FF     call        004029C0
  00405184: 89 44 24 58        mov         dword ptr [esp+58h],eax
  00405188: E9 64 EE FF FF     jmp         00403FF1
  0040518D: 8B 54 24 44        mov         edx,dword ptr [esp+44h]
  00405191: 8B 44 24 5C        mov         eax,dword ptr [esp+5Ch]
  00405195: E8 26 D8 FF FF     call        004029C0
  0040519A: 89 44 24 58        mov         dword ptr [esp+58h],eax
  0040519E: E9 80 EE FF FF     jmp         00404023
  004051A3: C6 00 00           mov         byte ptr [eax],0
  004051A6: 83 C7 01           add         edi,1
  004051A9: 66 BA FF 00        mov         dx,0FFh
  004051AD: E9 72 E3 FF FF     jmp         00403524
  004051B2: 89 F8              mov         eax,edi
  004051B4: 8B 74 24 60        mov         esi,dword ptr [esp+60h]
  004051B8: E9 A2 F1 FF FF     jmp         0040435F
  004051BD: 8B 4C 24 44        mov         ecx,dword ptr [esp+44h]
  004051C1: 85 C9              test        ecx,ecx
  004051C3: 0F 85 D9 00 00 00  jne         004052A2
  004051C9: 8B 54 24 54        mov         edx,dword ptr [esp+54h]
  004051CD: 8B 02              mov         eax,dword ptr [edx]
  004051CF: 83 C2 04           add         edx,4
  004051D2: 89 54 24 54        mov         dword ptr [esp+54h],edx
  004051D6: 89 30              mov         dword ptr [eax],esi
  004051D8: E9 05 E6 FF FF     jmp         004037E2
  004051DD: 8B 54 24 44        mov         edx,dword ptr [esp+44h]
  004051E1: 8B 44 24 5C        mov         eax,dword ptr [esp+5Ch]
  004051E5: E8 D6 D7 FF FF     call        004029C0
  004051EA: E9 5A E1 FF FF     jmp         00403349
  004051EF: 8B 44 24 44        mov         eax,dword ptr [esp+44h]
  004051F3: 85 C0              test        eax,eax
  004051F5: 0F 85 A7 00 00 00  jne         004052A2
  004051FB: 8B 4C 24 54        mov         ecx,dword ptr [esp+54h]
  004051FF: 8B 01              mov         eax,dword ptr [ecx]
  00405201: 83 C1 04           add         ecx,4
  00405204: 89 4C 24 54        mov         dword ptr [esp+54h],ecx
  00405208: 89 30              mov         dword ptr [eax],esi
  0040520A: E9 D3 E5 FF FF     jmp         004037E2
  0040520F: 8B 54 24 34        mov         edx,dword ptr [esp+34h]
  00405213: 8D 8C 24 A0 00 00  lea         ecx,[esp+0A0h]
            00
  0040521A: 89 7C 24 68        mov         dword ptr [esp+68h],edi
  0040521E: 89 DF              mov         edi,ebx
  00405220: 8B 5C 24 40        mov         ebx,dword ptr [esp+40h]
  00405224: C7 04 24 01 00 00  mov         dword ptr [esp],1
            00
  0040522B: 89 F8              mov         eax,edi
  0040522D: E8 AE D9 FF FF     call        00402BE0
  00405232: E9 CE F5 FF FF     jmp         00404805
  00405237: 89 FE              mov         esi,edi
  00405239: 89 D7              mov         edi,edx
  0040523B: 8B 54 24 34        mov         edx,dword ptr [esp+34h]
  0040523F: C7 04 24 01 00 00  mov         dword ptr [esp],1
            00
  00405246: 8D 8C 24 A0 00 00  lea         ecx,[esp+0A0h]
            00
  0040524D: 89 F8              mov         eax,edi
  0040524F: 8B 5C 24 44        mov         ebx,dword ptr [esp+44h]
  00405253: E8 88 D9 FF FF     call        00402BE0
  00405258: E9 B2 F7 FF FF     jmp         00404A0F
  0040525D: F6 44 24 38 01     test        byte ptr [esp+38h],1
  00405262: 0F 84 22 01 00 00  je          0040538A
  00405268: 8B 44 24 44        mov         eax,dword ptr [esp+44h]
  0040526C: 85 C0              test        eax,eax
  0040526E: 0F 85 50 04 00 00  jne         004056C4
  00405274: 8B 54 24 54        mov         edx,dword ptr [esp+54h]
  00405278: 8B 02              mov         eax,dword ptr [edx]
  0040527A: 83 C2 04           add         edx,4
  0040527D: 89 54 24 54        mov         dword ptr [esp+54h],edx
  00405281: 8B 94 24 A0 00 00  mov         edx,dword ptr [esp+0A0h]
            00
  00405288: 89 DE              mov         esi,ebx
  0040528A: C7 44 24 30 00 00  mov         dword ptr [esp+30h],0
            00 00
  00405292: 88 10              mov         byte ptr [eax],dl
  00405294: E9 7A DA FF FF     jmp         00402D13
  00405299: 89 FB              mov         ebx,edi
  0040529B: 89 CF              mov         edi,ecx
  0040529D: E9 1C E9 FF FF     jmp         00403BBE
  004052A2: 8B 54 24 44        mov         edx,dword ptr [esp+44h]
  004052A6: 8B 44 24 5C        mov         eax,dword ptr [esp+5Ch]
  004052AA: E8 11 D7 FF FF     call        004029C0
  004052AF: 89 30              mov         dword ptr [eax],esi
  004052B1: E9 2C E5 FF FF     jmp         004037E2
  004052B6: 83 7C 24 50 10     cmp         dword ptr [esp+50h],10h
  004052BB: 0F 85 C6 E3 FF FF  jne         00403687
  004052C1: E9 89 F9 FF FF     jmp         00404C4F
  004052C6: 89 FA              mov         edx,edi
  004052C8: 8B 4C 24 4C        mov         ecx,dword ptr [esp+4Ch]
  004052CC: 89 F7              mov         edi,esi
  004052CE: 8B 74 24 44        mov         esi,dword ptr [esp+44h]
  004052D2: 89 01              mov         dword ptr [ecx],eax
  004052D4: 8D 1C 30           lea         ebx,[eax+esi]
  004052D7: 89 FE              mov         esi,edi
  004052D9: E9 29 E1 FF FF     jmp         00403407
  004052DE: 8B 8C 24 A8 00 00  mov         ecx,dword ptr [esp+0A8h]
            00
  004052E5: 8D B4 24 A4 00 00  lea         esi,[esp+0A4h]
            00
  004052EC: 31 C0              xor         eax,eax
  004052EE: 89 F2              mov         edx,esi
  004052F0: E8 4B D6 FF FF     call        00402940
  004052F5: C7 44 24 30 01 00  mov         dword ptr [esp+30h],1
            00 00
  004052FD: 89 84 24 A8 00 00  mov         dword ptr [esp+0A8h],eax
            00
  00405304: C6 00 30           mov         byte ptr [eax],30h
  00405307: E9 13 E4 FF FF     jmp         0040371F
  0040530C: 8B 8C 24 A8 00 00  mov         ecx,dword ptr [esp+0A8h]
            00
  00405313: 8D B4 24 A4 00 00  lea         esi,[esp+0A4h]
            00
  0040531A: 31 C0              xor         eax,eax
  0040531C: 89 F2              mov         edx,esi
  0040531E: E8 1D D6 FF FF     call        00402940
  00405323: 8D 94 24 A0 00 00  lea         edx,[esp+0A0h]
            00
  0040532A: 89 84 24 A8 00 00  mov         dword ptr [esp+0A8h],eax
            00
  00405331: C6 00 30           mov         byte ptr [eax],30h
  00405334: 8B 44 24 34        mov         eax,dword ptr [esp+34h]
  00405338: E8 E3 D7 FF FF     call        00402B20
  0040533D: 85 ED              test        ebp,ebp
  0040533F: 89 C7              mov         edi,eax
  00405341: 0F 8E FE 01 00 00  jle         00405545
  00405347: 83 ED 01           sub         ebp,1
  0040534A: 0F 85 F5 01 00 00  jne         00405545
  00405350: C7 44 24 74 01 00  mov         dword ptr [esp+74h],1
            00 00
  00405358: E9 CB E7 FF FF     jmp         00403B28
  0040535D: 8B 5C 24 4C        mov         ebx,dword ptr [esp+4Ch]
  00405361: 89 F1              mov         ecx,esi
  00405363: 8B 74 24 40        mov         esi,dword ptr [esp+40h]
  00405367: 89 03              mov         dword ptr [ebx],eax
  00405369: 8B 5C 24 64        mov         ebx,dword ptr [esp+64h]
  0040536D: 89 4C 24 64        mov         dword ptr [esp+64h],ecx
  00405371: 01 C3              add         ebx,eax
  00405373: E9 31 DF FF FF     jmp         004032A9
  00405378: 89 FB              mov         ebx,edi
  0040537A: 89 CF              mov         edi,ecx
  0040537C: E9 45 E8 FF FF     jmp         00403BC6
  00405381: 89 FB              mov         ebx,edi
  00405383: 89 C7              mov         edi,eax
  00405385: E9 34 E8 FF FF     jmp         00403BBE
  0040538A: 8B 44 24 44        mov         eax,dword ptr [esp+44h]
  0040538E: 85 C0              test        eax,eax
  00405390: 0F 85 71 01 00 00  jne         00405507
  00405396: 8B 4C 24 54        mov         ecx,dword ptr [esp+54h]
  0040539A: 8B 01              mov         eax,dword ptr [ecx]
  0040539C: 83 C1 04           add         ecx,4
  0040539F: 89 4C 24 54        mov         dword ptr [esp+54h],ecx
  004053A3: E9 74 F7 FF FF     jmp         00404B1C
  004053A8: 8B 54 24 44        mov         edx,dword ptr [esp+44h]
  004053AC: 8B 44 24 5C        mov         eax,dword ptr [esp+5Ch]
  004053B0: E8 0B D6 FF FF     call        004029C0
  004053B5: 8B 54 24 54        mov         edx,dword ptr [esp+54h]
  004053B9: E9 FE F9 FF FF     jmp         00404DBC
  004053BE: 8B 54 24 44        mov         edx,dword ptr [esp+44h]
  004053C2: 8B 44 24 5C        mov         eax,dword ptr [esp+5Ch]
  004053C6: E8 F5 D5 FF FF     call        004029C0
  004053CB: 89 44 24 68        mov         dword ptr [esp+68h],eax
  004053CF: E9 5D FA FF FF     jmp         00404E31
  004053D4: 8B 54 24 44        mov         edx,dword ptr [esp+44h]
  004053D8: 8B 44 24 5C        mov         eax,dword ptr [esp+5Ch]
  004053DC: E8 DF D5 FF FF     call        004029C0
  004053E1: 89 44 24 4C        mov         dword ptr [esp+4Ch],eax
  004053E5: E9 9B E0 FF FF     jmp         00403485
  004053EA: 8B 54 24 44        mov         edx,dword ptr [esp+44h]
  004053EE: 8B 44 24 5C        mov         eax,dword ptr [esp+5Ch]
  004053F2: E8 C9 D5 FF FF     call        004029C0
  004053F7: 89 44 24 58        mov         dword ptr [esp+58h],eax
  004053FB: E9 FA F9 FF FF     jmp         00404DFA
  00405400: 8B 54 24 44        mov         edx,dword ptr [esp+44h]
  00405404: 8B 44 24 5C        mov         eax,dword ptr [esp+5Ch]
  00405408: E8 B3 D5 FF FF     call        004029C0
  0040540D: E9 C4 E3 FF FF     jmp         004037D6
  00405412: 8B 44 24 3C        mov         eax,dword ptr [esp+3Ch]
  00405416: 31 D2              xor         edx,edx
  00405418: E9 A7 EF FF FF     jmp         004043C4
  0040541D: 8B 54 24 44        mov         edx,dword ptr [esp+44h]
  00405421: 8B 44 24 5C        mov         eax,dword ptr [esp+5Ch]
  00405425: DB 7C 24 20        fstp        tbyte ptr [esp+20h]
  00405429: E8 92 D5 FF FF     call        004029C0
  0040542E: DB 6C 24 20        fld         tbyte ptr [esp+20h]
  00405432: E9 6E F1 FF FF     jmp         004045A5
  00405437: 89 DA              mov         edx,ebx
  00405439: 8B 4C 24 4C        mov         ecx,dword ptr [esp+4Ch]
  0040543D: 89 FB              mov         ebx,edi
  0040543F: 8B 7C 24 64        mov         edi,dword ptr [esp+64h]
  00405443: 8B 74 24 68        mov         esi,dword ptr [esp+68h]
  00405447: 89 54 24 64        mov         dword ptr [esp+64h],edx
  0040544B: 89 01              mov         dword ptr [ecx],eax
  0040544D: 01 C7              add         edi,eax
  0040544F: E9 89 F3 FF FF     jmp         004047DD
  00405454: 8B 54 24 44        mov         edx,dword ptr [esp+44h]
  00405458: 8B 44 24 5C        mov         eax,dword ptr [esp+5Ch]
  0040545C: E8 5F D5 FF FF     call        004029C0
  00405461: 89 44 24 4C        mov         dword ptr [esp+4Ch],eax
  00405465: E9 A6 EA FF FF     jmp         00403F10
  0040546A: F6 44 24 38 01     test        byte ptr [esp+38h],1
  0040546F: 0F 84 7A FD FF FF  je          004051EF
  00405475: 8B 44 24 44        mov         eax,dword ptr [esp+44h]
  00405479: 85 C0              test        eax,eax
  0040547B: 0F 85 9B 01 00 00  jne         0040561C
  00405481: 8B 4C 24 54        mov         ecx,dword ptr [esp+54h]
  00405485: 8B 01              mov         eax,dword ptr [ecx]
  00405487: 83 C1 04           add         ecx,4
  0040548A: 89 4C 24 54        mov         dword ptr [esp+54h],ecx
  0040548E: 89 F2              mov         edx,esi
  00405490: 88 10              mov         byte ptr [eax],dl
  00405492: E9 4B E3 FF FF     jmp         004037E2
  00405497: 8B 54 24 34        mov         edx,dword ptr [esp+34h]
  0040549B: 89 DF              mov         edi,ebx
  0040549D: C7 04 24 01 00 00  mov         dword ptr [esp],1
            00
  004054A4: 8D 8C 24 A0 00 00  lea         ecx,[esp+0A0h]
            00
  004054AB: 89 F8              mov         eax,edi
  004054AD: 89 6C 24 58        mov         dword ptr [esp+58h],ebp
  004054B1: 8B 5C 24 44        mov         ebx,dword ptr [esp+44h]
  004054B5: E8 26 D7 FF FF     call        00402BE0
  004054BA: E9 1D F5 FF FF     jmp         004049DC
  004054BF: 8B 6C 24 64        mov         ebp,dword ptr [esp+64h]
  004054C3: 89 D7              mov         edi,edx
  004054C5: 83 C5 01           add         ebp,1
  004054C8: EB 10              jmp         004054DA
  004054CA: 39 EF              cmp         edi,ebp
  004054CC: 0F 86 04 02 00 00  jbe         004056D6
  004054D2: 8B 44 24 4C        mov         eax,dword ptr [esp+4Ch]
  004054D6: 89 EF              mov         edi,ebp
  004054D8: 8B 08              mov         ecx,dword ptr [eax]
  004054DA: 8D 04 3F           lea         eax,[edi+edi]
  004054DD: 89 44 24 04        mov         dword ptr [esp+4],eax
  004054E1: 89 0C 24           mov         dword ptr [esp],ecx
  004054E4: 89 54 24 20        mov         dword ptr [esp+20h],edx
  004054E8: E8 B3 8A 00 00     call        0040DFA0
  004054ED: 8B 54 24 20        mov         edx,dword ptr [esp+20h]
  004054F1: 85 C0              test        eax,eax
  004054F3: 74 D5              je          004054CA
  004054F5: 8B 4C 24 4C        mov         ecx,dword ptr [esp+4Ch]
  004054F9: 8D 2C 10           lea         ebp,[eax+edx]
  004054FC: 89 7C 24 64        mov         dword ptr [esp+64h],edi
  00405500: 89 01              mov         dword ptr [ecx],eax
  00405502: E9 A1 F4 FF FF     jmp         004049A8
  00405507: 8B 54 24 44        mov         edx,dword ptr [esp+44h]
  0040550B: 8B 44 24 5C        mov         eax,dword ptr [esp+5Ch]
  0040550F: E8 AC D4 FF FF     call        004029C0
  00405514: E9 03 F6 FF FF     jmp         00404B1C
  00405519: 8B 54 24 44        mov         edx,dword ptr [esp+44h]
  0040551D: 8B 44 24 5C        mov         eax,dword ptr [esp+5Ch]
  00405521: E8 9A D4 FF FF     call        004029C0
  00405526: E9 B5 F6 FF FF     jmp         00404BE0
  0040552B: 8B 54 24 44        mov         edx,dword ptr [esp+44h]
  0040552F: D9 5C 24 20        fstp        dword ptr [esp+20h]
  00405533: 8B 44 24 5C        mov         eax,dword ptr [esp+5Ch]
  00405537: E8 84 D4 FF FF     call        004029C0
  0040553C: D9 44 24 20        fld         dword ptr [esp+20h]
  00405540: E9 87 F5 FF FF     jmp         00404ACC
  00405545: 89 3C 24           mov         dword ptr [esp],edi
  00405548: E8 83 8A 00 00     call        0040DFD0
  0040554D: C6 44 24 70 65     mov         byte ptr [esp+70h],65h
  00405552: C7 44 24 74 01 00  mov         dword ptr [esp+74h],1
            00 00
  0040555A: 83 F8 78           cmp         eax,78h
  0040555D: 0F 85 C5 E5 FF FF  jne         00403B28
  00405563: 8B 8C 24 A8 00 00  mov         ecx,dword ptr [esp+0A8h]
            00
  0040556A: 89 F2              mov         edx,esi
  0040556C: B0 01              mov         al,1
  0040556E: E8 CD D3 FF FF     call        00402940
  00405573: 89 FA              mov         edx,edi
  00405575: 81 64 24 38 FF FE  and         dword ptr [esp+38h],0FFFFFEFFh
            FF FF
  0040557D: 83 4C 24 38 40     or          dword ptr [esp+38h],40h
  00405582: 89 84 24 A8 00 00  mov         dword ptr [esp+0A8h],eax
            00
  00405589: 88 50 01           mov         byte ptr [eax+1],dl
  0040558C: 8B 44 24 34        mov         eax,dword ptr [esp+34h]
  00405590: 8D 94 24 A0 00 00  lea         edx,[esp+0A0h]
            00
  00405597: E8 84 D5 FF FF     call        00402B20
  0040559C: 85 ED              test        ebp,ebp
  0040559E: 89 C7              mov         edi,eax
  004055A0: 0F 8E FA 00 00 00  jle         004056A0
  004055A6: 83 ED 01           sub         ebp,1
  004055A9: C6 44 24 70 70     mov         byte ptr [esp+70h],70h
  004055AE: C7 44 24 74 02 00  mov         dword ptr [esp+74h],2
            00 00
  004055B6: E9 6D E5 FF FF     jmp         00403B28
  004055BB: 90                 nop
  004055BC: 8D 74 26 00        lea         esi,[esi]
  004055C0: 8B 54 24 44        mov         edx,dword ptr [esp+44h]
  004055C4: 8B 44 24 5C        mov         eax,dword ptr [esp+5Ch]
  004055C8: DB 7C 24 20        fstp        tbyte ptr [esp+20h]
  004055CC: E8 EF D3 FF FF     call        004029C0
  004055D1: DB 6C 24 20        fld         tbyte ptr [esp+20h]
  004055D5: E9 A5 F5 FF FF     jmp         00404B7F
  004055DA: F6 44 24 38 01     test        byte ptr [esp+38h],1
  004055DF: 0F 84 D8 FB FF FF  je          004051BD
  004055E5: 8B 6C 24 44        mov         ebp,dword ptr [esp+44h]
  004055E9: 85 ED              test        ebp,ebp
  004055EB: 75 41              jne         0040562E
  004055ED: 8B 54 24 54        mov         edx,dword ptr [esp+54h]
  004055F1: 8B 02              mov         eax,dword ptr [edx]
  004055F3: 83 C2 04           add         edx,4
  004055F6: 89 54 24 54        mov         dword ptr [esp+54h],edx
  004055FA: 89 F1              mov         ecx,esi
  004055FC: 88 08              mov         byte ptr [eax],cl
  004055FE: E9 DF E1 FF FF     jmp         004037E2
  00405603: 8B 4C 24 4C        mov         ecx,dword ptr [esp+4Ch]
  00405607: 89 7C 24 64        mov         dword ptr [esp+64h],edi
  0040560B: 31 FF              xor         edi,edi
  0040560D: 89 01              mov         dword ptr [ecx],eax
  0040560F: 03 44 24 30        add         eax,dword ptr [esp+30h]
  00405613: 89 44 24 58        mov         dword ptr [esp+58h],eax
  00405617: E9 4B F0 FF FF     jmp         00404667
  0040561C: 8B 54 24 44        mov         edx,dword ptr [esp+44h]
  00405620: 8B 44 24 5C        mov         eax,dword ptr [esp+5Ch]
  00405624: E8 97 D3 FF FF     call        004029C0
  00405629: E9 60 FE FF FF     jmp         0040548E
  0040562E: 8B 54 24 44        mov         edx,dword ptr [esp+44h]
  00405632: 8B 44 24 5C        mov         eax,dword ptr [esp+5Ch]
  00405636: E8 85 D3 FF FF     call        004029C0
  0040563B: EB BD              jmp         004055FA
  0040563D: 8B 44 24 34        mov         eax,dword ptr [esp+34h]
  00405641: 8D 94 24 A0 00 00  lea         edx,[esp+0A0h]
            00
  00405648: E8 D3 D4 FF FF     call        00402B20
  0040564D: 83 F8 FF           cmp         eax,0FFFFFFFFh
  00405650: 89 C7              mov         edi,eax
  00405652: 0F 84 BF E7 FF FF  je          00403E17
  00405658: 8B 74 24 34        mov         esi,dword ptr [esp+34h]
  0040565C: 89 F8              mov         eax,edi
  0040565E: 83 ED 01           sub         ebp,1
  00405661: 85 ED              test        ebp,ebp
  00405663: 7E 13              jle         00405678
  00405665: 8D 94 24 A0 00 00  lea         edx,[esp+0A0h]
            00
  0040566C: 89 F0              mov         eax,esi
  0040566E: E8 AD D4 FF FF     call        00402B20
  00405673: 83 F8 FF           cmp         eax,0FFFFFFFFh
  00405676: 75 E6              jne         0040565E
  00405678: 89 C7              mov         edi,eax
  0040567A: E9 81 D9 FF FF     jmp         00403000
  0040567F: 8D 84 24 A8 00 00  lea         eax,[esp+0A8h]
            00
  00405686: 31 C9              xor         ecx,ecx
  00405688: 89 04 24           mov         dword ptr [esp],eax
  0040568B: 8B 44 24 48        mov         eax,dword ptr [esp+48h]
  0040568F: 8D 94 24 9C 00 00  lea         edx,[esp+9Ch]
            00
  00405696: E8 F5 D3 FF FF     call        00402A90
  0040569B: E9 9E DA FF FF     jmp         0040313E
  004056A0: C6 44 24 70 70     mov         byte ptr [esp+70h],70h
  004056A5: C7 44 24 74 02 00  mov         dword ptr [esp+74h],2
            00 00
  004056AD: E9 76 E4 FF FF     jmp         00403B28
  004056B2: 8B 54 24 44        mov         edx,dword ptr [esp+44h]
  004056B6: 8B 44 24 5C        mov         eax,dword ptr [esp+5Ch]
  004056BA: E8 01 D3 FF FF     call        004029C0
  004056BF: E9 68 FA FF FF     jmp         0040512C
  004056C4: 8B 54 24 44        mov         edx,dword ptr [esp+44h]
  004056C8: 8B 44 24 5C        mov         eax,dword ptr [esp+5Ch]
  004056CC: E8 EF D2 FF FF     call        004029C0
  004056D1: E9 AB FB FF FF     jmp         00405281
  004056D6: F7 44 24 38 00 04  test        dword ptr [esp+38h],400h
            00 00
  004056DE: B8 FF FF FF FF     mov         eax,0FFFFFFFFh
  004056E3: 0F 85 19 F6 FF FF  jne         00404D02
  004056E9: 8B 4C 24 4C        mov         ecx,dword ptr [esp+4Ch]
  004056ED: 8B 5C 24 64        mov         ebx,dword ptr [esp+64h]
  004056F1: 8B 01              mov         eax,dword ptr [ecx]
  004056F3: 66 C7 44 58 FE 00  mov         word ptr [eax+ebx*2-2],0
            00
  004056FA: 8B 44 24 48        mov         eax,dword ptr [esp+48h]
  004056FE: C7 44 24 4C 00 00  mov         dword ptr [esp+4Ch],0
            00 00
  00405706: 83 C0 01           add         eax,1
  00405709: E9 F4 F5 FF FF     jmp         00404D02
  0040570E: 8B 54 24 60        mov         edx,dword ptr [esp+60h]
  00405712: 0F B6 0A           movzx       ecx,byte ptr [edx]
  00405715: 89 C7              mov         edi,eax
  00405717: E9 87 EB FF FF     jmp         004042A3
  0040571C: 89 DF              mov         edi,ebx
  0040571E: 8B 5C 24 70        mov         ebx,dword ptr [esp+70h]
  00405722: 89 F8              mov         eax,edi
  00405724: E9 35 ED FF FF     jmp         0040445E
  00405729: 31 C0              xor         eax,eax
  0040572B: 85 ED              test        ebp,ebp
  0040572D: 8B 8C 24 A8 00 00  mov         ecx,dword ptr [esp+0A8h]
            00
  00405734: 0F 9F C0           setg        al
  00405737: 89 F2              mov         edx,esi
  00405739: 29 C5              sub         ebp,eax
  0040573B: 8B 44 24 74        mov         eax,dword ptr [esp+74h]
  0040573F: E8 FC D1 FF FF     call        00402940
  00405744: 8B 4C 24 74        mov         ecx,dword ptr [esp+74h]
  00405748: 89 FA              mov         edx,edi
  0040574A: 89 84 24 A8 00 00  mov         dword ptr [esp+0A8h],eax
            00
  00405751: 88 14 08           mov         byte ptr [eax+ecx],dl
  00405754: 8B 44 24 30        mov         eax,dword ptr [esp+30h]
  00405758: 83 C0 02           add         eax,2
  0040575B: 85 ED              test        ebp,ebp
  0040575D: 89 44 24 74        mov         dword ptr [esp+74h],eax
  00405761: 0F 84 B9 D9 FF FF  je          00403120
  00405767: C7 44 24 30 AF 02  mov         dword ptr [esp+30h],4102AFh
            41 00
  0040576F: EB 63              jmp         004057D4
  00405771: 89 04 24           mov         dword ptr [esp],eax
  00405774: E8 57 88 00 00     call        0040DFD0
  00405779: 8B 4C 24 30        mov         ecx,dword ptr [esp+30h]
  0040577D: 0F BE 11           movsx       edx,byte ptr [ecx]
  00405780: 39 D0              cmp         eax,edx
  00405782: 0F 85 98 D9 FF FF  jne         00403120
  00405788: 31 C0              xor         eax,eax
  0040578A: 85 ED              test        ebp,ebp
  0040578C: 8B 8C 24 A8 00 00  mov         ecx,dword ptr [esp+0A8h]
            00
  00405793: 0F 9F C0           setg        al
  00405796: 89 F2              mov         edx,esi
  00405798: 29 C5              sub         ebp,eax
  0040579A: 8B 44 24 74        mov         eax,dword ptr [esp+74h]
  0040579E: E8 9D D1 FF FF     call        00402940
  004057A3: 8B 4C 24 74        mov         ecx,dword ptr [esp+74h]
  004057A7: 89 FA              mov         edx,edi
  004057A9: 83 44 24 30 01     add         dword ptr [esp+30h],1
  004057AE: 89 84 24 A8 00 00  mov         dword ptr [esp+0A8h],eax
            00
  004057B5: 88 14 08           mov         byte ptr [eax+ecx],dl
  004057B8: 8B 44 24 30        mov         eax,dword ptr [esp+30h]
  004057BC: 83 C1 01           add         ecx,1
  004057BF: 89 4C 24 74        mov         dword ptr [esp+74h],ecx
  004057C3: 80 38 00           cmp         byte ptr [eax],0
  004057C6: 0F 84 50 ED FF FF  je          0040451C
  004057CC: 85 ED              test        ebp,ebp
  004057CE: 0F 84 4C D9 FF FF  je          00403120
  004057D4: 8B 44 24 34        mov         eax,dword ptr [esp+34h]
  004057D8: 8D 94 24 A0 00 00  lea         edx,[esp+0A0h]
            00
  004057DF: E8 3C D3 FF FF     call        00402B20
  004057E4: 83 F8 FF           cmp         eax,0FFFFFFFFh
  004057E7: 89 C7              mov         edi,eax
  004057E9: 75 86              jne         00405771
  004057EB: E9 30 D9 FF FF     jmp         00403120
  004057F0: B8 1C 10 00 00     mov         eax,101Ch
  004057F5: E8 BE CF FF FF     call        004027B8
  004057FA: B9 04 04 00 00     mov         ecx,404h
  004057FF: 29 C4              sub         esp,eax
  00405801: 31 C0              xor         eax,eax
  00405803: 89 BC 24 18 10 00  mov         dword ptr [esp+1018h],edi
            00
  0040580A: 89 E7              mov         edi,esp
  0040580C: 8B 94 24 24 10 00  mov         edx,dword ptr [esp+1024h]
            00
  00405813: 89 9C 24 14 10 00  mov         dword ptr [esp+1014h],ebx
            00
  0040581A: F3 AB              rep stos    dword ptr [edi]
  0040581C: 8B 84 24 20 10 00  mov         eax,dword ptr [esp+1020h]
            00
  00405823: 8B 8C 24 28 10 00  mov         ecx,dword ptr [esp+1028h]
            00
  0040582A: 89 04 24           mov         dword ptr [esp],eax
  0040582D: 89 E0              mov         eax,esp
  0040582F: E8 0C D4 FF FF     call        00402C40
  00405834: 8B 9C 24 14 10 00  mov         ebx,dword ptr [esp+1014h]
            00
  0040583B: 8B BC 24 18 10 00  mov         edi,dword ptr [esp+1018h]
            00
  00405842: 81 C4 1C 10 00 00  add         esp,101Ch
  00405848: C3                 ret
  00405849: 8D B4 26 00 00 00  lea         esi,[esi]
            00
  00405850: B8 1C 10 00 00     mov         eax,101Ch
  00405855: E8 5E CF FF FF     call        004027B8
  0040585A: B9 04 04 00 00     mov         ecx,404h
  0040585F: 29 C4              sub         esp,eax
  00405861: 31 C0              xor         eax,eax
  00405863: 89 BC 24 18 10 00  mov         dword ptr [esp+1018h],edi
            00
  0040586A: 89 E7              mov         edi,esp
  0040586C: 8B 94 24 24 10 00  mov         edx,dword ptr [esp+1024h]
            00
  00405873: 89 9C 24 14 10 00  mov         dword ptr [esp+1014h],ebx
            00
  0040587A: F3 AB              rep stos    dword ptr [edi]
  0040587C: 8B 84 24 20 10 00  mov         eax,dword ptr [esp+1020h]
            00
  00405883: 8B 8C 24 28 10 00  mov         ecx,dword ptr [esp+1028h]
            00
  0040588A: C6 84 24 04 10 00  mov         byte ptr [esp+1004h],1
            00 01
  00405892: 89 04 24           mov         dword ptr [esp],eax
  00405895: 89 E0              mov         eax,esp
  00405897: E8 A4 D3 FF FF     call        00402C40
  0040589C: 8B 9C 24 14 10 00  mov         ebx,dword ptr [esp+1014h]
            00
  004058A3: 8B BC 24 18 10 00  mov         edi,dword ptr [esp+1018h]
            00
  004058AA: 81 C4 1C 10 00 00  add         esp,101Ch
  004058B0: C3                 ret
  004058B1: 90                 nop
  004058B2: 90                 nop
  004058B3: 90                 nop
  004058B4: 90                 nop
  004058B5: 90                 nop
  004058B6: 90                 nop
  004058B7: 90                 nop
  004058B8: 90                 nop
  004058B9: 90                 nop
  004058BA: 90                 nop
  004058BB: 90                 nop
  004058BC: 90                 nop
  004058BD: 90                 nop
  004058BE: 90                 nop
  004058BF: 90                 nop
  004058C0: 53                 push        ebx
  004058C1: 89 C1              mov         ecx,eax
  004058C3: 83 EC 48           sub         esp,48h
  004058C6: 8B 44 24 50        mov         eax,dword ptr [esp+50h]
  004058CA: 89 44 24 20        mov         dword ptr [esp+20h],eax
  004058CE: 8B 44 24 54        mov         eax,dword ptr [esp+54h]
  004058D2: 89 44 24 24        mov         dword ptr [esp+24h],eax
  004058D6: 8B 44 24 58        mov         eax,dword ptr [esp+58h]
  004058DA: 89 44 24 28        mov         dword ptr [esp+28h],eax
  004058DE: 8B 44 24 5C        mov         eax,dword ptr [esp+5Ch]
  004058E2: DB 6C 24 20        fld         tbyte ptr [esp+20h]
  004058E6: 89 44 24 2C        mov         dword ptr [esp+2Ch],eax
  004058EA: D9 E5              fxam
  004058EC: 9B                 wait
  004058ED: DF E0              fnstsw      ax
  004058EF: DD D8              fstp        st(0)
  004058F1: F6 C4 01           test        ah,1
  004058F4: 74 1A              je          00405910
  004058F6: F6 C4 04           test        ah,4
  004058F9: 0F 84 91 00 00 00  je          00405990
  004058FF: C7 44 24 38 03 00  mov         dword ptr [esp+38h],3
            00 00
  00405907: 0F B7 54 24 28     movzx       edx,word ptr [esp+28h]
  0040590C: 31 C0              xor         eax,eax
  0040590E: EB 14              jmp         00405924
  00405910: F6 C4 04           test        ah,4
  00405913: 75 5C              jne         00405971
  00405915: 0F B7 54 24 28     movzx       edx,word ptr [esp+28h]
  0040591A: 31 C0              xor         eax,eax
  0040591C: C7 44 24 38 00 00  mov         dword ptr [esp+38h],0
            00 00
  00405924: 81 E2 00 80 00 00  and         edx,8000h
  0040592A: 8B 5C 24 68        mov         ebx,dword ptr [esp+68h]
  0040592E: 89 13              mov         dword ptr [ebx],edx
  00405930: 8D 54 24 3C        lea         edx,[esp+3Ch]
  00405934: 89 54 24 1C        mov         dword ptr [esp+1Ch],edx
  00405938: 8B 54 24 64        mov         edx,dword ptr [esp+64h]
  0040593C: 89 4C 24 10        mov         dword ptr [esp+10h],ecx
  00405940: 89 44 24 04        mov         dword ptr [esp+4],eax
  00405944: C7 04 24 20 F0 40  mov         dword ptr [esp],40F020h
            00
  0040594B: 89 54 24 18        mov         dword ptr [esp+18h],edx
  0040594F: 8B 54 24 60        mov         edx,dword ptr [esp+60h]
  00405953: 89 54 24 14        mov         dword ptr [esp+14h],edx
  00405957: 8D 54 24 38        lea         edx,[esp+38h]
  0040595B: 89 54 24 0C        mov         dword ptr [esp+0Ch],edx
  0040595F: 8D 54 24 20        lea         edx,[esp+20h]
  00405963: 89 54 24 08        mov         dword ptr [esp+8],edx
  00405967: E8 34 2A 00 00     call        004083A0
  0040596C: 83 C4 48           add         esp,48h
  0040596F: 5B                 pop         ebx
  00405970: C3                 ret
  00405971: F6 C4 40           test        ah,40h
  00405974: 74 2A              je          004059A0
  00405976: C7 44 24 38 02 00  mov         dword ptr [esp+38h],2
            00 00
  0040597E: 0F B7 54 24 28     movzx       edx,word ptr [esp+28h]
  00405983: B8 C3 BF FF FF     mov         eax,0FFFFBFC3h
  00405988: EB 9A              jmp         00405924
  0040598A: 8D B6 00 00 00 00  lea         esi,[esi]
  00405990: C7 44 24 38 04 00  mov         dword ptr [esp+38h],4
            00 00
  00405998: 31 C0              xor         eax,eax
  0040599A: 31 D2              xor         edx,edx
  0040599C: EB 8C              jmp         0040592A
  0040599E: 66
  0040599F: 90                 nop
  004059A0: 0F B7 54 24 28     movzx       edx,word ptr [esp+28h]
  004059A5: C7 44 24 38 01 00  mov         dword ptr [esp+38h],1
            00 00
  004059AD: 89 D0              mov         eax,edx
  004059AF: 25 FF 7F 00 00     and         eax,7FFFh
  004059B4: 2D 3E 40 00 00     sub         eax,403Eh
  004059B9: E9 66 FF FF FF     jmp         00405924
  004059BE: 66
  004059BF: 90                 nop
  004059C0: 53                 push        ebx
  004059C1: 83 EC 28           sub         esp,28h
  004059C4: 8B 4A 04           mov         ecx,dword ptr [edx+4]
  004059C7: F6 C5 40           test        ch,40h
  004059CA: 75 08              jne         004059D4
  004059CC: 8B 5A 20           mov         ebx,dword ptr [edx+20h]
  004059CF: 39 5A 24           cmp         dword ptr [edx+24h],ebx
  004059D2: 7E 10              jle         004059E4
  004059D4: 80 E5 20           and         ch,20h
  004059D7: 75 17              jne         004059F0
  004059D9: 8B 1A              mov         ebx,dword ptr [edx]
  004059DB: 8B 4A 20           mov         ecx,dword ptr [edx+20h]
  004059DE: 88 04 0B           mov         byte ptr [ebx+ecx],al
  004059E1: 8B 5A 20           mov         ebx,dword ptr [edx+20h]
  004059E4: 83 C3 01           add         ebx,1
  004059E7: 89 5A 20           mov         dword ptr [edx+20h],ebx
  004059EA: 83 C4 28           add         esp,28h
  004059ED: 5B                 pop         ebx
  004059EE: C3                 ret
  004059EF: 90                 nop
  004059F0: 8B 0A              mov         ecx,dword ptr [edx]
  004059F2: 89 04 24           mov         dword ptr [esp],eax
  004059F5: 89 54 24 1C        mov         dword ptr [esp+1Ch],edx
  004059F9: 89 4C 24 04        mov         dword ptr [esp+4],ecx
  004059FD: E8 EE 85 00 00     call        0040DFF0
  00405A02: 8B 54 24 1C        mov         edx,dword ptr [esp+1Ch]
  00405A06: 8B 5A 20           mov         ebx,dword ptr [edx+20h]
  00405A09: 83 C3 01           add         ebx,1
  00405A0C: 89 5A 20           mov         dword ptr [edx+20h],ebx
  00405A0F: 83 C4 28           add         esp,28h
  00405A12: 5B                 pop         ebx
  00405A13: C3                 ret
  00405A14: 8D B6 00 00 00 00  lea         esi,[esi]
  00405A1A: 8D BF 00 00 00 00  lea         edi,[edi]
  00405A20: 55                 push        ebp
  00405A21: 89 D5              mov         ebp,edx
  00405A23: 57                 push        edi
  00405A24: 89 C7              mov         edi,eax
  00405A26: 56                 push        esi
  00405A27: 53                 push        ebx
  00405A28: 89 CB              mov         ebx,ecx
  00405A2A: 83 EC 4C           sub         esp,4Ch
  00405A2D: 8D 44 24 2C        lea         eax,[esp+2Ch]
  00405A31: 8D 74 24 30        lea         esi,[esp+30h]
  00405A35: 89 44 24 08        mov         dword ptr [esp+8],eax
  00405A39: C7 44 24 04 00 00  mov         dword ptr [esp+4],0
            00 00
  00405A41: 89 34 24           mov         dword ptr [esp],esi
  00405A44: E8 07 40 00 00     call        00409A50
  00405A49: 8B 43 0C           mov         eax,dword ptr [ebx+0Ch]
  00405A4C: 85 C0              test        eax,eax
  00405A4E: 78 05              js          00405A55
  00405A50: 39 C5              cmp         ebp,eax
  00405A52: 0F 4F E8           cmovg       ebp,eax
  00405A55: 8B 43 08           mov         eax,dword ptr [ebx+8]
  00405A58: 39 C5              cmp         ebp,eax
  00405A5A: 0F 8D 87 00 00 00  jge         00405AE7
  00405A60: 29 E8              sub         eax,ebp
  00405A62: 85 C0              test        eax,eax
  00405A64: 89 43 08           mov         dword ptr [ebx+8],eax
  00405A67: 7E 0A              jle         00405A73
  00405A69: F6 43 05 04        test        byte ptr [ebx+5],4
  00405A6D: 0F 84 7D 00 00 00  je          00405AF0
  00405A73: 85 ED              test        ebp,ebp
  00405A75: 89 5C 24 1C        mov         dword ptr [esp+1Ch],ebx
  00405A79: 7E 45              jle         00405AC0
  00405A7B: 0F B7 07           movzx       eax,word ptr [edi]
  00405A7E: 8D 54 24 2C        lea         edx,[esp+2Ch]
  00405A82: 83 C7 02           add         edi,2
  00405A85: 89 54 24 08        mov         dword ptr [esp+8],edx
  00405A89: 89 34 24           mov         dword ptr [esp],esi
  00405A8C: 89 44 24 04        mov         dword ptr [esp+4],eax
  00405A90: E8 BB 3F 00 00     call        00409A50
  00405A95: 85 C0              test        eax,eax
  00405A97: 7E 27              jle         00405AC0
  00405A99: 8D 0C 06           lea         ecx,[esi+eax]
  00405A9C: 89 F3              mov         ebx,esi
  00405A9E: 0F BE 03           movsx       eax,byte ptr [ebx]
  00405AA1: 83 C3 01           add         ebx,1
  00405AA4: 8B 54 24 1C        mov         edx,dword ptr [esp+1Ch]
  00405AA8: 89 4C 24 18        mov         dword ptr [esp+18h],ecx
  00405AAC: E8 0F FF FF FF     call        004059C0
  00405AB1: 8B 4C 24 18        mov         ecx,dword ptr [esp+18h]
  00405AB5: 39 CB              cmp         ebx,ecx
  00405AB7: 75 E5              jne         00405A9E
  00405AB9: 83 ED 01           sub         ebp,1
  00405ABC: 85 ED              test        ebp,ebp
  00405ABE: 7F BB              jg          00405A7B
  00405AC0: 8B 5C 24 1C        mov         ebx,dword ptr [esp+1Ch]
  00405AC4: EB 0C              jmp         00405AD2
  00405AC6: 89 DA              mov         edx,ebx
  00405AC8: B8 20 00 00 00     mov         eax,20h
  00405ACD: E8 EE FE FF FF     call        004059C0
  00405AD2: 8B 43 08           mov         eax,dword ptr [ebx+8]
  00405AD5: 8D 50 FF           lea         edx,[eax-1]
  00405AD8: 85 C0              test        eax,eax
  00405ADA: 89 53 08           mov         dword ptr [ebx+8],edx
  00405ADD: 7F E7              jg          00405AC6
  00405ADF: 83 C4 4C           add         esp,4Ch
  00405AE2: 5B                 pop         ebx
  00405AE3: 5E                 pop         esi
  00405AE4: 5F                 pop         edi
  00405AE5: 5D                 pop         ebp
  00405AE6: C3                 ret
  00405AE7: C7 43 08 FF FF FF  mov         dword ptr [ebx+8],0FFFFFFFFh
            FF
  00405AEE: EB 83              jmp         00405A73
  00405AF0: 83 E8 01           sub         eax,1
  00405AF3: 89 43 08           mov         dword ptr [ebx+8],eax
  00405AF6: 89 DA              mov         edx,ebx
  00405AF8: B8 20 00 00 00     mov         eax,20h
  00405AFD: E8 BE FE FF FF     call        004059C0
  00405B02: 8B 43 08           mov         eax,dword ptr [ebx+8]
  00405B05: 8D 50 FF           lea         edx,[eax-1]
  00405B08: 85 C0              test        eax,eax
  00405B0A: 89 53 08           mov         dword ptr [ebx+8],edx
  00405B0D: 75 E7              jne         00405AF6
  00405B0F: E9 5F FF FF FF     jmp         00405A73
  00405B14: 8D B6 00 00 00 00  lea         esi,[esi]
  00405B1A: 8D BF 00 00 00 00  lea         edi,[edi]
  00405B20: 57                 push        edi
  00405B21: 89 C7              mov         edi,eax
  00405B23: 8B 41 0C           mov         eax,dword ptr [ecx+0Ch]
  00405B26: 56                 push        esi
  00405B27: 89 D6              mov         esi,edx
  00405B29: 53                 push        ebx
  00405B2A: 89 CB              mov         ebx,ecx
  00405B2C: 85 C0              test        eax,eax
  00405B2E: 78 05              js          00405B35
  00405B30: 39 C2              cmp         edx,eax
  00405B32: 0F 4F F0           cmovg       esi,eax
  00405B35: 8B 43 08           mov         eax,dword ptr [ebx+8]
  00405B38: 39 C6              cmp         esi,eax
  00405B3A: 7D 74              jge         00405BB0
  00405B3C: 29 F0              sub         eax,esi
  00405B3E: 85 C0              test        eax,eax
  00405B40: 89 43 08           mov         dword ptr [ebx+8],eax
  00405B43: 7E 25              jle         00405B6A
  00405B45: F6 43 05 04        test        byte ptr [ebx+5],4
  00405B49: 75 1F              jne         00405B6A
  00405B4B: 83 E8 01           sub         eax,1
  00405B4E: 89 43 08           mov         dword ptr [ebx+8],eax
  00405B51: 89 DA              mov         edx,ebx
  00405B53: B8 20 00 00 00     mov         eax,20h
  00405B58: E8 63 FE FF FF     call        004059C0
  00405B5D: 8B 43 08           mov         eax,dword ptr [ebx+8]
  00405B60: 8D 50 FF           lea         edx,[eax-1]
  00405B63: 85 C0              test        eax,eax
  00405B65: 89 53 08           mov         dword ptr [ebx+8],edx
  00405B68: 75 E7              jne         00405B51
  00405B6A: 85 F6              test        esi,esi
  00405B6C: 74 2E              je          00405B9C
  00405B6E: 66
  00405B6F: 90                 nop
  00405B70: 0F BE 07           movsx       eax,byte ptr [edi]
  00405B73: 89 DA              mov         edx,ebx
  00405B75: 83 C7 01           add         edi,1
  00405B78: E8 43 FE FF FF     call        004059C0
  00405B7D: 83 EE 01           sub         esi,1
  00405B80: 75 EE              jne         00405B70
  00405B82: 8B 43 08           mov         eax,dword ptr [ebx+8]
  00405B85: 8D 50 FF           lea         edx,[eax-1]
  00405B88: 85 C0              test        eax,eax
  00405B8A: 89 53 08           mov         dword ptr [ebx+8],edx
  00405B8D: 7E 1A              jle         00405BA9
  00405B8F: 90                 nop
  00405B90: 89 DA              mov         edx,ebx
  00405B92: B8 20 00 00 00     mov         eax,20h
  00405B97: E8 24 FE FF FF     call        004059C0
  00405B9C: 8B 43 08           mov         eax,dword ptr [ebx+8]
  00405B9F: 8D 50 FF           lea         edx,[eax-1]
  00405BA2: 85 C0              test        eax,eax
  00405BA4: 89 53 08           mov         dword ptr [ebx+8],edx
  00405BA7: 7F E7              jg          00405B90
  00405BA9: 5B                 pop         ebx
  00405BAA: 5E                 pop         esi
  00405BAB: 5F                 pop         edi
  00405BAC: C3                 ret
  00405BAD: 8D 76 00           lea         esi,[esi]
  00405BB0: C7 43 08 FF FF FF  mov         dword ptr [ebx+8],0FFFFFFFFh
            FF
  00405BB7: EB B1              jmp         00405B6A
  00405BB9: 8D B4 26 00 00 00  lea         esi,[esi]
            00
  00405BC0: 83 EC 2C           sub         esp,2Ch
  00405BC3: 85 C0              test        eax,eax
  00405BC5: 89 5C 24 1C        mov         dword ptr [esp+1Ch],ebx
  00405BC9: 89 74 24 20        mov         dword ptr [esp+20h],esi
  00405BCD: 89 7C 24 24        mov         dword ptr [esp+24h],edi
  00405BD1: 89 6C 24 28        mov         dword ptr [esp+28h],ebp
  00405BD5: C7 41 0C FF FF FF  mov         dword ptr [ecx+0Ch],0FFFFFFFFh
            FF
  00405BDC: 74 47              je          00405C25
  00405BDE: 8B 69 04           mov         ebp,dword ptr [ecx+4]
  00405BE1: 8D 7C 24 0D        lea         edi,[esp+0Dh]
  00405BE5: C6 44 24 0C 2D     mov         byte ptr [esp+0Ch],2Dh
  00405BEA: 8D 44 24 0C        lea         eax,[esp+0Ch]
  00405BEE: 83 E5 20           and         ebp,20h
  00405BF1: 31 F6              xor         esi,esi
  00405BF3: 0F B6 1C 32        movzx       ebx,byte ptr [edx+esi]
  00405BF7: 83 E3 DF           and         ebx,0FFFFFFDFh
  00405BFA: 09 EB              or          ebx,ebp
  00405BFC: 88 1C 37           mov         byte ptr [edi+esi],bl
  00405BFF: 83 C6 01           add         esi,1
  00405C02: 83 FE 03           cmp         esi,3
  00405C05: 75 EC              jne         00405BF3
  00405C07: 8D 57 03           lea         edx,[edi+3]
  00405C0A: 29 C2              sub         edx,eax
  00405C0C: E8 0F FF FF FF     call        00405B20
  00405C11: 8B 5C 24 1C        mov         ebx,dword ptr [esp+1Ch]
  00405C15: 8B 74 24 20        mov         esi,dword ptr [esp+20h]
  00405C19: 8B 7C 24 24        mov         edi,dword ptr [esp+24h]
  00405C1D: 8B 6C 24 28        mov         ebp,dword ptr [esp+28h]
  00405C21: 83 C4 2C           add         esp,2Ch
  00405C24: C3                 ret
  00405C25: 8B 69 04           mov         ebp,dword ptr [ecx+4]
  00405C28: F7 C5 00 01 00 00  test        ebp,100h
  00405C2E: 74 10              je          00405C40
  00405C30: C6 44 24 0C 2B     mov         byte ptr [esp+0Ch],2Bh
  00405C35: 8D 7C 24 0D        lea         edi,[esp+0Dh]
  00405C39: 8D 44 24 0C        lea         eax,[esp+0Ch]
  00405C3D: EB AF              jmp         00405BEE
  00405C3F: 90                 nop
  00405C40: F7 C5 40 00 00 00  test        ebp,40h
  00405C46: 74 0F              je          00405C57
  00405C48: C6 44 24 0C 20     mov         byte ptr [esp+0Ch],20h
  00405C4D: 8D 7C 24 0D        lea         edi,[esp+0Dh]
  00405C51: 8D 44 24 0C        lea         eax,[esp+0Ch]
  00405C55: EB 97              jmp         00405BEE
  00405C57: 8D 44 24 0C        lea         eax,[esp+0Ch]
  00405C5B: 89 C7              mov         edi,eax
  00405C5D: EB 8F              jmp         00405BEE
  00405C5F: 90                 nop
  00405C60: 55                 push        ebp
  00405C61: 89 E5              mov         ebp,esp
  00405C63: 57                 push        edi
  00405C64: 89 D7              mov         edi,edx
  00405C66: 56                 push        esi
  00405C67: 89 C6              mov         esi,eax
  00405C69: 53                 push        ebx
  00405C6A: 89 CB              mov         ebx,ecx
  00405C6C: 83 EC 3C           sub         esp,3Ch
  00405C6F: 89 45 D0           mov         dword ptr [ebp-30h],eax
  00405C72: 8B 41 0C           mov         eax,dword ptr [ecx+0Ch]
  00405C75: 31 C9              xor         ecx,ecx
  00405C77: 89 55 D4           mov         dword ptr [ebp-2Ch],edx
  00405C7A: 8B 53 04           mov         edx,dword ptr [ebx+4]
  00405C7D: 85 C0              test        eax,eax
  00405C7F: 0F 49 C8           cmovns      ecx,eax
  00405C82: 83 C1 17           add         ecx,17h
  00405C85: 89 55 DC           mov         dword ptr [ebp-24h],edx
  00405C88: 80 E6 10           and         dh,10h
  00405C8B: 89 45 E4           mov         dword ptr [ebp-1Ch],eax
  00405C8E: 74 0B              je          00405C9B
  00405C90: 66 83 7B 1C 00     cmp         word ptr [ebx+1Ch],0
  00405C95: 0F 85 E5 01 00 00  jne         00405E80
  00405C9B: 8B 43 08           mov         eax,dword ptr [ebx+8]
  00405C9E: 39 C1              cmp         ecx,eax
  00405CA0: 0F 4D C1           cmovge      eax,ecx
  00405CA3: 83 C0 0F           add         eax,0Fh
  00405CA6: 83 E0 F0           and         eax,0FFFFFFF0h
  00405CA9: E8 0A CB FF FF     call        004027B8
  00405CAE: 29 C4              sub         esp,eax
  00405CB0: F6 45 DC 80        test        byte ptr [ebp-24h],80h
  00405CB4: 8D 54 24 10        lea         edx,[esp+10h]
  00405CB8: 89 55 E0           mov         dword ptr [ebp-20h],edx
  00405CBB: 74 10              je          00405CCD
  00405CBD: 85 FF              test        edi,edi
  00405CBF: 0F 88 23 02 00 00  js          00405EE8
  00405CC5: 8B 45 DC           mov         eax,dword ptr [ebp-24h]
  00405CC8: 24 7F              and         al,7Fh
  00405CCA: 89 43 04           mov         dword ptr [ebx+4],eax
  00405CCD: 8B 4D D4           mov         ecx,dword ptr [ebp-2Ch]
  00405CD0: 8B 7D D0           mov         edi,dword ptr [ebp-30h]
  00405CD3: 8B 75 E0           mov         esi,dword ptr [ebp-20h]
  00405CD6: 89 CA              mov         edx,ecx
  00405CD8: 09 FA              or          edx,edi
  00405CDA: 0F 84 AB 00 00 00  je          00405D8B
  00405CE0: 89 5D E4           mov         dword ptr [ebp-1Ch],ebx
  00405CE3: 89 CB              mov         ebx,ecx
  00405CE5: 89 3C 24           mov         dword ptr [esp],edi
  00405CE8: 89 5C 24 04        mov         dword ptr [esp+4],ebx
  00405CEC: C7 44 24 08 0A 00  mov         dword ptr [esp+8],0Ah
            00 00
  00405CF4: C7 44 24 0C 00 00  mov         dword ptr [esp+0Ch],0
            00 00
  00405CFC: E8 37 83 00 00     call        0040E038
  00405D01: 8D 4E 01           lea         ecx,[esi+1]
  00405D04: 83 C0 30           add         eax,30h
  00405D07: 88 06              mov         byte ptr [esi],al
  00405D09: 89 3C 24           mov         dword ptr [esp],edi
  00405D0C: 89 5C 24 04        mov         dword ptr [esp+4],ebx
  00405D10: C7 44 24 08 0A 00  mov         dword ptr [esp+8],0Ah
            00 00
  00405D18: C7 44 24 0C 00 00  mov         dword ptr [esp+0Ch],0
            00 00
  00405D20: 89 4D CC           mov         dword ptr [ebp-34h],ecx
  00405D23: E8 18 83 00 00     call        0040E040
  00405D28: 8B 4D CC           mov         ecx,dword ptr [ebp-34h]
  00405D2B: 89 C7              mov         edi,eax
  00405D2D: 89 D3              mov         ebx,edx
  00405D2F: 09 FA              or          edx,edi
  00405D31: 74 4D              je          00405D80
  00405D33: 39 4D E0           cmp         dword ptr [ebp-20h],ecx
  00405D36: 0F 84 26 01 00 00  je          00405E62
  00405D3C: 8B 45 E4           mov         eax,dword ptr [ebp-1Ch]
  00405D3F: F6 40 05 10        test        byte ptr [eax+5],10h
  00405D43: 74 20              je          00405D65
  00405D45: 66 83 78 1C 00     cmp         word ptr [eax+1Ch],0
  00405D4A: 74 19              je          00405D65
  00405D4C: 89 C8              mov         eax,ecx
  00405D4E: 2B 45 E0           sub         eax,dword ptr [ebp-20h]
  00405D51: 89 C2              mov         edx,eax
  00405D53: C1 FA 1F           sar         edx,1Fh
  00405D56: C1 EA 1E           shr         edx,1Eh
  00405D59: 01 D0              add         eax,edx
  00405D5B: 83 E0 03           and         eax,3
  00405D5E: 29 D0              sub         eax,edx
  00405D60: 83 F8 03           cmp         eax,3
  00405D63: 74 0B              je          00405D70
  00405D65: 89 CE              mov         esi,ecx
  00405D67: E9 79 FF FF FF     jmp         00405CE5
  00405D6C: 8D 74 26 00        lea         esi,[esi]
  00405D70: 8D 4E 02           lea         ecx,[esi+2]
  00405D73: C6 46 01 2C        mov         byte ptr [esi+1],2Ch
  00405D77: 89 CE              mov         esi,ecx
  00405D79: E9 67 FF FF FF     jmp         00405CE5
  00405D7E: 66
  00405D7F: 90                 nop
  00405D80: 8B 5D E4           mov         ebx,dword ptr [ebp-1Ch]
  00405D83: 89 CE              mov         esi,ecx
  00405D85: 8B 43 0C           mov         eax,dword ptr [ebx+0Ch]
  00405D88: 89 45 E4           mov         dword ptr [ebp-1Ch],eax
  00405D8B: 8B 7D E4           mov         edi,dword ptr [ebp-1Ch]
  00405D8E: 85 FF              test        edi,edi
  00405D90: 7E 18              jle         00405DAA
  00405D92: 8B 45 E0           mov         eax,dword ptr [ebp-20h]
  00405D95: 29 F0              sub         eax,esi
  00405D97: 03 45 E4           add         eax,dword ptr [ebp-1Ch]
  00405D9A: 85 C0              test        eax,eax
  00405D9C: 7E 0C              jle         00405DAA
  00405D9E: 01 F0              add         eax,esi
  00405DA0: C6 06 30           mov         byte ptr [esi],30h
  00405DA3: 83 C6 01           add         esi,1
  00405DA6: 39 C6              cmp         esi,eax
  00405DA8: 75 F6              jne         00405DA0
  00405DAA: 3B 75 E0           cmp         esi,dword ptr [ebp-20h]
  00405DAD: 0F 84 4D 01 00 00  je          00405F00
  00405DB3: 8B 43 08           mov         eax,dword ptr [ebx+8]
  00405DB6: 85 C0              test        eax,eax
  00405DB8: 7E 54              jle         00405E0E
  00405DBA: 8B 55 E0           mov         edx,dword ptr [ebp-20h]
  00405DBD: 29 F2              sub         edx,esi
  00405DBF: 01 C2              add         edx,eax
  00405DC1: 8B 43 04           mov         eax,dword ptr [ebx+4]
  00405DC4: 85 D2              test        edx,edx
  00405DC6: 89 53 08           mov         dword ptr [ebx+8],edx
  00405DC9: 7E 46              jle         00405E11
  00405DCB: A9 C0 01 00 00     test        eax,1C0h
  00405DD0: 74 06              je          00405DD8
  00405DD2: 83 EA 01           sub         edx,1
  00405DD5: 89 53 08           mov         dword ptr [ebx+8],edx
  00405DD8: 8B 53 0C           mov         edx,dword ptr [ebx+0Ch]
  00405DDB: 85 D2              test        edx,edx
  00405DDD: 0F 88 C3 00 00 00  js          00405EA6
  00405DE3: F6 C4 04           test        ah,4
  00405DE6: 75 29              jne         00405E11
  00405DE8: 8B 53 08           mov         edx,dword ptr [ebx+8]
  00405DEB: 8D 4A FF           lea         ecx,[edx-1]
  00405DEE: 85 D2              test        edx,edx
  00405DF0: 89 4B 08           mov         dword ptr [ebx+8],ecx
  00405DF3: 7E 1C              jle         00405E11
  00405DF5: 89 DA              mov         edx,ebx
  00405DF7: B8 20 00 00 00     mov         eax,20h
  00405DFC: E8 BF FB FF FF     call        004059C0
  00405E01: 8B 43 08           mov         eax,dword ptr [ebx+8]
  00405E04: 8D 50 FF           lea         edx,[eax-1]
  00405E07: 85 C0              test        eax,eax
  00405E09: 89 53 08           mov         dword ptr [ebx+8],edx
  00405E0C: 7F E7              jg          00405DF5
  00405E0E: 8B 43 04           mov         eax,dword ptr [ebx+4]
  00405E11: A8 80              test        al,80h
  00405E13: 74 5B              je          00405E70
  00405E15: C6 06 2D           mov         byte ptr [esi],2Dh
  00405E18: 83 C6 01           add         esi,1
  00405E1B: 39 75 E0           cmp         dword ptr [ebp-20h],esi
  00405E1E: 8B 7D E0           mov         edi,dword ptr [ebp-20h]
  00405E21: 73 2A              jae         00405E4D
  00405E23: 83 EE 01           sub         esi,1
  00405E26: 89 DA              mov         edx,ebx
  00405E28: 0F BE 06           movsx       eax,byte ptr [esi]
  00405E2B: E8 90 FB FF FF     call        004059C0
  00405E30: 39 FE              cmp         esi,edi
  00405E32: 75 EF              jne         00405E23
  00405E34: 8B 43 08           mov         eax,dword ptr [ebx+8]
  00405E37: 8D 50 FF           lea         edx,[eax-1]
  00405E3A: 85 C0              test        eax,eax
  00405E3C: 89 53 08           mov         dword ptr [ebx+8],edx
  00405E3F: 7E 19              jle         00405E5A
  00405E41: 89 DA              mov         edx,ebx
  00405E43: B8 20 00 00 00     mov         eax,20h
  00405E48: E8 73 FB FF FF     call        004059C0
  00405E4D: 8B 43 08           mov         eax,dword ptr [ebx+8]
  00405E50: 8D 50 FF           lea         edx,[eax-1]
  00405E53: 85 C0              test        eax,eax
  00405E55: 89 53 08           mov         dword ptr [ebx+8],edx
  00405E58: 7F E7              jg          00405E41
  00405E5A: 8D 65 F4           lea         esp,[ebp-0Ch]
  00405E5D: 5B                 pop         ebx
  00405E5E: 5E                 pop         esi
  00405E5F: 5F                 pop         edi
___pformat_efloat:
  00405E60: 5D                 pop         ebp
  00405E61: C3                 ret
  00405E62: 8B 4D E0           mov         ecx,dword ptr [ebp-20h]
  00405E65: 89 CE              mov         esi,ecx
  00405E67: E9 79 FE FF FF     jmp         00405CE5
  00405E6C: 8D 74 26 00        lea         esi,[esi]
  00405E70: F6 C4 01           test        ah,1
  00405E73: 74 22              je          00405E97
  00405E75: C6 06 2B           mov         byte ptr [esi],2Bh
  00405E78: 83 C6 01           add         esi,1
  00405E7B: EB 9E              jmp         00405E1B
  00405E7D: 8D 76 00           lea         esi,[esi]
  00405E80: 89 C8              mov         eax,ecx
  00405E82: BA 56 55 55 55     mov         edx,55555556h
  00405E87: F7 EA              imul        edx
  00405E89: 89 C8              mov         eax,ecx
  00405E8B: C1 F8 1F           sar         eax,1Fh
  00405E8E: 29 C2              sub         edx,eax
  00405E90: 01 D1              add         ecx,edx
  00405E92: E9 04 FE FF FF     jmp         00405C9B
  00405E97: A8 40              test        al,40h
  00405E99: 74 80              je          00405E1B
  00405E9B: C6 06 20           mov         byte ptr [esi],20h
  00405E9E: 83 C6 01           add         esi,1
  00405EA1: E9 75 FF FF FF     jmp         00405E1B
  00405EA6: 89 C2              mov         edx,eax
  00405EA8: 81 E2 00 06 00 00  and         edx,600h
  00405EAE: 81 FA 00 02 00 00  cmp         edx,200h
  00405EB4: 0F 85 29 FF FF FF  jne         00405DE3
  00405EBA: 8B 53 08           mov         edx,dword ptr [ebx+8]
  00405EBD: 8D 4A FF           lea         ecx,[edx-1]
  00405EC0: 85 D2              test        edx,edx
  00405EC2: 89 4B 08           mov         dword ptr [ebx+8],ecx
  00405EC5: 0F 8E 46 FF FF FF  jle         00405E11
  00405ECB: 90                 nop
  00405ECC: 8D 74 26 00        lea         esi,[esi]
  00405ED0: C6 06 30           mov         byte ptr [esi],30h
  00405ED3: 8B 43 08           mov         eax,dword ptr [ebx+8]
  00405ED6: 83 C6 01           add         esi,1
  00405ED9: 8D 50 FF           lea         edx,[eax-1]
  00405EDC: 85 C0              test        eax,eax
  00405EDE: 89 53 08           mov         dword ptr [ebx+8],edx
  00405EE1: 7F ED              jg          00405ED0
  00405EE3: E9 26 FF FF FF     jmp         00405E0E
  00405EE8: 89 F0              mov         eax,esi
  00405EEA: 89 FA              mov         edx,edi
  00405EEC: F7 D8              neg         eax
  00405EEE: 83 D2 00           adc         edx,0
  00405EF1: F7 DA              neg         edx
  00405EF3: 89 45 D0           mov         dword ptr [ebp-30h],eax
  00405EF6: 89 55 D4           mov         dword ptr [ebp-2Ch],edx
  00405EF9: E9 CF FD FF FF     jmp         00405CCD
  00405EFE: 66
  00405EFF: 90                 nop
  00405F00: 8B 4B 0C           mov         ecx,dword ptr [ebx+0Ch]
  00405F03: 85 C9              test        ecx,ecx
  00405F05: 0F 84 A8 FE FF FF  je          00405DB3
  00405F0B: C6 06 30           mov         byte ptr [esi],30h
  00405F0E: 83 C6 01           add         esi,1
  00405F11: E9 9D FE FF FF     jmp         00405DB3
  00405F16: 8D 76 00           lea         esi,[esi]
  00405F19: 8D BC 27 00 00 00  lea         edi,[edi]
            00
  00405F20: 55                 push        ebp
  00405F21: 89 E5              mov         ebp,esp
  00405F23: 57                 push        edi
  00405F24: 89 CF              mov         edi,ecx
  00405F26: 56                 push        esi
  00405F27: 89 D6              mov         esi,edx
  00405F29: 53                 push        ebx
  00405F2A: 83 EC 2C           sub         esp,2Ch
  00405F2D: 83 F8 6F           cmp         eax,6Fh
  00405F30: 89 45 D8           mov         dword ptr [ebp-28h],eax
  00405F33: B8 18 00 00 00     mov         eax,18h
  00405F38: 89 4D CC           mov         dword ptr [ebp-34h],ecx
  00405F3B: B9 12 00 00 00     mov         ecx,12h
  00405F40: 0F 44 C8           cmove       ecx,eax
  00405F43: 0F 95 C0           setne       al
  00405F46: 0F B6 D8           movzx       ebx,al
  00405F49: 0F B6 C0           movzx       eax,al
  00405F4C: 83 C0 03           add         eax,3
  00405F4F: 89 45 E4           mov         dword ptr [ebp-1Ch],eax
  00405F52: 8B 45 08           mov         eax,dword ptr [ebp+8]
  00405F55: 8D 1C DD 07 00 00  lea         ebx,[ebx*8+7]
            00
  00405F5C: 89 55 E0           mov         dword ptr [ebp-20h],edx
  00405F5F: 8B 40 0C           mov         eax,dword ptr [eax+0Ch]
  00405F62: 89 45 D4           mov         dword ptr [ebp-2Ch],eax
  00405F65: 8B 55 D4           mov         edx,dword ptr [ebp-2Ch]
  00405F68: 31 C0              xor         eax,eax
  00405F6A: 85 D2              test        edx,edx
  00405F6C: 8B 55 08           mov         edx,dword ptr [ebp+8]
  00405F6F: 0F 49 45 D4        cmovns      eax,dword ptr [ebp-2Ch]
  00405F73: 8B 52 04           mov         edx,dword ptr [edx+4]
  00405F76: 01 C1              add         ecx,eax
  00405F78: 89 55 C8           mov         dword ptr [ebp-38h],edx
  00405F7B: 80 E6 10           and         dh,10h
  00405F7E: 74 0E              je          00405F8E
  00405F80: 8B 45 08           mov         eax,dword ptr [ebp+8]
  00405F83: 66 83 78 1C 00     cmp         word ptr [eax+1Ch],0
  00405F88: 0F 85 22 02 00 00  jne         004061B0
  00405F8E: 8B 55 08           mov         edx,dword ptr [ebp+8]
  00405F91: 8B 52 08           mov         edx,dword ptr [edx+8]
  00405F94: 39 D1              cmp         ecx,edx
  00405F96: 0F 4C CA           cmovl       ecx,edx
  00405F99: 8D 41 0F           lea         eax,[ecx+0Fh]
  00405F9C: 83 E0 F0           and         eax,0FFFFFFF0h
  00405F9F: 89 55 D0           mov         dword ptr [ebp-30h],edx
  00405FA2: E8 11 C8 FF FF     call        004027B8
  00405FA7: 8B 4D CC           mov         ecx,dword ptr [ebp-34h]
  00405FAA: 29 C4              sub         esp,eax
  00405FAC: 0B 4D E0           or          ecx,dword ptr [ebp-20h]
  00405FAF: 89 65 DC           mov         dword ptr [ebp-24h],esp
  00405FB2: 0F 84 58 02 00 00  je          00406210
  00405FB8: 8B 45 D8           mov         eax,dword ptr [ebp-28h]
  00405FBB: 89 DA              mov         edx,ebx
  00405FBD: 89 E3              mov         ebx,esp
  00405FBF: 83 E0 20           and         eax,20h
  00405FC2: 89 45 E0           mov         dword ptr [ebp-20h],eax
  00405FC5: EB 1D              jmp         00405FE4
  00405FC7: 88 4B FF           mov         byte ptr [ebx-1],cl
  00405FCA: 0F B6 4D E4        movzx       ecx,byte ptr [ebp-1Ch]
  00405FCE: 31 C0              xor         eax,eax
  00405FD0: 0F AD FE           shrd        esi,edi,cl
  00405FD3: D3 EF              shr         edi,cl
  00405FD5: F6 C1 20           test        cl,20h
  00405FD8: 0F 45 F7           cmovne      esi,edi
  00405FDB: 0F 45 F8           cmovne      edi,eax
  00405FDE: 89 F8              mov         eax,edi
  00405FE0: 09 F0              or          eax,esi
  00405FE2: 74 1C              je          00406000
  00405FE4: 89 D0              mov         eax,edx
  00405FE6: 83 C3 01           add         ebx,1
  00405FE9: 21 F0              and         eax,esi
  00405FEB: 8D 48 30           lea         ecx,[eax+30h]
  00405FEE: 80 F9 39           cmp         cl,39h
  00405FF1: 7E D4              jle         00405FC7
  00405FF3: 83 C0 37           add         eax,37h
  00405FF6: 0A 45 E0           or          al,byte ptr [ebp-20h]
  00405FF9: 88 43 FF           mov         byte ptr [ebx-1],al
  00405FFC: EB CC              jmp         00405FCA
  00405FFE: 66
  00405FFF: 90                 nop
  00406000: 39 5D DC           cmp         dword ptr [ebp-24h],ebx
  00406003: 0F 84 07 02 00 00  je          00406210
  00406009: 8B 45 D4           mov         eax,dword ptr [ebp-2Ch]
  0040600C: 85 C0              test        eax,eax
  0040600E: 0F 8E B3 01 00 00  jle         004061C7
  00406014: 8B 45 DC           mov         eax,dword ptr [ebp-24h]
  00406017: 29 D8              sub         eax,ebx
  00406019: 03 45 D4           add         eax,dword ptr [ebp-2Ch]
  0040601C: 85 C0              test        eax,eax
  0040601E: 0F 8E A3 01 00 00  jle         004061C7
  00406024: 01 D8              add         eax,ebx
  00406026: C6 03 30           mov         byte ptr [ebx],30h
  00406029: 83 C3 01           add         ebx,1
  0040602C: 39 C3              cmp         ebx,eax
  0040602E: 75 F6              jne         00406026
  00406030: 3B 5D DC           cmp         ebx,dword ptr [ebp-24h]
  00406033: 0F 84 B7 01 00 00  je          004061F0
  00406039: 89 D8              mov         eax,ebx
  0040603B: 2B 45 DC           sub         eax,dword ptr [ebp-24h]
  0040603E: 39 45 D0           cmp         dword ptr [ebp-30h],eax
  00406041: 0F 8E A9 00 00 00  jle         004060F0
  00406047: 8B 7D D0           mov         edi,dword ptr [ebp-30h]
  0040604A: 8B 55 08           mov         edx,dword ptr [ebp+8]
  0040604D: 29 C7              sub         edi,eax
  0040604F: 85 FF              test        edi,edi
  00406051: 89 7A 08           mov         dword ptr [edx+8],edi
  00406054: 7E 21              jle         00406077
  00406056: 83 7D D8 6F        cmp         dword ptr [ebp-28h],6Fh
  0040605A: 74 0D              je          00406069
  0040605C: 8B 45 08           mov         eax,dword ptr [ebp+8]
  0040605F: F6 40 05 08        test        byte ptr [eax+5],8
  00406063: 0F 85 F9 00 00 00  jne         00406162
  00406069: 8B 55 08           mov         edx,dword ptr [ebp+8]
  0040606C: 8B 42 0C           mov         eax,dword ptr [edx+0Ch]
  0040606F: 85 C0              test        eax,eax
  00406071: 0F 88 02 01 00 00  js          00406179
  00406077: 8D 77 FF           lea         esi,[edi-1]
  0040607A: 83 7D D8 6F        cmp         dword ptr [ebp-28h],6Fh
  0040607E: 74 0D              je          0040608D
  00406080: 8B 45 08           mov         eax,dword ptr [ebp+8]
  00406083: F6 40 05 08        test        byte ptr [eax+5],8
  00406087: 0F 85 C3 00 00 00  jne         00406150
  0040608D: 85 FF              test        edi,edi
  0040608F: 7E 09              jle         0040609A
  00406091: 8B 4D 08           mov         ecx,dword ptr [ebp+8]
  00406094: F6 41 05 04        test        byte ptr [ecx+5],4
  00406098: 74 76              je          00406110
  0040609A: 3B 5D DC           cmp         ebx,dword ptr [ebp-24h]
  0040609D: 76 28              jbe         004060C7
  0040609F: 89 7D E4           mov         dword ptr [ebp-1Ch],edi
  004060A2: 8B 7D DC           mov         edi,dword ptr [ebp-24h]
  004060A5: 89 75 DC           mov         dword ptr [ebp-24h],esi
  004060A8: 89 DE              mov         esi,ebx
  004060AA: 8B 5D 08           mov         ebx,dword ptr [ebp+8]
  004060AD: 8D 76 00           lea         esi,[esi]
  004060B0: 83 EE 01           sub         esi,1
  004060B3: 89 DA              mov         edx,ebx
  004060B5: 0F BE 06           movsx       eax,byte ptr [esi]
  004060B8: E8 03 F9 FF FF     call        004059C0
  004060BD: 39 FE              cmp         esi,edi
  004060BF: 75 EF              jne         004060B0
  004060C1: 8B 7D E4           mov         edi,dword ptr [ebp-1Ch]
  004060C4: 8B 75 DC           mov         esi,dword ptr [ebp-24h]
  004060C7: 85 FF              test        edi,edi
  004060C9: 8B 5D 08           mov         ebx,dword ptr [ebp+8]
  004060CC: 7E 18              jle         004060E6
  004060CE: 66
  004060CF: 90                 nop
  004060D0: B8 20 00 00 00     mov         eax,20h
  004060D5: 83 EE 01           sub         esi,1
  004060D8: 89 DA              mov         edx,ebx
  004060DA: E8 E1 F8 FF FF     call        004059C0
  004060DF: 8D 46 01           lea         eax,[esi+1]
  004060E2: 85 C0              test        eax,eax
  004060E4: 7F EA              jg          004060D0
  004060E6: 8D 65 F4           lea         esp,[ebp-0Ch]
  004060E9: 5B                 pop         ebx
  004060EA: 5E                 pop         esi
  004060EB: 5F                 pop         edi
  004060EC: 5D                 pop         ebp
  004060ED: C3                 ret
  004060EE: 66
  004060EF: 90                 nop
  004060F0: 8B 4D 08           mov         ecx,dword ptr [ebp+8]
  004060F3: BE FE FF FF FF     mov         esi,0FFFFFFFEh
  004060F8: BF FF FF FF FF     mov         edi,0FFFFFFFFh
  004060FD: C7 41 08 FF FF FF  mov         dword ptr [ecx+8],0FFFFFFFFh
            FF
  00406104: E9 71 FF FF FF     jmp         0040607A
  00406109: 8D B4 26 00 00 00  lea         esi,[esi]
            00
  00406110: 8B 7D 08           mov         edi,dword ptr [ebp+8]
  00406113: 89 5D E4           mov         dword ptr [ebp-1Ch],ebx
  00406116: 89 F3              mov         ebx,esi
  00406118: B8 20 00 00 00     mov         eax,20h
  0040611D: 83 EB 01           sub         ebx,1
  00406120: 89 FA              mov         edx,edi
  00406122: E8 99 F8 FF FF     call        004059C0
  00406127: 8D 43 01           lea         eax,[ebx+1]
  0040612A: 85 C0              test        eax,eax
  0040612C: 7F EA              jg          00406118
  0040612E: 31 C0              xor         eax,eax
  00406130: 85 F6              test        esi,esi
  00406132: 8B 5D E4           mov         ebx,dword ptr [ebp-1Ch]
  00406135: 8D 7E FF           lea         edi,[esi-1]
  00406138: 0F 49 C6           cmovns      eax,esi
  0040613B: 29 C7              sub         edi,eax
  0040613D: 8D 77 FF           lea         esi,[edi-1]
  00406140: E9 55 FF FF FF     jmp         0040609A
  00406145: 8D 77 FD           lea         esi,[edi-3]
  00406148: 89 C7              mov         edi,eax
  0040614A: 8D B6 00 00 00 00  lea         esi,[esi]
  00406150: 0F B6 55 D8        movzx       edx,byte ptr [ebp-28h]
  00406154: C6 43 01 30        mov         byte ptr [ebx+1],30h
  00406158: 88 13              mov         byte ptr [ebx],dl
  0040615A: 83 C3 02           add         ebx,2
  0040615D: E9 2B FF FF FF     jmp         0040608D
  00406162: 8D 47 FE           lea         eax,[edi-2]
  00406165: 85 C0              test        eax,eax
  00406167: 7E DC              jle         00406145
  00406169: 8B 55 08           mov         edx,dword ptr [ebp+8]
  0040616C: 89 C7              mov         edi,eax
  0040616E: 8B 42 0C           mov         eax,dword ptr [edx+0Ch]
  00406171: 85 C0              test        eax,eax
  00406173: 0F 89 FE FE FF FF  jns         00406077
  00406179: 8B 4D 08           mov         ecx,dword ptr [ebp+8]
  0040617C: 8B 41 04           mov         eax,dword ptr [ecx+4]
  0040617F: 25 00 06 00 00     and         eax,600h
  00406184: 3D 00 02 00 00     cmp         eax,200h
  00406189: 0F 85 E8 FE FF FF  jne         00406077
  0040618F: 01 DF              add         edi,ebx
  00406191: C6 03 30           mov         byte ptr [ebx],30h
  00406194: 83 C3 01           add         ebx,1
  00406197: 39 FB              cmp         ebx,edi
  00406199: 75 F6              jne         00406191
  0040619B: BE FE FF FF FF     mov         esi,0FFFFFFFEh
  004061A0: BF FF FF FF FF     mov         edi,0FFFFFFFFh
  004061A5: E9 D0 FE FF FF     jmp         0040607A
  004061AA: 8D B6 00 00 00 00  lea         esi,[esi]
  004061B0: 89 C8              mov         eax,ecx
  004061B2: BA 56 55 55 55     mov         edx,55555556h
  004061B7: F7 EA              imul        edx
  004061B9: 89 C8              mov         eax,ecx
  004061BB: C1 F8 1F           sar         eax,1Fh
  004061BE: 29 C2              sub         edx,eax
  004061C0: 01 D1              add         ecx,edx
  004061C2: E9 C7 FD FF FF     jmp         00405F8E
  004061C7: 83 7D D8 6F        cmp         dword ptr [ebp-28h],6Fh
  004061CB: 0F 85 5F FE FF FF  jne         00406030
  004061D1: 8B 4D 08           mov         ecx,dword ptr [ebp+8]
  004061D4: F6 41 05 08        test        byte ptr [ecx+5],8
  004061D8: 0F 84 52 FE FF FF  je          00406030
  004061DE: C6 03 30           mov         byte ptr [ebx],30h
  004061E1: 83 C3 01           add         ebx,1
  004061E4: E9 47 FE FF FF     jmp         00406030
  004061E9: 8D B4 26 00 00 00  lea         esi,[esi]
            00
  004061F0: 8B 45 08           mov         eax,dword ptr [ebp+8]
  004061F3: 8B 40 0C           mov         eax,dword ptr [eax+0Ch]
  004061F6: 85 C0              test        eax,eax
  004061F8: 0F 84 3B FE FF FF  je          00406039
  004061FE: C6 03 30           mov         byte ptr [ebx],30h
  00406201: 83 C3 01           add         ebx,1
  00406204: E9 30 FE FF FF     jmp         00406039
  00406209: 8D B4 26 00 00 00  lea         esi,[esi]
            00
  00406210: 8B 45 C8           mov         eax,dword ptr [ebp-38h]
  00406213: 8B 55 08           mov         edx,dword ptr [ebp+8]
  00406216: 8B 5D DC           mov         ebx,dword ptr [ebp-24h]
  00406219: 80 E4 F7           and         ah,0F7h
  0040621C: 89 42 04           mov         dword ptr [edx+4],eax
  0040621F: E9 E5 FD FF FF     jmp         00406009
  00406224: 8D B6 00 00 00 00  lea         esi,[esi]
  0040622A: 8D BF 00 00 00 00  lea         edi,[edi]
  00406230: 55                 push        ebp
  00406231: 89 E5              mov         ebp,esp
  00406233: 57                 push        edi
  00406234: 56                 push        esi
  00406235: 53                 push        ebx
  00406236: 89 C3              mov         ebx,eax
  00406238: 83 EC 3C           sub         esp,3Ch
  0040623B: 83 78 10 FD        cmp         dword ptr [eax+10h],0FFFFFFFDh
  0040623F: 0F 84 7F 00 00 00  je          004062C4
  00406245: 0F B7 50 14        movzx       edx,word ptr [eax+14h]
  00406249: 66 85 D2           test        dx,dx
  0040624C: 74 54              je          004062A2
  0040624E: 8B 43 10           mov         eax,dword ptr [ebx+10h]
  00406251: 89 65 D4           mov         dword ptr [ebp-2Ch],esp
  00406254: 83 C0 0F           add         eax,0Fh
  00406257: 83 E0 F0           and         eax,0FFFFFFF0h
  0040625A: E8 59 C5 FF FF     call        004027B8
  0040625F: 29 C4              sub         esp,eax
  00406261: 8D 7C 24 10        lea         edi,[esp+10h]
  00406265: 8D 45 E4           lea         eax,[ebp-1Ch]
  00406268: C7 45 E4 00 00 00  mov         dword ptr [ebp-1Ch],0
            00
  0040626F: 89 44 24 08        mov         dword ptr [esp+8],eax
  00406273: 89 54 24 04        mov         dword ptr [esp+4],edx
  00406277: 89 3C 24           mov         dword ptr [esp],edi
  0040627A: E8 D1 37 00 00     call        00409A50
  0040627F: 85 C0              test        eax,eax
  00406281: 7E 33              jle         004062B6
  00406283: 8D 34 07           lea         esi,[edi+eax]
  00406286: 0F BE 07           movsx       eax,byte ptr [edi]
  00406289: 89 DA              mov         edx,ebx
  0040628B: 83 C7 01           add         edi,1
  0040628E: E8 2D F7 FF FF     call        004059C0
  00406293: 39 F7              cmp         edi,esi
  00406295: 75 EF              jne         00406286
  00406297: 8B 65 D4           mov         esp,dword ptr [ebp-2Ch]
  0040629A: 8D 65 F4           lea         esp,[ebp-0Ch]
  0040629D: 5B                 pop         ebx
  0040629E: 5E                 pop         esi
  0040629F: 5F                 pop         edi
  004062A0: 5D                 pop         ebp
  004062A1: C3                 ret
  004062A2: 89 DA              mov         edx,ebx
  004062A4: B8 2E 00 00 00     mov         eax,2Eh
  004062A9: E8 12 F7 FF FF     call        004059C0
  004062AE: 8D 65 F4           lea         esp,[ebp-0Ch]
  004062B1: 5B                 pop         ebx
  004062B2: 5E                 pop         esi
  004062B3: 5F                 pop         edi
  004062B4: 5D                 pop         ebp
  004062B5: C3                 ret
  004062B6: 89 DA              mov         edx,ebx
  004062B8: B8 2E 00 00 00     mov         eax,2Eh
  004062BD: E8 FE F6 FF FF     call        004059C0
  004062C2: EB D3              jmp         00406297
  004062C4: C7 45 E4 00 00 00  mov         dword ptr [ebp-1Ch],0
            00
  004062CB: E8 E8 7C 00 00     call        0040DFB8
  004062D0: 8D 55 E4           lea         edx,[ebp-1Ch]
  004062D3: 89 54 24 0C        mov         dword ptr [esp+0Ch],edx
  004062D7: C7 44 24 08 10 00  mov         dword ptr [esp+8],10h
            00 00
  004062DF: 8B 00              mov         eax,dword ptr [eax]
  004062E1: 89 44 24 04        mov         dword ptr [esp+4],eax
  004062E5: 8D 45 E2           lea         eax,[ebp-1Eh]
  004062E8: 89 04 24           mov         dword ptr [esp],eax
  004062EB: E8 10 17 00 00     call        00407A00
  004062F0: 85 C0              test        eax,eax
  004062F2: 7E 10              jle         00406304
  004062F4: 0F B7 55 E2        movzx       edx,word ptr [ebp-1Eh]
  004062F8: 66 89 53 14        mov         word ptr [ebx+14h],dx
  004062FC: 89 43 10           mov         dword ptr [ebx+10h],eax
  004062FF: E9 45 FF FF FF     jmp         00406249
  00406304: 0F B7 53 14        movzx       edx,word ptr [ebx+14h]
  00406308: EB F2              jmp         004062FC
  0040630A: 8D B6 00 00 00 00  lea         esi,[esi]
  00406310: 55                 push        ebp
  00406311: 89 C5              mov         ebp,eax
  00406313: 57                 push        edi
  00406314: 89 CF              mov         edi,ecx
  00406316: 56                 push        esi
  00406317: 89 D6              mov         esi,edx
  00406319: 53                 push        ebx
  0040631A: 83 EC 1C           sub         esp,1Ch
  0040631D: 85 FF              test        edi,edi
  0040631F: 8B 5C 24 30        mov         ebx,dword ptr [esp+30h]
  00406323: 8B 4B 08           mov         ecx,dword ptr [ebx+8]
  00406326: 0F 8E 5A 02 00 00  jle         00406586
  0040632C: 39 CF              cmp         edi,ecx
  0040632E: 0F 8D 1C 01 00 00  jge         00406450
  00406334: 29 F9              sub         ecx,edi
  00406336: 89 4B 08           mov         dword ptr [ebx+8],ecx
  00406339: 85 C9              test        ecx,ecx
  0040633B: 0F 88 0F 01 00 00  js          00406450
  00406341: 8B 43 0C           mov         eax,dword ptr [ebx+0Ch]
  00406344: 39 C8              cmp         eax,ecx
  00406346: 0F 8D 04 01 00 00  jge         00406450
  0040634C: 29 C1              sub         ecx,eax
  0040634E: 85 C9              test        ecx,ecx
  00406350: 89 4B 08           mov         dword ptr [ebx+8],ecx
  00406353: 0F 8E 03 01 00 00  jle         0040645C
  00406359: 85 C0              test        eax,eax
  0040635B: 0F 8E A0 02 00 00  jle         00406601
  00406361: 83 E9 01           sub         ecx,1
  00406364: 85 FF              test        edi,edi
  00406366: 89 4B 08           mov         dword ptr [ebx+8],ecx
  00406369: 0F 8F F5 00 00 00  jg          00406464
  0040636F: 90                 nop
  00406370: 85 C9              test        ecx,ecx
  00406372: 7E 1E              jle         00406392
  00406374: 85 ED              test        ebp,ebp
  00406376: 0F 84 C5 01 00 00  je          00406541
  0040637C: 83 E9 01           sub         ecx,1
  0040637F: 85 C9              test        ecx,ecx
  00406381: 89 4B 08           mov         dword ptr [ebx+8],ecx
  00406384: 74 0C              je          00406392
  00406386: 8B 43 04           mov         eax,dword ptr [ebx+4]
  00406389: F6 C4 06           test        ah,6
  0040638C: 0F 84 41 01 00 00  je          004064D3
  00406392: 85 ED              test        ebp,ebp
  00406394: 0F 85 4E 01 00 00  jne         004064E8
  0040639A: 8B 43 04           mov         eax,dword ptr [ebx+4]
  0040639D: F6 C4 01           test        ah,1
  004063A0: 0F 85 FA 01 00 00  jne         004065A0
  004063A6: A8 40              test        al,40h
  004063A8: 0F 85 42 02 00 00  jne         004065F0
  004063AE: 8B 53 08           mov         edx,dword ptr [ebx+8]
  004063B1: 85 D2              test        edx,edx
  004063B3: 7E 13              jle         004063C8
  004063B5: 8B 43 04           mov         eax,dword ptr [ebx+4]
  004063B8: 25 00 06 00 00     and         eax,600h
  004063BD: 3D 00 02 00 00     cmp         eax,200h
  004063C2: 0F 84 E9 01 00 00  je          004065B1
  004063C8: 85 FF              test        edi,edi
  004063CA: 0F 8E 08 02 00 00  jle         004065D8
  004063D0: 8D 43 1C           lea         eax,[ebx+1Ch]
  004063D3: BD 56 55 55 55     mov         ebp,55555556h
  004063D8: 89 44 24 0C        mov         dword ptr [esp+0Ch],eax
  004063DC: 0F B6 16           movzx       edx,byte ptr [esi]
  004063DF: B8 30 00 00 00     mov         eax,30h
  004063E4: 84 D2              test        dl,dl
  004063E6: 74 06              je          004063EE
  004063E8: 0F BE C2           movsx       eax,dl
  004063EB: 83 C6 01           add         esi,1
  004063EE: 89 DA              mov         edx,ebx
  004063F0: E8 CB F5 FF FF     call        004059C0
  004063F5: 83 EF 01           sub         edi,1
  004063F8: 0F 85 02 01 00 00  jne         00406500
  004063FE: 8B 43 0C           mov         eax,dword ptr [ebx+0Ch]
  00406401: 85 C0              test        eax,eax
  00406403: 0F 8E 4C 01 00 00  jle         00406555
  00406409: 89 D8              mov         eax,ebx
  0040640B: E8 20 FE FF FF     call        00406230
  00406410: 85 FF              test        edi,edi
  00406412: 8B 43 0C           mov         eax,dword ptr [ebx+0Ch]
  00406415: 74 25              je          0040643C
  00406417: E9 4B 01 00 00     jmp         00406567
  0040641C: 8D 74 26 00        lea         esi,[esi]
  00406420: 0F B6 16           movzx       edx,byte ptr [esi]
  00406423: B8 30 00 00 00     mov         eax,30h
  00406428: 84 D2              test        dl,dl
  0040642A: 74 06              je          00406432
  0040642C: 0F BE C2           movsx       eax,dl
  0040642F: 83 C6 01           add         esi,1
  00406432: 89 DA              mov         edx,ebx
  00406434: E8 87 F5 FF FF     call        004059C0
  00406439: 8B 43 0C           mov         eax,dword ptr [ebx+0Ch]
  0040643C: 8D 50 FF           lea         edx,[eax-1]
  0040643F: 85 C0              test        eax,eax
  00406441: 89 53 0C           mov         dword ptr [ebx+0Ch],edx
  00406444: 7F DA              jg          00406420
  00406446: 83 C4 1C           add         esp,1Ch
  00406449: 5B                 pop         ebx
  0040644A: 5E                 pop         esi
  0040644B: 5F                 pop         edi
  0040644C: 5D                 pop         ebp
  0040644D: C3                 ret
  0040644E: 66
  0040644F: 90                 nop
  00406450: C7 43 08 FF FF FF  mov         dword ptr [ebx+8],0FFFFFFFFh
            FF
  00406457: B9 FF FF FF FF     mov         ecx,0FFFFFFFFh
  0040645C: 85 FF              test        edi,edi
  0040645E: 0F 8E 0C FF FF FF  jle         00406370
  00406464: F6 43 05 10        test        byte ptr [ebx+5],10h
  00406468: 0F 84 02 FF FF FF  je          00406370
  0040646E: 66 83 7B 1C 00     cmp         word ptr [ebx+1Ch],0
  00406473: 0F 84 F7 FE FF FF  je          00406370
  00406479: 8D 47 02           lea         eax,[edi+2]
  0040647C: BA 56 55 55 55     mov         edx,55555556h
  00406481: 89 44 24 0C        mov         dword ptr [esp+0Ch],eax
  00406485: F7 EA              imul        edx
  00406487: 8B 44 24 0C        mov         eax,dword ptr [esp+0Ch]
  0040648B: C1 F8 1F           sar         eax,1Fh
  0040648E: 29 C2              sub         edx,eax
  00406490: 83 FA 01           cmp         edx,1
  00406493: 0F 8E D7 FE FF FF  jle         00406370
  00406499: 85 C9              test        ecx,ecx
  0040649B: 0F 8E F1 FE FF FF  jle         00406392
  004064A1: 89 C8              mov         eax,ecx
  004064A3: 29 D0              sub         eax,edx
  004064A5: 83 C0 01           add         eax,1
  004064A8: EB 0E              jmp         004064B8
  004064AA: 8D B6 00 00 00 00  lea         esi,[esi]
  004064B0: 85 C9              test        ecx,ecx
  004064B2: 0F 84 5D 01 00 00  je          00406615
  004064B8: 83 E9 01           sub         ecx,1
  004064BB: 39 C1              cmp         ecx,eax
  004064BD: 75 F1              jne         004064B0
  004064BF: 89 4B 08           mov         dword ptr [ebx+8],ecx
  004064C2: E9 A9 FE FF FF     jmp         00406370
  004064C7: 89 DA              mov         edx,ebx
  004064C9: B8 20 00 00 00     mov         eax,20h
  004064CE: E8 ED F4 FF FF     call        004059C0
  004064D3: 8B 43 08           mov         eax,dword ptr [ebx+8]
  004064D6: 8D 50 FF           lea         edx,[eax-1]
  004064D9: 85 C0              test        eax,eax
  004064DB: 89 53 08           mov         dword ptr [ebx+8],edx
  004064DE: 7F E7              jg          004064C7
  004064E0: 85 ED              test        ebp,ebp
  004064E2: 0F 84 B2 FE FF FF  je          0040639A
  004064E8: 89 DA              mov         edx,ebx
  004064EA: B8 2D 00 00 00     mov         eax,2Dh
  004064EF: E8 CC F4 FF FF     call        004059C0
  004064F4: E9 B5 FE FF FF     jmp         004063AE
  004064F9: 8D B4 26 00 00 00  lea         esi,[esi]
            00
  00406500: F6 43 05 10        test        byte ptr [ebx+5],10h
  00406504: 0F 84 D2 FE FF FF  je          004063DC
  0040650A: 66 83 7B 1C 00     cmp         word ptr [ebx+1Ch],0
  0040650F: 90                 nop
  00406510: 0F 84 C6 FE FF FF  je          004063DC
  00406516: 89 F8              mov         eax,edi
  00406518: F7 ED              imul        ebp
  0040651A: 89 F8              mov         eax,edi
  0040651C: C1 F8 1F           sar         eax,1Fh
  0040651F: 29 C2              sub         edx,eax
  00406521: 8D 04 52           lea         eax,[edx+edx*2]
  00406524: 39 C7              cmp         edi,eax
  00406526: 0F 85 B0 FE FF FF  jne         004063DC
  0040652C: 8B 44 24 0C        mov         eax,dword ptr [esp+0Ch]
  00406530: 89 D9              mov         ecx,ebx
  00406532: BA 01 00 00 00     mov         edx,1
  00406537: E8 E4 F4 FF FF     call        00405A20
  0040653C: E9 9B FE FF FF     jmp         004063DC
  00406541: 8B 43 04           mov         eax,dword ptr [ebx+4]
  00406544: A9 C0 01 00 00     test        eax,1C0h
  00406549: 0F 84 3A FE FF FF  je          00406389
  0040654F: 90                 nop
  00406550: E9 27 FE FF FF     jmp         0040637C
  00406555: F6 43 05 08        test        byte ptr [ebx+5],8
  00406559: 0F 85 AA FE FF FF  jne         00406409
  0040655F: 85 FF              test        edi,edi
  00406561: 0F 84 D5 FE FF FF  je          0040643C
  00406567: 01 F8              add         eax,edi
  00406569: 89 43 0C           mov         dword ptr [ebx+0Ch],eax
  0040656C: 8D 74 26 00        lea         esi,[esi]
  00406570: 89 DA              mov         edx,ebx
  00406572: B8 30 00 00 00     mov         eax,30h
  00406577: E8 44 F4 FF FF     call        004059C0
  0040657C: 83 C7 01           add         edi,1
  0040657F: 78 EF              js          00406570
  00406581: E9 B3 FE FF FF     jmp         00406439
  00406586: 85 C9              test        ecx,ecx
  00406588: 0F 8E AB FD FF FF  jle         00406339
  0040658E: 83 E9 01           sub         ecx,1
  00406591: 89 4B 08           mov         dword ptr [ebx+8],ecx
  00406594: E9 A8 FD FF FF     jmp         00406341
  00406599: 8D B4 26 00 00 00  lea         esi,[esi]
            00
  004065A0: 89 DA              mov         edx,ebx
  004065A2: B8 2B 00 00 00     mov         eax,2Bh
  004065A7: E8 14 F4 FF FF     call        004059C0
  004065AC: E9 FD FD FF FF     jmp         004063AE
  004065B1: 83 EA 01           sub         edx,1
  004065B4: 89 53 08           mov         dword ptr [ebx+8],edx
  004065B7: 89 DA              mov         edx,ebx
  004065B9: B8 30 00 00 00     mov         eax,30h
  004065BE: E8 FD F3 FF FF     call        004059C0
  004065C3: 8B 43 08           mov         eax,dword ptr [ebx+8]
  004065C6: 8D 50 FF           lea         edx,[eax-1]
  004065C9: 85 C0              test        eax,eax
  004065CB: 89 53 08           mov         dword ptr [ebx+8],edx
  004065CE: 7F E7              jg          004065B7
  004065D0: 85 FF              test        edi,edi
  004065D2: 0F 8F F8 FD FF FF  jg          004063D0
  004065D8: 89 DA              mov         edx,ebx
  004065DA: B8 30 00 00 00     mov         eax,30h
  004065DF: E8 DC F3 FF FF     call        004059C0
  004065E4: E9 15 FE FF FF     jmp         004063FE
  004065E9: 8D B4 26 00 00 00  lea         esi,[esi]
            00
  004065F0: 89 DA              mov         edx,ebx
  004065F2: B8 20 00 00 00     mov         eax,20h
  004065F7: E8 C4 F3 FF FF     call        004059C0
  004065FC: E9 AD FD FF FF     jmp         004063AE
  00406601: F6 43 05 08        test        byte ptr [ebx+5],8
  00406605: 0F 84 51 FE FF FF  je          0040645C
  0040660B: 90                 nop
  0040660C: 8D 74 26 00        lea         esi,[esi]
  00406610: E9 4C FD FF FF     jmp         00406361
  00406615: C7 43 08 00 00 00  mov         dword ptr [ebx+8],0
            00
  0040661C: E9 71 FD FF FF     jmp         00406392
  00406621: EB 0D              jmp         00406630
  00406623: 90                 nop
  00406624: 90                 nop
  00406625: 90                 nop
  00406626: 90                 nop
  00406627: 90                 nop
  00406628: 90                 nop
  00406629: 90                 nop
  0040662A: 90                 nop
  0040662B: 90                 nop
  0040662C: 90                 nop
  0040662D: 90                 nop
  0040662E: 90                 nop
  0040662F: 90                 nop
  00406630: 55                 push        ebp
  00406631: 83 E9 01           sub         ecx,1
  00406634: 57                 push        edi
  00406635: 89 D5              mov         ebp,edx
  00406637: 56                 push        esi
  00406638: BE 01 00 00 00     mov         esi,1
  0040663D: 53                 push        ebx
  0040663E: BB 67 66 66 66     mov         ebx,66666667h
  00406643: 83 EC 2C           sub         esp,2Ch
  00406646: 89 44 24 14        mov         dword ptr [esp+14h],eax
  0040664A: 89 C8              mov         eax,ecx
  0040664C: 8B 7C 24 40        mov         edi,dword ptr [esp+40h]
  00406650: C1 F8 1F           sar         eax,1Fh
  00406653: 89 44 24 1C        mov         dword ptr [esp+1Ch],eax
  00406657: 89 C8              mov         eax,ecx
  00406659: F7 EB              imul        ebx
  0040665B: 89 4C 24 18        mov         dword ptr [esp+18h],ecx
  0040665F: C1 F9 1F           sar         ecx,1Fh
  00406662: C1 FA 02           sar         edx,2
  00406665: 89 D3              mov         ebx,edx
  00406667: 29 CB              sub         ebx,ecx
  00406669: 74 18              je          00406683
  0040666B: B9 67 66 66 66     mov         ecx,66666667h
  00406670: 89 D8              mov         eax,ebx
  00406672: 83 C6 01           add         esi,1
  00406675: F7 E9              imul        ecx
  00406677: C1 FB 1F           sar         ebx,1Fh
  0040667A: C1 FA 02           sar         edx,2
  0040667D: 29 DA              sub         edx,ebx
  0040667F: 89 D3              mov         ebx,edx
  00406681: 75 ED              jne         00406670
  00406683: 8B 47 28           mov         eax,dword ptr [edi+28h]
  00406686: 8B 57 08           mov         edx,dword ptr [edi+8]
  00406689: 39 C6              cmp         esi,eax
  0040668B: 0F 4C F0           cmovl       esi,eax
  0040668E: 8D 46 02           lea         eax,[esi+2]
  00406691: 39 C2              cmp         edx,eax
  00406693: 7F 5B              jg          004066F0
  00406695: C7 47 08 FF FF FF  mov         dword ptr [edi+8],0FFFFFFFFh
            FF
  0040669C: 8B 44 24 14        mov         eax,dword ptr [esp+14h]
  004066A0: B9 01 00 00 00     mov         ecx,1
  004066A5: 89 EA              mov         edx,ebp
  004066A7: 89 3C 24           mov         dword ptr [esp],edi
  004066AA: 83 C6 01           add         esi,1
  004066AD: E8 5E FC FF FF     call        00406310
  004066B2: 8B 47 28           mov         eax,dword ptr [edi+28h]
  004066B5: 89 47 0C           mov         dword ptr [edi+0Ch],eax
  004066B8: 8B 47 04           mov         eax,dword ptr [edi+4]
  004066BB: 89 C2              mov         edx,eax
  004066BD: 83 E0 20           and         eax,20h
  004066C0: 81 CA C0 01 00 00  or          edx,1C0h
  004066C6: 83 C8 45           or          eax,45h
  004066C9: 89 57 04           mov         dword ptr [edi+4],edx
  004066CC: 89 FA              mov         edx,edi
  004066CE: E8 ED F2 FF FF     call        004059C0
  004066D3: 8B 44 24 18        mov         eax,dword ptr [esp+18h]
  004066D7: 89 F9              mov         ecx,edi
  004066D9: 01 77 08           add         dword ptr [edi+8],esi
  004066DC: 8B 54 24 1C        mov         edx,dword ptr [esp+1Ch]
  004066E0: E8 7B F5 FF FF     call        00405C60
  004066E5: 83 C4 2C           add         esp,2Ch
  004066E8: 5B                 pop         ebx
  004066E9: 5E                 pop         esi
  004066EA: 5F                 pop         edi
  004066EB: 5D                 pop         ebp
  004066EC: C3                 ret
  004066ED: 8D 76 00           lea         esi,[esi]
  004066F0: 29 C2              sub         edx,eax
  004066F2: 89 57 08           mov         dword ptr [edi+8],edx
  004066F5: EB A5              jmp         0040669C
  004066F7: 89 F6              mov         esi,esi
  004066F9: 8D BC 27 00 00 00  lea         edi,[edi]
            00
  00406700: 57                 push        edi
  00406701: 56                 push        esi
  00406702: 53                 push        ebx
  00406703: 89 C3              mov         ebx,eax
  00406705: 83 EC 40           sub         esp,40h
  00406708: 8B 40 0C           mov         eax,dword ptr [eax+0Ch]
  0040670B: 85 C0              test        eax,eax
  0040670D: 0F 88 9D 00 00 00  js          004067B0
  00406713: DB 6C 24 50        fld         tbyte ptr [esp+50h]
  00406717: 89 44 24 10        mov         dword ptr [esp+10h],eax
  0040671B: 8D 54 24 28        lea         edx,[esp+28h]
  0040671F: DB 7C 24 30        fstp        tbyte ptr [esp+30h]
  00406723: 8B 44 24 30        mov         eax,dword ptr [esp+30h]
  00406727: 89 54 24 18        mov         dword ptr [esp+18h],edx
  0040672B: 8D 54 24 2C        lea         edx,[esp+2Ch]
  0040672F: 89 54 24 14        mov         dword ptr [esp+14h],edx
  00406733: 89 04 24           mov         dword ptr [esp],eax
  00406736: 8B 44 24 34        mov         eax,dword ptr [esp+34h]
  0040673A: 89 44 24 04        mov         dword ptr [esp+4],eax
  0040673E: 8B 44 24 38        mov         eax,dword ptr [esp+38h]
  00406742: 89 44 24 08        mov         dword ptr [esp+8],eax
  00406746: 8B 44 24 3C        mov         eax,dword ptr [esp+3Ch]
  0040674A: 89 44 24 0C        mov         dword ptr [esp+0Ch],eax
  0040674E: B8 03 00 00 00     mov         eax,3
  00406753: E8 68 F1 FF FF     call        004058C0
  00406758: 8B 4C 24 2C        mov         ecx,dword ptr [esp+2Ch]
  0040675C: 81 F9 00 80 FF FF  cmp         ecx,0FFFF8000h
  00406762: 89 C7              mov         edi,eax
  00406764: 74 5B              je          004067C1
  00406766: 89 C2              mov         edx,eax
  00406768: 8B 44 24 28        mov         eax,dword ptr [esp+28h]
  0040676C: 89 1C 24           mov         dword ptr [esp],ebx
  0040676F: E8 9C FB FF FF     call        00406310
  00406774: 8B 43 08           mov         eax,dword ptr [ebx+8]
  00406777: 8D 50 FF           lea         edx,[eax-1]
  0040677A: 85 C0              test        eax,eax
  0040677C: 89 53 08           mov         dword ptr [ebx+8],edx
  0040677F: 7E 19              jle         0040679A
  00406781: 89 DA              mov         edx,ebx
  00406783: B8 20 00 00 00     mov         eax,20h
  00406788: E8 33 F2 FF FF     call        004059C0
  0040678D: 8B 4B 08           mov         ecx,dword ptr [ebx+8]
  00406790: 8D 71 FF           lea         esi,[ecx-1]
  00406793: 85 C9              test        ecx,ecx
  00406795: 89 73 08           mov         dword ptr [ebx+8],esi
  00406798: 7F E7              jg          00406781
  0040679A: 89 3C 24           mov         dword ptr [esp],edi
  0040679D: E8 9E 34 00 00     call        00409C40
  004067A2: 83 C4 40           add         esp,40h
  004067A5: 5B                 pop         ebx
  004067A6: 5E                 pop         esi
  004067A7: 5F                 pop         edi
  004067A8: C3                 ret
  004067A9: 8D B4 26 00 00 00  lea         esi,[esi]
            00
  004067B0: C7 43 0C 06 00 00  mov         dword ptr [ebx+0Ch],6
            00
  004067B7: B8 06 00 00 00     mov         eax,6
  004067BC: E9 52 FF FF FF     jmp         00406713
  004067C1: 89 C2              mov         edx,eax
  004067C3: 8B 44 24 28        mov         eax,dword ptr [esp+28h]
  004067C7: 89 D9              mov         ecx,ebx
  004067C9: E8 F2 F3 FF FF     call        00405BC0
  004067CE: 89 3C 24           mov         dword ptr [esp],edi
  004067D1: E8 6A 34 00 00     call        00409C40
  004067D6: 83 C4 40           add         esp,40h
  004067D9: 5B                 pop         ebx
  004067DA: 5E                 pop         esi
  004067DB: 5F                 pop         edi
  004067DC: C3                 ret
  004067DD: 8D 76 00           lea         esi,[esi]
  004067E0: 57                 push        edi
  004067E1: 56                 push        esi
  004067E2: 53                 push        ebx
  004067E3: 89 C3              mov         ebx,eax
  004067E5: 83 EC 40           sub         esp,40h
  004067E8: 8B 40 0C           mov         eax,dword ptr [eax+0Ch]
  004067EB: 83 F8 00           cmp         eax,0
  004067EE: 0F 8C 23 01 00 00  jl          00406917
  004067F4: 0F 84 06 01 00 00  je          00406900
  004067FA: DB 6C 24 50        fld         tbyte ptr [esp+50h]
  004067FE: 89 44 24 10        mov         dword ptr [esp+10h],eax
  00406802: 8D 54 24 28        lea         edx,[esp+28h]
  00406806: DB 7C 24 30        fstp        tbyte ptr [esp+30h]
  0040680A: 8B 44 24 30        mov         eax,dword ptr [esp+30h]
  0040680E: 89 54 24 18        mov         dword ptr [esp+18h],edx
  00406812: 8D 54 24 2C        lea         edx,[esp+2Ch]
  00406816: 89 54 24 14        mov         dword ptr [esp+14h],edx
  0040681A: 89 04 24           mov         dword ptr [esp],eax
  0040681D: 8B 44 24 34        mov         eax,dword ptr [esp+34h]
  00406821: 89 44 24 04        mov         dword ptr [esp+4],eax
  00406825: 8B 44 24 38        mov         eax,dword ptr [esp+38h]
  00406829: 89 44 24 08        mov         dword ptr [esp+8],eax
  0040682D: 8B 44 24 3C        mov         eax,dword ptr [esp+3Ch]
  00406831: 89 44 24 0C        mov         dword ptr [esp+0Ch],eax
  00406835: B8 02 00 00 00     mov         eax,2
  0040683A: E8 81 F0 FF FF     call        004058C0
  0040683F: 8B 74 24 2C        mov         esi,dword ptr [esp+2Ch]
  00406843: 81 FE 00 80 FF FF  cmp         esi,0FFFF8000h
  00406849: 89 C7              mov         edi,eax
  0040684B: 0F 84 E1 00 00 00  je          00406932
  00406851: 83 FE FD           cmp         esi,0FFFFFFFDh
  00406854: 7C 72              jl          004068C8
  00406856: 8B 43 0C           mov         eax,dword ptr [ebx+0Ch]
  00406859: 39 C6              cmp         esi,eax
  0040685B: 7F 6B              jg          004068C8
  0040685D: F6 43 05 08        test        byte ptr [ebx+5],8
  00406861: 0F 85 C1 00 00 00  jne         00406928
  00406867: 89 3C 24           mov         dword ptr [esp],edi
  0040686A: E8 C1 76 00 00     call        0040DF30
  0040686F: 29 F0              sub         eax,esi
  00406871: 85 C0              test        eax,eax
  00406873: 89 43 0C           mov         dword ptr [ebx+0Ch],eax
  00406876: 0F 88 C5 00 00 00  js          00406941
  0040687C: 8B 44 24 28        mov         eax,dword ptr [esp+28h]
  00406880: 89 FA              mov         edx,edi
  00406882: 89 F1              mov         ecx,esi
  00406884: 89 1C 24           mov         dword ptr [esp],ebx
  00406887: E8 84 FA FF FF     call        00406310
  0040688C: 8B 43 08           mov         eax,dword ptr [ebx+8]
  0040688F: 8D 50 FF           lea         edx,[eax-1]
  00406892: 85 C0              test        eax,eax
  00406894: 89 53 08           mov         dword ptr [ebx+8],edx
  00406897: 7E 53              jle         004068EC
  00406899: 8D B4 26 00 00 00  lea         esi,[esi]
            00
  004068A0: 89 DA              mov         edx,ebx
  004068A2: B8 20 00 00 00     mov         eax,20h
  004068A7: E8 14 F1 FF FF     call        004059C0
  004068AC: 8B 4B 08           mov         ecx,dword ptr [ebx+8]
  004068AF: 8D 71 FF           lea         esi,[ecx-1]
  004068B2: 85 C9              test        ecx,ecx
  004068B4: 89 73 08           mov         dword ptr [ebx+8],esi
  004068B7: 7F E7              jg          004068A0
  004068B9: 89 3C 24           mov         dword ptr [esp],edi
  004068BC: E8 7F 33 00 00     call        00409C40
  004068C1: 83 C4 40           add         esp,40h
  004068C4: 5B                 pop         ebx
  004068C5: 5E                 pop         esi
  004068C6: 5F                 pop         edi
  004068C7: C3                 ret
  004068C8: F6 43 05 08        test        byte ptr [ebx+5],8
  004068CC: 75 43              jne         00406911
  004068CE: 89 3C 24           mov         dword ptr [esp],edi
  004068D1: E8 5A 76 00 00     call        0040DF30
  004068D6: 83 E8 01           sub         eax,1
  004068D9: 89 43 0C           mov         dword ptr [ebx+0Ch],eax
  004068DC: 8B 44 24 28        mov         eax,dword ptr [esp+28h]
  004068E0: 89 F1              mov         ecx,esi
  004068E2: 89 FA              mov         edx,edi
  004068E4: 89 1C 24           mov         dword ptr [esp],ebx
  004068E7: E8 44 FD FF FF     call        00406630
  004068EC: 89 3C 24           mov         dword ptr [esp],edi
  004068EF: E8 4C 33 00 00     call        00409C40
  004068F4: 83 C4 40           add         esp,40h
  004068F7: 5B                 pop         ebx
  004068F8: 5E                 pop         esi
  004068F9: 5F                 pop         edi
  004068FA: C3                 ret
  004068FB: 90                 nop
  004068FC: 8D 74 26 00        lea         esi,[esi]
  00406900: C7 43 0C 01 00 00  mov         dword ptr [ebx+0Ch],1
            00
  00406907: B8 01 00 00 00     mov         eax,1
  0040690C: E9 E9 FE FF FF     jmp         004067FA
  00406911: 83 6B 0C 01        sub         dword ptr [ebx+0Ch],1
  00406915: EB C5              jmp         004068DC
  00406917: C7 43 0C 06 00 00  mov         dword ptr [ebx+0Ch],6
            00
  0040691E: B8 06 00 00 00     mov         eax,6
  00406923: E9 D2 FE FF FF     jmp         004067FA
  00406928: 29 F0              sub         eax,esi
  0040692A: 89 43 0C           mov         dword ptr [ebx+0Ch],eax
  0040692D: E9 4A FF FF FF     jmp         0040687C
  00406932: 89 C2              mov         edx,eax
  00406934: 8B 44 24 28        mov         eax,dword ptr [esp+28h]
  00406938: 89 D9              mov         ecx,ebx
  0040693A: E8 81 F2 FF FF     call        00405BC0
  0040693F: EB AB              jmp         004068EC
  00406941: 8B 53 08           mov         edx,dword ptr [ebx+8]
  00406944: 85 D2              test        edx,edx
  00406946: 0F 8E 30 FF FF FF  jle         0040687C
  0040694C: 01 D0              add         eax,edx
  0040694E: 89 43 08           mov         dword ptr [ebx+8],eax
  00406951: E9 26 FF FF FF     jmp         0040687C
  00406956: 8D 76 00           lea         esi,[esi]
  00406959: 8D BC 27 00 00 00  lea         edi,[edi]
            00
  00406960: 55                 push        ebp
  00406961: 57                 push        edi
  00406962: 89 C7              mov         edi,eax
  00406964: 56                 push        esi
  00406965: 53                 push        ebx
  00406966: 83 EC 5C           sub         esp,5Ch
  00406969: DB 6C 24 70        fld         tbyte ptr [esp+70h]
  0040696D: D9 C0              fld         st(0)
  0040696F: DB 7C 24 28        fstp        tbyte ptr [esp+28h]
  00406973: D9 E5              fxam
  00406975: 9B                 wait
  00406976: DF E0              fnstsw      ax
  00406978: 66 25 00 45        and         ax,4500h
  0040697C: 66 3D 00 01        cmp         ax,100h
  00406980: 0F 84 5E 04 00 00  je          00406DE4
  00406986: 0F B7 5C 24 30     movzx       ebx,word ptr [esp+30h]
  0040698B: 89 DE              mov         esi,ebx
  0040698D: 81 E6 00 80 00 00  and         esi,8000h
  00406993: 0F 85 A7 01 00 00  jne         00406B40
  00406999: D9 E5              fxam
  0040699B: 9B                 wait
  0040699C: DF E0              fnstsw      ax
  0040699E: DD D8              fstp        st(0)
  004069A0: 66 25 00 45        and         ax,4500h
  004069A4: 66 3D 00 05        cmp         ax,500h
  004069A8: 0F 84 48 04 00 00  je          00406DF6
  004069AE: 66 81 E3 FF 7F     and         bx,7FFFh
  004069B3: 0F 84 97 01 00 00  je          00406B50
  004069B9: 8B 44 24 28        mov         eax,dword ptr [esp+28h]
  004069BD: 66 81 EB FF 3F     sub         bx,3FFFh
  004069C2: 8B 54 24 2C        mov         edx,dword ptr [esp+2Ch]
  004069C6: 66 89 5C 24 0A     mov         word ptr [esp+0Ah],bx
  004069CB: 8B 77 0C           mov         esi,dword ptr [edi+0Ch]
  004069CE: 83 FE 0E           cmp         esi,0Eh
  004069D1: 0F 87 9A 00 00 00  ja          00406A71
  004069D7: 85 D2              test        edx,edx
  004069D9: 78 14              js          004069EF
  004069DB: 0F B7 5C 24 0A     movzx       ebx,word ptr [esp+0Ah]
  004069E0: 0F A4 C2 01        shld        edx,eax,1
  004069E4: 01 C0              add         eax,eax
  004069E6: 85 D2              test        edx,edx
  004069E8: 79 F6              jns         004069E0
  004069EA: 66 89 5C 24 0A     mov         word ptr [esp+0Ah],bx
  004069EF: 89 C1              mov         ecx,eax
  004069F1: B8 0E 00 00 00     mov         eax,0Eh
  004069F6: 0F AC D1 01        shrd        ecx,edx,1
  004069FA: 29 F0              sub         eax,esi
  004069FC: 89 D3              mov         ebx,edx
  004069FE: 31 D2              xor         edx,edx
_mbrtowc:
  00406A00: D1 EB              shr         ebx,1
  00406A02: 89 0C 24           mov         dword ptr [esp],ecx
  00406A05: 8D 0C 85 00 00 00  lea         ecx,[eax*4]
            00
  00406A0C: B8 04 00 00 00     mov         eax,4
  00406A11: 89 5C 24 04        mov         dword ptr [esp+4],ebx
  00406A15: 0F A5 C2           shld        edx,eax,cl
  00406A18: 31 DB              xor         ebx,ebx
  00406A1A: D3 E0              shl         eax,cl
  00406A1C: F6 C1 20           test        cl,20h
  00406A1F: 0F 45 D0           cmovne      edx,eax
  00406A22: 0F 45 C3           cmovne      eax,ebx
  00406A25: 01 04 24           add         dword ptr [esp],eax
  00406A28: 11 54 24 04        adc         dword ptr [esp+4],edx
  00406A2C: 8B 6C 24 04        mov         ebp,dword ptr [esp+4]
  00406A30: 85 ED              test        ebp,ebp
  00406A32: 0F 88 A1 03 00 00  js          00406DD9
  00406A38: 8B 04 24           mov         eax,dword ptr [esp]
  00406A3B: 8B 54 24 04        mov         edx,dword ptr [esp+4]
  00406A3F: 0F A4 C2 01        shld        edx,eax,1
  00406A43: 01 C0              add         eax,eax
  00406A45: 89 04 24           mov         dword ptr [esp],eax
  00406A48: 89 54 24 04        mov         dword ptr [esp+4],edx
  00406A4C: B8 0F 00 00 00     mov         eax,0Fh
  00406A51: 8B 54 24 04        mov         edx,dword ptr [esp+4]
  00406A55: 31 DB              xor         ebx,ebx
  00406A57: 29 F0              sub         eax,esi
  00406A59: 8D 0C 85 00 00 00  lea         ecx,[eax*4]
            00
  00406A60: 8B 04 24           mov         eax,dword ptr [esp]
  00406A63: 0F AD D0           shrd        eax,edx,cl
  00406A66: D3 EA              shr         edx,cl
  00406A68: 83 E1 20           and         ecx,20h
  00406A6B: 0F 45 C2           cmovne      eax,edx
  00406A6E: 0F 45 D3           cmovne      edx,ebx
  00406A71: 89 D1              mov         ecx,edx
  00406A73: 8D 5C 24 38        lea         ebx,[esp+38h]
  00406A77: 09 C1              or          ecx,eax
  00406A79: 89 1C 24           mov         dword ptr [esp],ebx
  00406A7C: 0F 84 84 03 00 00  je          00406E06
  00406A82: 8B 4F 04           mov         ecx,dword ptr [edi+4]
  00406A85: 89 DE              mov         esi,ebx
  00406A87: 89 4C 24 14        mov         dword ptr [esp+14h],ecx
  00406A8B: 8B 5C 24 14        mov         ebx,dword ptr [esp+14h]
  00406A8F: 81 E1 00 08 00 00  and         ecx,800h
  00406A95: 89 4C 24 10        mov         dword ptr [esp+10h],ecx
  00406A99: 83 E3 20           and         ebx,20h
  00406A9C: 89 5C 24 0C        mov         dword ptr [esp+0Ch],ebx
  00406AA0: 0F B7 5C 24 0A     movzx       ebx,word ptr [esp+0Ah]
  00406AA5: EB 33              jmp         00406ADA
  00406AA7: 8B 4F 0C           mov         ecx,dword ptr [edi+0Ch]
  00406AAA: 85 C9              test        ecx,ecx
  00406AAC: 7E 06              jle         00406AB4
  00406AAE: 83 E9 01           sub         ecx,1
  00406AB1: 89 4F 0C           mov         dword ptr [edi+0Ch],ecx
  00406AB4: 0F AC D0 04        shrd        eax,edx,4
  00406AB8: C1 EA 04           shr         edx,4
  00406ABB: 85 ED              test        ebp,ebp
  00406ABD: 74 6E              je          00406B2D
  00406ABF: 83 FD 09           cmp         ebp,9
  00406AC2: 7E 75              jle         00406B39
  00406AC4: 8D 4D 37           lea         ecx,[ebp+37h]
  00406AC7: 0A 4C 24 0C        or          cl,byte ptr [esp+0Ch]
  00406ACB: 88 0E              mov         byte ptr [esi],cl
  00406ACD: 83 C6 01           add         esi,1
  00406AD0: 89 D1              mov         ecx,edx
  00406AD2: 09 C1              or          ecx,eax
  00406AD4: 0F 84 B6 00 00 00  je          00406B90
  00406ADA: 89 C5              mov         ebp,eax
  00406ADC: 83 E5 0F           and         ebp,0Fh
  00406ADF: 39 C5              cmp         ebp,eax
  00406AE1: 75 C4              jne         00406AA7
  00406AE3: 3B 34 24           cmp         esi,dword ptr [esp]
  00406AE6: 77 0F              ja          00406AF7
  00406AE8: 8B 4C 24 10        mov         ecx,dword ptr [esp+10h]
  00406AEC: 85 C9              test        ecx,ecx
  00406AEE: 75 07              jne         00406AF7
  00406AF0: 8B 4F 0C           mov         ecx,dword ptr [edi+0Ch]
  00406AF3: 85 C9              test        ecx,ecx
  00406AF5: 7E 06              jle         00406AFD
  00406AF7: C6 06 2E           mov         byte ptr [esi],2Eh
  00406AFA: 83 C6 01           add         esi,1
  00406AFD: 83 FA 00           cmp         edx,0
  00406B00: 77 05              ja          00406B07
  00406B02: 83 F8 01           cmp         eax,1
  00406B05: 76 1E              jbe         00406B25
  00406B07: 8D 4B FF           lea         ecx,[ebx-1]
  00406B0A: 8D B6 00 00 00 00  lea         esi,[esi]
  00406B10: 0F AC D0 01        shrd        eax,edx,1
  00406B14: 89 CB              mov         ebx,ecx
  00406B16: D1 EA              shr         edx,1
  00406B18: 83 FA 00           cmp         edx,0
  00406B1B: 8D 4B FF           lea         ecx,[ebx-1]
  00406B1E: 77 F0              ja          00406B10
  00406B20: 83 F8 01           cmp         eax,1
  00406B23: 77 EB              ja          00406B10
  00406B25: 31 C0              xor         eax,eax
  00406B27: 31 D2              xor         edx,edx
  00406B29: 85 ED              test        ebp,ebp
  00406B2B: 75 92              jne         00406ABF
  00406B2D: 3B 34 24           cmp         esi,dword ptr [esp]
  00406B30: 77 07              ja          00406B39
  00406B32: 8B 4F 0C           mov         ecx,dword ptr [edi+0Ch]
  00406B35: 85 C9              test        ecx,ecx
  00406B37: 78 97              js          00406AD0
  00406B39: 8D 4D 30           lea         ecx,[ebp+30h]
  00406B3C: EB 8D              jmp         00406ACB
  00406B3E: 66
  00406B3F: 90                 nop
  00406B40: 81 4F 04 80 00 00  or          dword ptr [edi+4],80h
            00
  00406B47: E9 4D FE FF FF     jmp         00406999
  00406B4C: 8D 74 26 00        lea         esi,[esi]
  00406B50: 8B 54 24 2C        mov         edx,dword ptr [esp+2Ch]
  00406B54: 8B 44 24 28        mov         eax,dword ptr [esp+28h]
  00406B58: 66 C7 44 24 0A 00  mov         word ptr [esp+0Ah],0
            00
  00406B5F: 89 D1              mov         ecx,edx
  00406B61: 09 C1              or          ecx,eax
  00406B63: 0F 84 62 FE FF FF  je          004069CB
  00406B69: 85 D2              test        edx,edx
  00406B6B: 0F 88 CE 02 00 00  js          00406E3F
  00406B71: B9 01 C0 FF FF     mov         ecx,0FFFFC001h
  00406B76: 0F A4 C2 01        shld        edx,eax,1
  00406B7A: 89 CB              mov         ebx,ecx
  00406B7C: 01 C0              add         eax,eax
  00406B7E: 83 E9 01           sub         ecx,1
  00406B81: 85 D2              test        edx,edx
  00406B83: 79 F1              jns         00406B76
  00406B85: 66 89 5C 24 0A     mov         word ptr [esp+0Ah],bx
  00406B8A: E9 3C FE FF FF     jmp         004069CB
  00406B8F: 90                 nop
  00406B90: 3B 34 24           cmp         esi,dword ptr [esp]
  00406B93: 66 89 5C 24 0A     mov         word ptr [esp+0Ah],bx
  00406B98: 0F 84 9C 02 00 00  je          00406E3A
  00406B9E: 8B 5C 24 14        mov         ebx,dword ptr [esp+14h]
  00406BA2: 89 5C 24 10        mov         dword ptr [esp+10h],ebx
  00406BA6: 8B 4F 08           mov         ecx,dword ptr [edi+8]
  00406BA9: 85 C9              test        ecx,ecx
  00406BAB: 89 4C 24 18        mov         dword ptr [esp+18h],ecx
  00406BAF: 0F 8E E4 01 00 00  jle         00406D99
  00406BB5: 8B 57 0C           mov         edx,dword ptr [edi+0Ch]
  00406BB8: 89 F0              mov         eax,esi
  00406BBA: 2B 04 24           sub         eax,dword ptr [esp]
  00406BBD: 0F BF 5C 24 0A     movsx       ebx,word ptr [esp+0Ah]
  00406BC2: 85 D2              test        edx,edx
  00406BC4: 8D 0C 10           lea         ecx,[eax+edx]
  00406BC7: 8B 54 24 14        mov         edx,dword ptr [esp+14h]
  00406BCB: 0F 4F C1           cmovg       eax,ecx
  00406BCE: 89 5C 24 0C        mov         dword ptr [esp+0Ch],ebx
  00406BD2: 81 E2 C0 01 00 00  and         edx,1C0h
  00406BD8: 83 FA 01           cmp         edx,1
  00406BDB: 19 D2              sbb         edx,edx
  00406BDD: 8D 6C 10 06        lea         ebp,[eax+edx+6]
  00406BE1: 89 D8              mov         eax,ebx
  00406BE3: BA 67 66 66 66     mov         edx,66666667h
  00406BE8: F7 EA              imul        edx
  00406BEA: 89 D8              mov         eax,ebx
  00406BEC: C1 F8 1F           sar         eax,1Fh
  00406BEF: C1 FA 02           sar         edx,2
  00406BF2: 89 D1              mov         ecx,edx
  00406BF4: 29 C1              sub         ecx,eax
  00406BF6: 0F 84 31 02 00 00  je          00406E2D
  00406BFC: BB 02 00 00 00     mov         ebx,2
  00406C01: B8 67 66 66 66     mov         eax,66666667h
  00406C06: 83 C5 01           add         ebp,1
  00406C09: F7 E9              imul        ecx
  00406C0B: 83 C3 01           add         ebx,1
  00406C0E: C1 F9 1F           sar         ecx,1Fh
  00406C11: C1 FA 02           sar         edx,2
  00406C14: 29 CA              sub         edx,ecx
  00406C16: 89 D1              mov         ecx,edx
  00406C18: 75 E7              jne         00406C01
  00406C1A: 0F BF DB           movsx       ebx,bx
  00406C1D: 89 5C 24 1C        mov         dword ptr [esp+1Ch],ebx
  00406C21: 39 6C 24 18        cmp         dword ptr [esp+18h],ebp
  00406C25: 7E 59              jle         00406C80
  00406C27: 8B 44 24 18        mov         eax,dword ptr [esp+18h]
  00406C2B: 29 E8              sub         eax,ebp
  00406C2D: F7 44 24 14 00 06  test        dword ptr [esp+14h],600h
            00 00
  00406C35: 0F 85 74 01 00 00  jne         00406DAF
  00406C3B: 8D 50 FF           lea         edx,[eax-1]
  00406C3E: 85 C0              test        eax,eax
  00406C40: 89 57 08           mov         dword ptr [edi+8],edx
  00406C43: 7E 42              jle         00406C87
  00406C45: 89 FA              mov         edx,edi
  00406C47: B8 20 00 00 00     mov         eax,20h
  00406C4C: E8 6F ED FF FF     call        004059C0
  00406C51: 8B 47 08           mov         eax,dword ptr [edi+8]
  00406C54: 8D 50 FF           lea         edx,[eax-1]
  00406C57: 85 C0              test        eax,eax
  00406C59: 89 57 08           mov         dword ptr [edi+8],edx
  00406C5C: 7F E7              jg          00406C45
  00406C5E: 8B 4F 04           mov         ecx,dword ptr [edi+4]
  00406C61: 89 4C 24 10        mov         dword ptr [esp+10h],ecx
  00406C65: F6 44 24 10 80     test        byte ptr [esp+10h],80h
  00406C6A: 74 22              je          00406C8E
  00406C6C: 8D 74 26 00        lea         esi,[esi]
  00406C70: 89 FA              mov         edx,edi
  00406C72: B8 2D 00 00 00     mov         eax,2Dh
  00406C77: E8 44 ED FF FF     call        004059C0
  00406C7C: EB 29              jmp         00406CA7
  00406C7E: 66
  00406C7F: 90                 nop
  00406C80: C7 47 08 FF FF FF  mov         dword ptr [edi+8],0FFFFFFFFh
            FF
  00406C87: F6 44 24 10 80     test        byte ptr [esp+10h],80h
  00406C8C: 75 E2              jne         00406C70
  00406C8E: F7 44 24 10 00 01  test        dword ptr [esp+10h],100h
            00 00
  00406C96: 0F 85 1B 01 00 00  jne         00406DB7
  00406C9C: F6 44 24 10 40     test        byte ptr [esp+10h],40h
  00406CA1: 0F 85 21 01 00 00  jne         00406DC8
  00406CA7: 89 FA              mov         edx,edi
  00406CA9: B8 30 00 00 00     mov         eax,30h
  00406CAE: E8 0D ED FF FF     call        004059C0
  00406CB3: 8B 47 04           mov         eax,dword ptr [edi+4]
  00406CB6: 89 FA              mov         edx,edi
  00406CB8: 83 E0 20           and         eax,20h
  00406CBB: 83 C8 58           or          eax,58h
  00406CBE: E8 FD EC FF FF     call        004059C0
  00406CC3: 8B 47 08           mov         eax,dword ptr [edi+8]
  00406CC6: 85 C0              test        eax,eax
  00406CC8: 7E 25              jle         00406CEF
  00406CCA: F6 47 05 02        test        byte ptr [edi+5],2
  00406CCE: 74 1F              je          00406CEF
  00406CD0: 83 E8 01           sub         eax,1
  00406CD3: 89 47 08           mov         dword ptr [edi+8],eax
  00406CD6: 89 FA              mov         edx,edi
  00406CD8: B8 30 00 00 00     mov         eax,30h
  00406CDD: E8 DE EC FF FF     call        004059C0
  00406CE2: 8B 47 08           mov         eax,dword ptr [edi+8]
  00406CE5: 8D 50 FF           lea         edx,[eax-1]
  00406CE8: 85 C0              test        eax,eax
  00406CEA: 89 57 08           mov         dword ptr [edi+8],edx
  00406CED: 7F E7              jg          00406CD6
  00406CEF: 3B 34 24           cmp         esi,dword ptr [esp]
  00406CF2: 8B 1C 24           mov         ebx,dword ptr [esp]
  00406CF5: 77 2D              ja          00406D24
  00406CF7: EB 53              jmp         00406D4C
  00406CF9: 8D B4 26 00 00 00  lea         esi,[esi]
            00
  00406D00: 0F B7 47 1C        movzx       eax,word ptr [edi+1Ch]
  00406D04: 66 85 C0           test        ax,ax
  00406D07: 66 89 44 24 26     mov         word ptr [esp+26h],ax
  00406D0C: 74 12              je          00406D20
  00406D0E: 89 F9              mov         ecx,edi
  00406D10: BA 01 00 00 00     mov         edx,1
  00406D15: 8D 44 24 26        lea         eax,[esp+26h]
  00406D19: E8 02 ED FF FF     call        00405A20
  00406D1E: 66
  00406D1F: 90                 nop
  00406D20: 39 DE              cmp         esi,ebx
  00406D22: 74 28              je          00406D4C
  00406D24: 83 EE 01           sub         esi,1
  00406D27: 0F BE 06           movsx       eax,byte ptr [esi]
  00406D2A: 83 F8 2E           cmp         eax,2Eh
  00406D2D: 74 61              je          00406D90
  00406D2F: 83 F8 2C           cmp         eax,2Ch
  00406D32: 74 CC              je          00406D00
  00406D34: 89 FA              mov         edx,edi
  00406D36: E8 85 EC FF FF     call        004059C0
  00406D3B: EB E3              jmp         00406D20
  00406D3D: 8D 76 00           lea         esi,[esi]
  00406D40: 89 FA              mov         edx,edi
  00406D42: B8 30 00 00 00     mov         eax,30h
  00406D47: E8 74 EC FF FF     call        004059C0
  00406D4C: 8B 47 0C           mov         eax,dword ptr [edi+0Ch]
  00406D4F: 8D 50 FF           lea         edx,[eax-1]
  00406D52: 85 C0              test        eax,eax
  00406D54: 89 57 0C           mov         dword ptr [edi+0Ch],edx
  00406D57: 7F E7              jg          00406D40
  00406D59: 8B 47 04           mov         eax,dword ptr [edi+4]
  00406D5C: 89 FA              mov         edx,edi
  00406D5E: 83 E0 20           and         eax,20h
  00406D61: 83 C8 50           or          eax,50h
  00406D64: E8 57 EC FF FF     call        004059C0
  00406D69: 8B 44 24 0C        mov         eax,dword ptr [esp+0Ch]
  00406D6D: 89 F9              mov         ecx,edi
  00406D6F: 8B 5C 24 1C        mov         ebx,dword ptr [esp+1Ch]
  00406D73: 01 5F 08           add         dword ptr [edi+8],ebx
  00406D76: 81 4F 04 C0 01 00  or          dword ptr [edi+4],1C0h
            00
  00406D7D: 89 C2              mov         edx,eax
  00406D7F: C1 FA 1F           sar         edx,1Fh
  00406D82: E8 D9 EE FF FF     call        00405C60
  00406D87: 83 C4 5C           add         esp,5Ch
  00406D8A: 5B                 pop         ebx
  00406D8B: 5E                 pop         esi
  00406D8C: 5F                 pop         edi
  00406D8D: 5D                 pop         ebp
  00406D8E: C3                 ret
  00406D8F: 90                 nop
  00406D90: 89 F8              mov         eax,edi
  00406D92: E8 99 F4 FF FF     call        00406230
  00406D97: EB 87              jmp         00406D20
  00406D99: 0F BF 5C 24 0A     movsx       ebx,word ptr [esp+0Ah]
  00406D9E: C7 44 24 1C 02 00  mov         dword ptr [esp+1Ch],2
            00 00
  00406DA6: 89 5C 24 0C        mov         dword ptr [esp+0Ch],ebx
  00406DAA: E9 D8 FE FF FF     jmp         00406C87
  00406DAF: 89 47 08           mov         dword ptr [edi+8],eax
  00406DB2: E9 D0 FE FF FF     jmp         00406C87
  00406DB7: 89 FA              mov         edx,edi
  00406DB9: B8 2B 00 00 00     mov         eax,2Bh
  00406DBE: E8 FD EB FF FF     call        004059C0
  00406DC3: E9 DF FE FF FF     jmp         00406CA7
  00406DC8: 89 FA              mov         edx,edi
  00406DCA: B8 20 00 00 00     mov         eax,20h
  00406DCF: E8 EC EB FF FF     call        004059C0
  00406DD4: E9 CE FE FF FF     jmp         00406CA7
  00406DD9: 66 83 44 24 0A 01  add         word ptr [esp+0Ah],1
  00406DDF: E9 68 FC FF FF     jmp         00406A4C
  00406DE4: DD D8              fstp        st(0)
  00406DE6: 89 F9              mov         ecx,edi
  00406DE8: BA 88 04 41 00     mov         edx,410488h
  00406DED: 31 C0              xor         eax,eax
  00406DEF: E8 CC ED FF FF     call        00405BC0
  00406DF4: EB 91              jmp         00406D87
  00406DF6: 89 F9              mov         ecx,edi
  00406DF8: BA 8C 04 41 00     mov         edx,41048Ch
  00406DFD: 89 F0              mov         eax,esi
  00406DFF: E8 BC ED FF FF     call        00405BC0
  00406E04: EB 81              jmp         00406D87
  00406E06: 8B 4F 04           mov         ecx,dword ptr [edi+4]
  00406E09: 89 4C 24 14        mov         dword ptr [esp+14h],ecx
  00406E0D: 85 F6              test        esi,esi
  00406E0F: 7E 3A              jle         00406E4B
  00406E11: 8B 4C 24 14        mov         ecx,dword ptr [esp+14h]
  00406E15: 89 4C 24 10        mov         dword ptr [esp+10h],ecx
  00406E19: C6 44 24 38 2E     mov         byte ptr [esp+38h],2Eh
  00406E1E: 8D 74 24 39        lea         esi,[esp+39h]
  00406E22: C6 06 30           mov         byte ptr [esi],30h
  00406E25: 83 C6 01           add         esi,1
  00406E28: E9 79 FD FF FF     jmp         00406BA6
  00406E2D: C7 44 24 1C 02 00  mov         dword ptr [esp+1Ch],2
            00 00
  00406E35: E9 E7 FD FF FF     jmp         00406C21
  00406E3A: 8B 77 0C           mov         esi,dword ptr [edi+0Ch]
  00406E3D: EB CE              jmp         00406E0D
  00406E3F: 66 C7 44 24 0A 02  mov         word ptr [esp+0Ah],0C002h
            C0
  00406E46: E9 80 FB FF FF     jmp         004069CB
  00406E4B: 8B 5C 24 14        mov         ebx,dword ptr [esp+14h]
  00406E4F: 8B 34 24           mov         esi,dword ptr [esp]
  00406E52: 89 5C 24 10        mov         dword ptr [esp+10h],ebx
  00406E56: 80 E7 08           and         bh,8
  00406E59: 74 C7              je          00406E22
  00406E5B: EB BC              jmp         00406E19
  00406E5D: 8D 76 00           lea         esi,[esi]
  00406E60: 56                 push        esi
  00406E61: 53                 push        ebx
  00406E62: 89 C3              mov         ebx,eax
  00406E64: 83 EC 44           sub         esp,44h
  00406E67: 8B 40 0C           mov         eax,dword ptr [eax+0Ch]
  00406E6A: 85 C0              test        eax,eax
  00406E6C: 78 72              js          00406EE0
  00406E6E: 83 C0 01           add         eax,1
  00406E71: DB 6C 24 50        fld         tbyte ptr [esp+50h]
  00406E75: 89 44 24 10        mov         dword ptr [esp+10h],eax
  00406E79: 8D 54 24 28        lea         edx,[esp+28h]
  00406E7D: DB 7C 24 30        fstp        tbyte ptr [esp+30h]
  00406E81: 8B 44 24 30        mov         eax,dword ptr [esp+30h]
  00406E85: 89 54 24 18        mov         dword ptr [esp+18h],edx
  00406E89: 8D 54 24 2C        lea         edx,[esp+2Ch]
  00406E8D: 89 54 24 14        mov         dword ptr [esp+14h],edx
  00406E91: 89 04 24           mov         dword ptr [esp],eax
  00406E94: 8B 44 24 34        mov         eax,dword ptr [esp+34h]
  00406E98: 89 44 24 04        mov         dword ptr [esp+4],eax
  00406E9C: 8B 44 24 38        mov         eax,dword ptr [esp+38h]
  00406EA0: 89 44 24 08        mov         dword ptr [esp+8],eax
  00406EA4: 8B 44 24 3C        mov         eax,dword ptr [esp+3Ch]
  00406EA8: 89 44 24 0C        mov         dword ptr [esp+0Ch],eax
  00406EAC: B8 02 00 00 00     mov         eax,2
  00406EB1: E8 0A EA FF FF     call        004058C0
  00406EB6: 8B 4C 24 2C        mov         ecx,dword ptr [esp+2Ch]
  00406EBA: 81 F9 00 80 FF FF  cmp         ecx,0FFFF8000h
  00406EC0: 89 C6              mov         esi,eax
  00406EC2: 74 2C              je          00406EF0
  00406EC4: 89 C2              mov         edx,eax
  00406EC6: 8B 44 24 28        mov         eax,dword ptr [esp+28h]
  00406ECA: 89 1C 24           mov         dword ptr [esp],ebx
  00406ECD: E8 5E F7 FF FF     call        00406630
  00406ED2: 89 34 24           mov         dword ptr [esp],esi
  00406ED5: E8 66 2D 00 00     call        00409C40
  00406EDA: 83 C4 44           add         esp,44h
  00406EDD: 5B                 pop         ebx
  00406EDE: 5E                 pop         esi
  00406EDF: C3                 ret
  00406EE0: C7 43 0C 06 00 00  mov         dword ptr [ebx+0Ch],6
            00
  00406EE7: B8 07 00 00 00     mov         eax,7
  00406EEC: EB 83              jmp         00406E71
  00406EEE: 66
  00406EEF: 90                 nop
  00406EF0: 89 C2              mov         edx,eax
  00406EF2: 8B 44 24 28        mov         eax,dword ptr [esp+28h]
  00406EF6: 89 D9              mov         ecx,ebx
  00406EF8: E8 C3 EC FF FF     call        00405BC0
  00406EFD: 89 34 24           mov         dword ptr [esp],esi
___strtold:
  00406F00: E8 3B 2D 00 00     call        00409C40
  00406F05: 83 C4 44           add         esp,44h
  00406F08: 5B                 pop         ebx
  00406F09: 5E                 pop         esi
  00406F0A: C3                 ret
  00406F0B: 90                 nop
  00406F0C: 8D 74 26 00        lea         esi,[esi]
  00406F10: 55                 push        ebp
  00406F11: 57                 push        edi
  00406F12: 56                 push        esi
  00406F13: 53                 push        ebx
  00406F14: 83 EC 7C           sub         esp,7Ch
  00406F17: 8B AC 24 9C 00 00  mov         ebp,dword ptr [esp+9Ch]
            00
  00406F1E: 8B BC 24 A0 00 00  mov         edi,dword ptr [esp+0A0h]
            00
  00406F25: E8 9E 70 00 00     call        0040DFC8
  00406F2A: 81 A4 24 90 00 00  and         dword ptr [esp+90h],6000h
            00 00 60 00 00
  00406F35: 8B 00              mov         eax,dword ptr [eax]
  00406F37: C7 04 24 A5 04 41  mov         dword ptr [esp],4104A5h
            00
  00406F3E: C7 44 24 4C FF FF  mov         dword ptr [esp+4Ch],0FFFFFFFFh
            FF FF
  00406F46: C7 44 24 50 FF FF  mov         dword ptr [esp+50h],0FFFFFFFFh
            FF FF
  00406F4E: 89 44 24 2C        mov         dword ptr [esp+2Ch],eax
  00406F52: 8B 84 24 94 00 00  mov         eax,dword ptr [esp+94h]
            00
  00406F59: C7 44 24 54 FD FF  mov         dword ptr [esp+54h],0FFFFFFFDh
            FF FF
  00406F61: 66 C7 44 24 58 00  mov         word ptr [esp+58h],0
            00
  00406F68: C7 44 24 5C 00 00  mov         dword ptr [esp+5Ch],0
            00 00
  00406F70: 89 44 24 44        mov         dword ptr [esp+44h],eax
  00406F74: 8B 84 24 90 00 00  mov         eax,dword ptr [esp+90h]
            00
  00406F7B: 66 C7 44 24 60 00  mov         word ptr [esp+60h],0
            00
  00406F82: C7 44 24 64 00 00  mov         dword ptr [esp+64h],0
            00 00
  00406F8A: 89 44 24 48        mov         dword ptr [esp+48h],eax
  00406F8E: 8B 84 24 98 00 00  mov         eax,dword ptr [esp+98h]
            00
  00406F95: 89 44 24 68        mov         dword ptr [esp+68h],eax
  00406F99: E8 5A 70 00 00     call        0040DFF8
  00406F9E: 85 C0              test        eax,eax
  00406FA0: 74 10              je          00406FB2
  00406FA2: 0F BE 10           movsx       edx,byte ptr [eax]
  00406FA5: B8 02 00 00 00     mov         eax,2
  00406FAA: 83 EA 30           sub         edx,30h
  00406FAD: 83 FA 02           cmp         edx,2
  00406FB0: 76 0D              jbe         00406FBF
  00406FB2: E8 29 2F 00 00     call        00409EE0
  00406FB7: 83 E0 01           and         eax,1
  00406FBA: F7 D8              neg         eax
  00406FBC: 83 C0 03           add         eax,3
  00406FBF: 89 44 24 6C        mov         dword ptr [esp+6Ch],eax
  00406FC3: 0F BE 45 00        movsx       eax,byte ptr [ebp]
  00406FC7: 8D 75 01           lea         esi,[ebp+1]
  00406FCA: 85 C0              test        eax,eax
  00406FCC: 0F 84 C0 00 00 00  je          00407092
  00406FD2: 83 F8 25           cmp         eax,25h
  00406FD5: 0F 85 C5 00 00 00  jne         004070A0
  00406FDB: 8B 94 24 90 00 00  mov         edx,dword ptr [esp+90h]
            00
  00406FE2: 89 F3              mov         ebx,esi
  00406FE4: C7 44 24 50 FF FF  mov         dword ptr [esp+50h],0FFFFFFFFh
            FF FF
  00406FEC: C7 44 24 4C FF FF  mov         dword ptr [esp+4Ch],0FFFFFFFFh
            FF FF
  00406FF4: C7 44 24 24 00 00  mov         dword ptr [esp+24h],0
            00 00
  00406FFC: 89 54 24 48        mov         dword ptr [esp+48h],edx
  00407000: 0F B6 4D 01        movzx       ecx,byte ptr [ebp+1]
  00407004: 8D 54 24 4C        lea         edx,[esp+4Ch]
  00407008: 89 54 24 28        mov         dword ptr [esp+28h],edx
  0040700C: 31 D2              xor         edx,edx
  0040700E: 84 C9              test        cl,cl
  00407010: 74 6F              je          00407081
  00407012: 0F BE C1           movsx       eax,cl
  00407015: 83 E9 20           sub         ecx,20h
  00407018: 80 F9 5A           cmp         cl,5Ah
  0040701B: 8D 6B 01           lea         ebp,[ebx+1]
  0040701E: 0F 86 8C 00 00 00  jbe         004070B0
  00407024: 83 F8 39           cmp         eax,39h
  00407027: 0F 8F 6A 07 00 00  jg          00407797
  0040702D: 83 FA 03           cmp         edx,3
  00407030: 0F 87 61 07 00 00  ja          00407797
  00407036: 83 F8 2F           cmp         eax,2Fh
  00407039: 0F 8E 58 07 00 00  jle         00407797
  0040703F: 85 D2              test        edx,edx
  00407041: 0F 85 21 06 00 00  jne         00407668
  00407047: BA 01 00 00 00     mov         edx,1
  0040704C: 8B 4C 24 28        mov         ecx,dword ptr [esp+28h]
  00407050: 85 C9              test        ecx,ecx
  00407052: 74 23              je          00407077
  00407054: 8B 4C 24 28        mov         ecx,dword ptr [esp+28h]
  00407058: 8B 09              mov         ecx,dword ptr [ecx]
  0040705A: 85 C9              test        ecx,ecx
  0040705C: 89 4C 24 1C        mov         dword ptr [esp+1Ch],ecx
  00407060: 0F 88 CF 06 00 00  js          00407735
  00407066: 8B 4C 24 1C        mov         ecx,dword ptr [esp+1Ch]
  0040706A: 8D 0C 89           lea         ecx,[ecx+ecx*4]
  0040706D: 8D 44 48 D0        lea         eax,[eax+ecx*2-30h]
  00407071: 8B 4C 24 28        mov         ecx,dword ptr [esp+28h]
  00407075: 89 01              mov         dword ptr [ecx],eax
  00407077: 0F B6 4B 01        movzx       ecx,byte ptr [ebx+1]
  0040707B: 89 EB              mov         ebx,ebp
  0040707D: 84 C9              test        cl,cl
  0040707F: 75 91              jne         00407012
  00407081: 89 DD              mov         ebp,ebx
  00407083: 0F BE 45 00        movsx       eax,byte ptr [ebp]
  00407087: 8D 75 01           lea         esi,[ebp+1]
  0040708A: 85 C0              test        eax,eax
  0040708C: 0F 85 40 FF FF FF  jne         00406FD2
  00407092: 8B 44 24 64        mov         eax,dword ptr [esp+64h]
  00407096: 83 C4 7C           add         esp,7Ch
  00407099: 5B                 pop         ebx
  0040709A: 5E                 pop         esi
  0040709B: 5F                 pop         edi
  0040709C: 5D                 pop         ebp
  0040709D: C3                 ret
  0040709E: 66
  0040709F: 90                 nop
  004070A0: 8D 54 24 44        lea         edx,[esp+44h]
  004070A4: 89 F5              mov         ebp,esi
  004070A6: E8 15 E9 FF FF     call        004059C0
  004070AB: E9 13 FF FF FF     jmp         00406FC3
  004070B0: 0F B6 C9           movzx       ecx,cl
  004070B3: FF 24 8D BC 04 41  jmp         dword ptr [ecx*4+4104BCh]
            00
  004070BA: 8D B6 00 00 00 00  lea         esi,[esi]
_strtoumax:
  004070C0: 0F B6 4B 01        movzx       ecx,byte ptr [ebx+1]
  004070C4: BA 04 00 00 00     mov         edx,4
  004070C9: 89 EB              mov         ebx,ebp
  004070CB: C7 44 24 24 02 00  mov         dword ptr [esp+24h],2
            00 00
  004070D3: EB A8              jmp         0040707D
  004070D5: 8B 54 24 24        mov         edx,dword ptr [esp+24h]
  004070D9: 89 F8              mov         eax,edi
  004070DB: 83 EA 02           sub         edx,2
  004070DE: 83 FA 01           cmp         edx,1
  004070E1: 0F 86 91 05 00 00  jbe         00407678
  004070E7: 8B 18              mov         ebx,dword ptr [eax]
  004070E9: 83 C7 04           add         edi,4
  004070EC: 85 DB              test        ebx,ebx
  004070EE: 0F 84 74 02 00 00  je          00407368
  004070F4: 89 1C 24           mov         dword ptr [esp],ebx
  004070F7: E8 34 6E 00 00     call        0040DF30
  004070FC: 89 C2              mov         edx,eax
  004070FE: 8D 4C 24 44        lea         ecx,[esp+44h]
  00407102: 89 D8              mov         eax,ebx
  00407104: E8 17 EA FF FF     call        00405B20
  00407109: E9 B5 FE FF FF     jmp         00406FC3
  0040710E: 66
  0040710F: 90                 nop
  00407110: 8B 54 24 24        mov         edx,dword ptr [esp+24h]
  00407114: 89 F8              mov         eax,edi
  00407116: C7 44 24 50 FF FF  mov         dword ptr [esp+50h],0FFFFFFFFh
            FF FF
  0040711E: 83 EA 02           sub         edx,2
  00407121: 83 FA 01           cmp         edx,1
  00407124: 0F 86 8E 03 00 00  jbe         004074B8
  0040712A: 8B 00              mov         eax,dword ptr [eax]
  0040712C: 8D 4C 24 44        lea         ecx,[esp+44h]
  00407130: BA 01 00 00 00     mov         edx,1
  00407135: 83 C7 04           add         edi,4
  00407138: 88 44 24 38        mov         byte ptr [esp+38h],al
  0040713C: 8D 44 24 38        lea         eax,[esp+38h]
  00407140: E8 DB E9 FF FF     call        00405B20
  00407145: E9 79 FE FF FF     jmp         00406FC3
  0040714A: 8D B6 00 00 00 00  lea         esi,[esi]
  00407150: 8B 44 24 48        mov         eax,dword ptr [esp+48h]
  00407154: 83 C8 20           or          eax,20h
  00407157: A8 04              test        al,4
  00407159: 89 44 24 48        mov         dword ptr [esp+48h],eax
  0040715D: 0F 84 89 03 00 00  je          004074EC
  00407163: DB 2F              fld         tbyte ptr [edi]
  00407165: 8D 5F 0C           lea         ebx,[edi+0Ch]
  00407168: DB 3C 24           fstp        tbyte ptr [esp]
  0040716B: 89 DF              mov         edi,ebx
  0040716D: 8D 44 24 44        lea         eax,[esp+44h]
  00407171: E8 EA F7 FF FF     call        00406960
  00407176: E9 48 FE FF FF     jmp         00406FC3
  0040717B: 90                 nop
  0040717C: 8D 74 26 00        lea         esi,[esi]
  00407180: 83 7C 24 24 03     cmp         dword ptr [esp+24h],3
  00407185: 0F 84 55 05 00 00  je          004076E0
  0040718B: 83 7C 24 24 02     cmp         dword ptr [esp+24h],2
  00407190: 0F 84 B3 05 00 00  je          00407749
  00407196: 8B 0F              mov         ecx,dword ptr [edi]
  00407198: 8D 57 04           lea         edx,[edi+4]
  0040719B: 83 7C 24 24 01     cmp         dword ptr [esp+24h],1
  004071A0: C7 44 24 3C 00 00  mov         dword ptr [esp+3Ch],0
            00 00
  004071A8: 89 4C 24 38        mov         dword ptr [esp+38h],ecx
  004071AC: 0F 84 FA 05 00 00  je          004077AC
  004071B2: 83 7C 24 24 04     cmp         dword ptr [esp+24h],4
  004071B7: 89 D7              mov         edi,edx
  004071B9: 0F 84 3D 06 00 00  je          004077FC
  004071BF: 83 F8 75           cmp         eax,75h
  004071C2: 0F 84 F0 00 00 00  je          004072B8
  004071C8: 8D 54 24 44        lea         edx,[esp+44h]
  004071CC: 8B 4C 24 3C        mov         ecx,dword ptr [esp+3Ch]
  004071D0: 89 14 24           mov         dword ptr [esp],edx
  004071D3: 8B 54 24 38        mov         edx,dword ptr [esp+38h]
  004071D7: E8 44 ED FF FF     call        00405F20
  004071DC: E9 E2 FD FF FF     jmp         00406FC3
  004071E1: 8B 44 24 48        mov         eax,dword ptr [esp+48h]
  004071E5: 83 C8 20           or          eax,20h
  004071E8: A8 04              test        al,4
  004071EA: 89 44 24 48        mov         dword ptr [esp+48h],eax
  004071EE: 0F 84 58 02 00 00  je          0040744C
  004071F4: DB 2F              fld         tbyte ptr [edi]
  004071F6: 8D 5F 0C           lea         ebx,[edi+0Ch]
  004071F9: DB 3C 24           fstp        tbyte ptr [esp]
  004071FC: 89 DF              mov         edi,ebx
  004071FE: 8D 44 24 44        lea         eax,[esp+44h]
  00407202: E8 D9 F5 FF FF     call        004067E0
  00407207: E9 B7 FD FF FF     jmp         00406FC3
  0040720C: 8D 74 26 00        lea         esi,[esi]
  00407210: 8B 44 24 48        mov         eax,dword ptr [esp+48h]
  00407214: 83 C8 20           or          eax,20h
  00407217: A8 04              test        al,4
  00407219: 89 44 24 48        mov         dword ptr [esp+48h],eax
  0040721D: 0F 84 4D 02 00 00  je          00407470
  00407223: DB 2F              fld         tbyte ptr [edi]
  00407225: 8D 5F 0C           lea         ebx,[edi+0Ch]
  00407228: DB 3C 24           fstp        tbyte ptr [esp]
  0040722B: 89 DF              mov         edi,ebx
  0040722D: 8D 44 24 44        lea         eax,[esp+44h]
  00407231: E8 CA F4 FF FF     call        00406700
  00407236: E9 88 FD FF FF     jmp         00406FC3
  0040723B: 90                 nop
  0040723C: 8D 74 26 00        lea         esi,[esi]
  00407240: 8B 44 24 48        mov         eax,dword ptr [esp+48h]
  00407244: 83 C8 20           or          eax,20h
  00407247: A8 04              test        al,4
  00407249: 89 44 24 48        mov         dword ptr [esp+48h],eax
  0040724D: 0F 84 41 02 00 00  je          00407494
  00407253: DB 2F              fld         tbyte ptr [edi]
  00407255: 8D 5F 0C           lea         ebx,[edi+0Ch]
  00407258: DB 3C 24           fstp        tbyte ptr [esp]
  0040725B: 89 DF              mov         edi,ebx
  0040725D: 8D 44 24 44        lea         eax,[esp+44h]
  00407261: E8 FA FB FF FF     call        00406E60
  00407266: E9 58 FD FF FF     jmp         00406FC3
  0040726B: 90                 nop
  0040726C: 8D 74 26 00        lea         esi,[esi]
  00407270: 81 4C 24 48 80 00  or          dword ptr [esp+48h],80h
            00 00
  00407278: 83 7C 24 24 03     cmp         dword ptr [esp+24h],3
  0040727D: 0F 84 48 04 00 00  je          004076CB
  00407283: 83 7C 24 24 02     cmp         dword ptr [esp+24h],2
  00407288: 0F 84 DC 04 00 00  je          0040776A
  0040728E: 8B 07              mov         eax,dword ptr [edi]
  00407290: 8D 57 04           lea         edx,[edi+4]
  00407293: 89 C7              mov         edi,eax
  00407295: C1 FF 1F           sar         edi,1Fh
  00407298: 83 7C 24 24 01     cmp         dword ptr [esp+24h],1
  0040729D: 89 44 24 38        mov         dword ptr [esp+38h],eax
  004072A1: 89 7C 24 3C        mov         dword ptr [esp+3Ch],edi
  004072A5: 0F 84 19 05 00 00  je          004077C4
  004072AB: 83 7C 24 24 04     cmp         dword ptr [esp+24h],4
  004072B0: 89 D7              mov         edi,edx
  004072B2: 0F 84 5A 05 00 00  je          00407812
  004072B8: 8B 44 24 38        mov         eax,dword ptr [esp+38h]
  004072BC: 8D 4C 24 44        lea         ecx,[esp+44h]
  004072C0: 8B 54 24 3C        mov         edx,dword ptr [esp+3Ch]
  004072C4: E8 97 E9 FF FF     call        00405C60
  004072C9: E9 F5 FC FF FF     jmp         00406FC3
  004072CE: 66
  004072CF: 90                 nop
  004072D0: 85 D2              test        edx,edx
  004072D2: 75 11              jne         004072E5
  004072D4: 8B 8C 24 90 00 00  mov         ecx,dword ptr [esp+90h]
            00
  004072DB: 39 4C 24 48        cmp         dword ptr [esp+48h],ecx
  004072DF: 0F 84 9C 04 00 00  je          00407781
  004072E5: 8B 07              mov         eax,dword ptr [edi]
  004072E7: 8D 54 24 44        lea         edx,[esp+44h]
  004072EB: C7 44 24 3C 00 00  mov         dword ptr [esp+3Ch],0
            00 00
  004072F3: 8B 4C 24 3C        mov         ecx,dword ptr [esp+3Ch]
  004072F7: 8D 5F 04           lea         ebx,[edi+4]
  004072FA: 89 14 24           mov         dword ptr [esp],edx
  004072FD: 89 DF              mov         edi,ebx
  004072FF: 89 44 24 38        mov         dword ptr [esp+38h],eax
  00407303: 8B 54 24 38        mov         edx,dword ptr [esp+38h]
  00407307: B8 78 00 00 00     mov         eax,78h
  0040730C: E8 0F EC FF FF     call        00405F20
  00407311: E9 AD FC FF FF     jmp         00406FC3
  00407316: 83 7C 24 24 04     cmp         dword ptr [esp+24h],4
  0040731B: 0F 84 9A 03 00 00  je          004076BB
  00407321: 83 7C 24 24 01     cmp         dword ptr [esp+24h],1
  00407326: 8B 07              mov         eax,dword ptr [edi]
  00407328: 8B 54 24 64        mov         edx,dword ptr [esp+64h]
  0040732C: 0F 84 2D 04 00 00  je          0040775F
  00407332: 83 7C 24 24 02     cmp         dword ptr [esp+24h],2
  00407337: 0F 84 A0 04 00 00  je          004077DD
  0040733D: 83 7C 24 24 03     cmp         dword ptr [esp+24h],3
  00407342: 89 10              mov         dword ptr [eax],edx
  00407344: 0F 84 DF 04 00 00  je          00407829
  0040734A: 83 C7 04           add         edi,4
  0040734D: E9 71 FC FF FF     jmp         00406FC3
  00407352: 8B 4C 24 2C        mov         ecx,dword ptr [esp+2Ch]
  00407356: 89 0C 24           mov         dword ptr [esp],ecx
  00407359: E8 A2 6C 00 00     call        0040E000
  0040735E: 85 C0              test        eax,eax
  00407360: 89 C3              mov         ebx,eax
  00407362: 0F 85 8C FD FF FF  jne         004070F4
  00407368: BA 06 00 00 00     mov         edx,6
  0040736D: BB 9E 04 41 00     mov         ebx,41049Eh
  00407372: E9 87 FD FF FF     jmp         004070FE
  00407377: 0F B6 4B 01        movzx       ecx,byte ptr [ebx+1]
  0040737B: BA 04 00 00 00     mov         edx,4
  00407380: C7 44 24 24 02 00  mov         dword ptr [esp+24h],2
            00 00
  00407388: 80 F9 6C           cmp         cl,6Ch
  0040738B: 0F 85 EA FC FF FF  jne         0040707B
  00407391: 8D 6B 02           lea         ebp,[ebx+2]
  00407394: 0F B6 4B 02        movzx       ecx,byte ptr [ebx+2]
  00407398: C7 44 24 24 03 00  mov         dword ptr [esp+24h],3
            00 00
___gdtoa:
  004073A0: 89 EB              mov         ebx,ebp
  004073A2: E9 D6 FC FF FF     jmp         0040707D
  004073A7: 0F B6 4B 01        movzx       ecx,byte ptr [ebx+1]
  004073AB: BA 04 00 00 00     mov         edx,4
  004073B0: 89 EB              mov         ebx,ebp
  004073B2: C7 44 24 24 03 00  mov         dword ptr [esp+24h],3
            00 00
  004073BA: E9 BE FC FF FF     jmp         0040707D
  004073BF: 90                 nop
  004073C0: 0F B6 4B 01        movzx       ecx,byte ptr [ebx+1]
  004073C4: BA 04 00 00 00     mov         edx,4
  004073C9: C7 44 24 24 01 00  mov         dword ptr [esp+24h],1
            00 00
  004073D1: 80 F9 68           cmp         cl,68h
  004073D4: 0F 85 A1 FC FF FF  jne         0040707B
  004073DA: 8D 6B 02           lea         ebp,[ebx+2]
  004073DD: 0F B6 4B 02        movzx       ecx,byte ptr [ebx+2]
  004073E1: C7 44 24 24 04 00  mov         dword ptr [esp+24h],4
            00 00
  004073E9: 89 EB              mov         ebx,ebp
  004073EB: E9 8D FC FF FF     jmp         0040707D
  004073F0: 83 4C 24 48 04     or          dword ptr [esp+48h],4
  004073F5: BA 04 00 00 00     mov         edx,4
  004073FA: 0F B6 4B 01        movzx       ecx,byte ptr [ebx+1]
  004073FE: 89 EB              mov         ebx,ebp
  00407400: E9 78 FC FF FF     jmp         0040707D
  00407405: 0F B6 4B 01        movzx       ecx,byte ptr [ebx+1]
  00407409: BA 04 00 00 00     mov         edx,4
  0040740E: C7 44 24 24 02 00  mov         dword ptr [esp+24h],2
            00 00
  00407416: 80 F9 36           cmp         cl,36h
  00407419: 0F 84 D6 02 00 00  je          004076F5
  0040741F: 80 F9 33           cmp         cl,33h
  00407422: 0F 85 53 FC FF FF  jne         0040707B
  00407428: 80 7B 02 32        cmp         byte ptr [ebx+2],32h
  0040742C: 0F 85 49 FC FF FF  jne         0040707B
  00407432: 8D 6B 03           lea         ebp,[ebx+3]
  00407435: 0F B6 4B 03        movzx       ecx,byte ptr [ebx+3]
  00407439: 89 EB              mov         ebx,ebp
  0040743B: E9 3D FC FF FF     jmp         0040707D
  00407440: 8B 44 24 48        mov         eax,dword ptr [esp+48h]
  00407444: A8 04              test        al,4
  00407446: 0F 85 A8 FD FF FF  jne         004071F4
  0040744C: DD 07              fld         qword ptr [edi]
  0040744E: 8D 5F 08           lea         ebx,[edi+8]
  00407451: DB 3C 24           fstp        tbyte ptr [esp]
  00407454: 89 DF              mov         edi,ebx
  00407456: 8D 44 24 44        lea         eax,[esp+44h]
  0040745A: E8 81 F3 FF FF     call        004067E0
  0040745F: E9 5F FB FF FF     jmp         00406FC3
  00407464: 8B 44 24 48        mov         eax,dword ptr [esp+48h]
  00407468: A8 04              test        al,4
  0040746A: 0F 85 B3 FD FF FF  jne         00407223
  00407470: DD 07              fld         qword ptr [edi]
  00407472: 8D 5F 08           lea         ebx,[edi+8]
  00407475: DB 3C 24           fstp        tbyte ptr [esp]
  00407478: 89 DF              mov         edi,ebx
  0040747A: 8D 44 24 44        lea         eax,[esp+44h]
  0040747E: E8 7D F2 FF FF     call        00406700
  00407483: E9 3B FB FF FF     jmp         00406FC3
  00407488: 8B 44 24 48        mov         eax,dword ptr [esp+48h]
  0040748C: A8 04              test        al,4
  0040748E: 0F 85 BF FD FF FF  jne         00407253
  00407494: DD 07              fld         qword ptr [edi]
  00407496: 8D 5F 08           lea         ebx,[edi+8]
  00407499: DB 3C 24           fstp        tbyte ptr [esp]
  0040749C: 89 DF              mov         edi,ebx
  0040749E: 8D 44 24 44        lea         eax,[esp+44h]
  004074A2: E8 B9 F9 FF FF     call        00406E60
  004074A7: E9 17 FB FF FF     jmp         00406FC3
  004074AC: 8D 74 26 00        lea         esi,[esi]
  004074B0: C7 44 24 50 FF FF  mov         dword ptr [esp+50h],0FFFFFFFFh
            FF FF
  004074B8: 8B 07              mov         eax,dword ptr [edi]
  004074BA: 8D 5F 04           lea         ebx,[edi+4]
  004074BD: BA 01 00 00 00     mov         edx,1
  004074C2: 8D 4C 24 44        lea         ecx,[esp+44h]
  004074C6: 89 DF              mov         edi,ebx
  004074C8: 66 89 44 24 32     mov         word ptr [esp+32h],ax
  004074CD: 8D 44 24 32        lea         eax,[esp+32h]
  004074D1: E8 4A E5 FF FF     call        00405A20
  004074D6: E9 E8 FA FF FF     jmp         00406FC3
  004074DB: 90                 nop
  004074DC: 8D 74 26 00        lea         esi,[esi]
  004074E0: 8B 44 24 48        mov         eax,dword ptr [esp+48h]
  004074E4: A8 04              test        al,4
  004074E6: 0F 85 77 FC FF FF  jne         00407163
  004074EC: DD 07              fld         qword ptr [edi]
  004074EE: 8D 5F 08           lea         ebx,[edi+8]
  004074F1: DB 3C 24           fstp        tbyte ptr [esp]
  004074F4: 89 DF              mov         edi,ebx
  004074F6: 8D 44 24 44        lea         eax,[esp+44h]
  004074FA: E8 61 F4 FF FF     call        00406960
  004074FF: E9 BF FA FF FF     jmp         00406FC3
  00407504: 85 D2              test        edx,edx
  00407506: 0F 85 18 FB FF FF  jne         00407024
  0040750C: 81 4C 24 48 00 02  or          dword ptr [esp+48h],200h
            00 00
  00407514: 0F B6 4B 01        movzx       ecx,byte ptr [ebx+1]
  00407518: 89 EB              mov         ebx,ebp
  0040751A: E9 5E FB FF FF     jmp         0040707D
  0040751F: 90                 nop
  00407520: 83 FA 01           cmp         edx,1
  00407523: 0F 86 EC 01 00 00  jbe         00407715
  00407529: 0F B6 4B 01        movzx       ecx,byte ptr [ebx+1]
  0040752D: BA 04 00 00 00     mov         edx,4
  00407532: 89 EB              mov         ebx,ebp
  00407534: E9 44 FB FF FF     jmp         0040707D
  00407539: 8D B4 26 00 00 00  lea         esi,[esi]
            00
  00407540: 85 D2              test        edx,edx
  00407542: 0F 85 2F FB FF FF  jne         00407077
  00407548: 81 4C 24 48 00 04  or          dword ptr [esp+48h],400h
            00 00
  00407550: 0F B6 4B 01        movzx       ecx,byte ptr [ebx+1]
  00407554: 89 EB              mov         ebx,ebp
  00407556: E9 22 FB FF FF     jmp         0040707D
  0040755B: 90                 nop
  0040755C: 8D 74 26 00        lea         esi,[esi]
  00407560: 85 D2              test        edx,edx
  00407562: 0F 85 0F FB FF FF  jne         00407077
  00407568: 81 4C 24 48 00 01  or          dword ptr [esp+48h],100h
            00 00
  00407570: 0F B6 4B 01        movzx       ecx,byte ptr [ebx+1]
  00407574: 89 EB              mov         ebx,ebp
  00407576: E9 02 FB FF FF     jmp         0040707D
  0040757B: 90                 nop
  0040757C: 8D 74 26 00        lea         esi,[esi]
  00407580: 8B 44 24 28        mov         eax,dword ptr [esp+28h]
  00407584: 85 C0              test        eax,eax
  00407586: 74 A1              je          00407529
  00407588: F7 C2 FD FF FF FF  test        edx,0FFFFFFFDh
  0040758E: 0F 85 0F 01 00 00  jne         004076A3
  00407594: 8B 0F              mov         ecx,dword ptr [edi]
  00407596: 8D 47 04           lea         eax,[edi+4]
  00407599: 8B 7C 24 28        mov         edi,dword ptr [esp+28h]
  0040759D: 85 C9              test        ecx,ecx
  0040759F: 89 0F              mov         dword ptr [edi],ecx
  004075A1: 0F 88 40 02 00 00  js          004077E7
  004075A7: 0F B6 4B 01        movzx       ecx,byte ptr [ebx+1]
  004075AB: 89 C7              mov         edi,eax
  004075AD: 89 EB              mov         ebx,ebp
  004075AF: C7 44 24 28 00 00  mov         dword ptr [esp+28h],0
            00 00
  004075B7: E9 C1 FA FF FF     jmp         0040707D
  004075BC: 8D 74 26 00        lea         esi,[esi]
  004075C0: 85 D2              test        edx,edx
  004075C2: 0F 85 AF FA FF FF  jne         00407077
  004075C8: 89 54 24 20        mov         dword ptr [esp+20h],edx
  004075CC: 81 4C 24 48 00 10  or          dword ptr [esp+48h],1000h
            00 00
  004075D4: C7 44 24 34 00 00  mov         dword ptr [esp+34h],0
            00 00
  004075DC: E8 D7 69 00 00     call        0040DFB8
  004075E1: 8D 4C 24 34        lea         ecx,[esp+34h]
  004075E5: 89 4C 24 0C        mov         dword ptr [esp+0Ch],ecx
  004075E9: C7 44 24 08 10 00  mov         dword ptr [esp+8],10h
            00 00
  004075F1: 8B 40 04           mov         eax,dword ptr [eax+4]
  004075F4: 89 44 24 04        mov         dword ptr [esp+4],eax
  004075F8: 8D 44 24 32        lea         eax,[esp+32h]
  004075FC: 89 04 24           mov         dword ptr [esp],eax
  004075FF: E8 FC 03 00 00     call        00407A00
  00407604: 8B 54 24 20        mov         edx,dword ptr [esp+20h]
  00407608: 85 C0              test        eax,eax
  0040760A: 7E 0A              jle         00407616
  0040760C: 0F B7 4C 24 32     movzx       ecx,word ptr [esp+32h]
  00407611: 66 89 4C 24 60     mov         word ptr [esp+60h],cx
  00407616: 89 44 24 5C        mov         dword ptr [esp+5Ch],eax
  0040761A: 0F B6 4B 01        movzx       ecx,byte ptr [ebx+1]
  0040761E: 89 EB              mov         ebx,ebp
  00407620: E9 58 FA FF FF     jmp         0040707D
  00407625: 8D 54 24 44        lea         edx,[esp+44h]
  00407629: E8 92 E3 FF FF     call        004059C0
  0040762E: E9 90 F9 FF FF     jmp         00406FC3
  00407633: 85 D2              test        edx,edx
  00407635: 0F 85 3C FA FF FF  jne         00407077
  0040763B: 81 4C 24 48 00 08  or          dword ptr [esp+48h],800h
            00 00
  00407643: 0F B6 4B 01        movzx       ecx,byte ptr [ebx+1]
  00407647: 89 EB              mov         ebx,ebp
  00407649: E9 2F FA FF FF     jmp         0040707D
  0040764E: 66
  0040764F: 90                 nop
  00407650: 85 D2              test        edx,edx
  00407652: 0F 85 1F FA FF FF  jne         00407077
  00407658: 83 4C 24 48 40     or          dword ptr [esp+48h],40h
  0040765D: 0F B6 4B 01        movzx       ecx,byte ptr [ebx+1]
  00407661: 89 EB              mov         ebx,ebp
  00407663: E9 15 FA FF FF     jmp         0040707D
  00407668: 83 FA 02           cmp         edx,2
  0040766B: B9 03 00 00 00     mov         ecx,3
  00407670: 0F 44 D1           cmove       edx,ecx
  00407673: E9 D4 F9 FF FF     jmp         0040704C
  00407678: 8B 1F              mov         ebx,dword ptr [edi]
  0040767A: B8 90 04 41 00     mov         eax,410490h
  0040767F: 8D 77 04           lea         esi,[edi+4]
  00407682: 89 F7              mov         edi,esi
  00407684: 85 DB              test        ebx,ebx
  00407686: 0F 44 D8           cmove       ebx,eax
  00407689: 89 1C 24           mov         dword ptr [esp],ebx
  0040768C: E8 77 69 00 00     call        0040E008
  00407691: 8D 4C 24 44        lea         ecx,[esp+44h]
  00407695: 89 C2              mov         edx,eax
  00407697: 89 D8              mov         eax,ebx
  00407699: E8 82 E3 FF FF     call        00405A20
  0040769E: E9 20 F9 FF FF     jmp         00406FC3
  004076A3: 0F B6 4B 01        movzx       ecx,byte ptr [ebx+1]
  004076A7: BA 04 00 00 00     mov         edx,4
  004076AC: 89 EB              mov         ebx,ebp
  004076AE: C7 44 24 28 00 00  mov         dword ptr [esp+28h],0
            00 00
  004076B6: E9 C2 F9 FF FF     jmp         0040707D
  004076BB: 8B 17              mov         edx,dword ptr [edi]
  004076BD: 83 C7 04           add         edi,4
  004076C0: 8B 44 24 64        mov         eax,dword ptr [esp+64h]
  004076C4: 88 02              mov         byte ptr [edx],al
  004076C6: E9 F8 F8 FF FF     jmp         00406FC3
  004076CB: 8B 07              mov         eax,dword ptr [edi]
  004076CD: 8B 57 04           mov         edx,dword ptr [edi+4]
  004076D0: 83 C7 08           add         edi,8
  004076D3: 89 44 24 38        mov         dword ptr [esp+38h],eax
  004076D7: 89 54 24 3C        mov         dword ptr [esp+3Ch],edx
  004076DB: E9 D8 FB FF FF     jmp         004072B8
  004076E0: 8B 0F              mov         ecx,dword ptr [edi]
  004076E2: 8B 5F 04           mov         ebx,dword ptr [edi+4]
  004076E5: 83 C7 08           add         edi,8
  004076E8: 89 4C 24 38        mov         dword ptr [esp+38h],ecx
  004076EC: 89 5C 24 3C        mov         dword ptr [esp+3Ch],ebx
  004076F0: E9 CA FA FF FF     jmp         004071BF
  004076F5: 80 7B 02 34        cmp         byte ptr [ebx+2],34h
  004076F9: 0F 85 7C F9 FF FF  jne         0040707B
  004076FF: 8D 6B 03           lea         ebp,[ebx+3]
  00407702: 0F B6 4B 03        movzx       ecx,byte ptr [ebx+3]
  00407706: C7 44 24 24 03 00  mov         dword ptr [esp+24h],3
            00 00
  0040770E: 89 EB              mov         ebx,ebp
  00407710: E9 68 F9 FF FF     jmp         0040707D
  00407715: 8D 54 24 50        lea         edx,[esp+50h]
  00407719: C7 44 24 50 00 00  mov         dword ptr [esp+50h],0
            00 00
  00407721: 0F B6 4B 01        movzx       ecx,byte ptr [ebx+1]
  00407725: 89 EB              mov         ebx,ebp
  00407727: 89 54 24 28        mov         dword ptr [esp+28h],edx
  0040772B: BA 02 00 00 00     mov         edx,2
  00407730: E9 48 F9 FF FF     jmp         0040707D
  00407735: 8B 4C 24 28        mov         ecx,dword ptr [esp+28h]
  00407739: 83 E8 30           sub         eax,30h
  0040773C: 89 01              mov         dword ptr [ecx],eax
  0040773E: 0F B6 4B 01        movzx       ecx,byte ptr [ebx+1]
  00407742: 89 EB              mov         ebx,ebp
  00407744: E9 34 F9 FF FF     jmp         0040707D
  00407749: 8B 17              mov         edx,dword ptr [edi]
  0040774B: 83 C7 04           add         edi,4
  0040774E: C7 44 24 3C 00 00  mov         dword ptr [esp+3Ch],0
            00 00
  00407756: 89 54 24 38        mov         dword ptr [esp+38h],edx
  0040775A: E9 60 FA FF FF     jmp         004071BF
  0040775F: 66 89 10           mov         word ptr [eax],dx
  00407762: 83 C7 04           add         edi,4
  00407765: E9 59 F8 FF FF     jmp         00406FC3
  0040776A: 8B 07              mov         eax,dword ptr [edi]
  0040776C: 83 C7 04           add         edi,4
  0040776F: 89 C1              mov         ecx,eax
  00407771: C1 F9 1F           sar         ecx,1Fh
  00407774: 89 44 24 38        mov         dword ptr [esp+38h],eax
  00407778: 89 4C 24 3C        mov         dword ptr [esp+3Ch],ecx
  0040777C: E9 37 FB FF FF     jmp         004072B8
  00407781: 89 C8              mov         eax,ecx
  00407783: 80 CC 02           or          ah,2
  00407786: 89 44 24 48        mov         dword ptr [esp+48h],eax
  0040778A: C7 44 24 50 08 00  mov         dword ptr [esp+50h],8
            00 00
  00407792: E9 4E FB FF FF     jmp         004072E5
  00407797: 8D 54 24 44        lea         edx,[esp+44h]
  0040779B: B8 25 00 00 00     mov         eax,25h
  004077A0: E8 1B E2 FF FF     call        004059C0
  004077A5: 89 F5              mov         ebp,esi
  004077A7: E9 17 F8 FF FF     jmp         00406FC3
  004077AC: 0F B7 4C 24 38     movzx       ecx,word ptr [esp+38h]
  004077B1: 89 D7              mov         edi,edx
  004077B3: C7 44 24 3C 00 00  mov         dword ptr [esp+3Ch],0
            00 00
  004077BB: 89 4C 24 38        mov         dword ptr [esp+38h],ecx
  004077BF: E9 FB F9 FF FF     jmp         004071BF
  004077C4: 0F BF 44 24 38     movsx       eax,word ptr [esp+38h]
  004077C9: 89 D7              mov         edi,edx
  004077CB: 89 C1              mov         ecx,eax
  004077CD: C1 F9 1F           sar         ecx,1Fh
  004077D0: 89 44 24 38        mov         dword ptr [esp+38h],eax
  004077D4: 89 4C 24 3C        mov         dword ptr [esp+3Ch],ecx
  004077D8: E9 DB FA FF FF     jmp         004072B8
  004077DD: 89 10              mov         dword ptr [eax],edx
  004077DF: 83 C7 04           add         edi,4
  004077E2: E9 DC F7 FF FF     jmp         00406FC3
  004077E7: 85 D2              test        edx,edx
  004077E9: 75 4E              jne         00407839
  004077EB: 81 4C 24 48 00 04  or          dword ptr [esp+48h],400h
            00 00
  004077F3: F7 5C 24 4C        neg         dword ptr [esp+4Ch]
  004077F7: E9 AB FD FF FF     jmp         004075A7
  004077FC: 0F B6 54 24 38     movzx       edx,byte ptr [esp+38h]
  00407801: C7 44 24 3C 00 00  mov         dword ptr [esp+3Ch],0
            00 00
  00407809: 89 54 24 38        mov         dword ptr [esp+38h],edx
  0040780D: E9 AD F9 FF FF     jmp         004071BF
  00407812: 0F BE 44 24 38     movsx       eax,byte ptr [esp+38h]
  00407817: 89 C2              mov         edx,eax
  00407819: C1 FA 1F           sar         edx,1Fh
  0040781C: 89 44 24 38        mov         dword ptr [esp+38h],eax
  00407820: 89 54 24 3C        mov         dword ptr [esp+3Ch],edx
  00407824: E9 8F FA FF FF     jmp         004072B8
  00407829: 89 D1              mov         ecx,edx
  0040782B: 83 C7 04           add         edi,4
  0040782E: C1 F9 1F           sar         ecx,1Fh
  00407831: 89 48 04           mov         dword ptr [eax+4],ecx
  00407834: E9 8A F7 FF FF     jmp         00406FC3
  00407839: C7 44 24 50 FF FF  mov         dword ptr [esp+50h],0FFFFFFFFh
            FF FF
  00407841: 89 C7              mov         edi,eax
  00407843: 0F B6 4B 01        movzx       ecx,byte ptr [ebx+1]
  00407847: C7 44 24 28 00 00  mov         dword ptr [esp+28h],0
            00 00
  0040784F: 89 EB              mov         ebx,ebp
  00407851: E9 27 F8 FF FF     jmp         0040707D
  00407856: 90                 nop
  00407857: 90                 nop
  00407858: 90                 nop
  00407859: 90                 nop
  0040785A: 90                 nop
  0040785B: 90                 nop
  0040785C: 90                 nop
  0040785D: 90                 nop
  0040785E: 90                 nop
  0040785F: 90                 nop
  00407860: 56                 push        esi
  00407861: 53                 push        ebx
  00407862: 83 EC 34           sub         esp,34h
  00407865: 8B 5C 24 44        mov         ebx,dword ptr [esp+44h]
  00407869: 8B 74 24 4C        mov         esi,dword ptr [esp+4Ch]
  0040786D: 85 DB              test        ebx,ebx
  0040786F: 0F 84 60 01 00 00  je          004079D5
  00407875: 8B 54 24 48        mov         edx,dword ptr [esp+48h]
  00407879: 85 D2              test        edx,edx
  0040787B: 0F 84 5F 01 00 00  je          004079E0
  00407881: 8B 06              mov         eax,dword ptr [esi]
  00407883: C7 06 00 00 00 00  mov         dword ptr [esi],0
  00407889: 89 44 24 2C        mov         dword ptr [esp+2Ch],eax
  0040788D: 0F B6 03           movzx       eax,byte ptr [ebx]
  00407890: 84 C0              test        al,al
  00407892: 0F 84 98 00 00 00  je          00407930
  00407898: 83 7C 24 54 01     cmp         dword ptr [esp+54h],1
  0040789D: 76 71              jbe         00407910
  0040789F: 80 7C 24 2C 00     cmp         byte ptr [esp+2Ch],0
  004078A4: 0F 85 97 00 00 00  jne         00407941
  004078AA: 8B 54 24 50        mov         edx,dword ptr [esp+50h]
  004078AE: 89 44 24 04        mov         dword ptr [esp+4],eax
  004078B2: 89 14 24           mov         dword ptr [esp],edx
  004078B5: FF 15 F4 21 41 00  call        dword ptr ds:[4121F4h]
  004078BB: 83 EC 08           sub         esp,8
  004078BE: 85 C0              test        eax,eax
  004078C0: 74 4E              je          00407910
  004078C2: 83 7C 24 48 01     cmp         dword ptr [esp+48h],1
  004078C7: 0F 86 1D 01 00 00  jbe         004079EA
  004078CD: 8B 44 24 40        mov         eax,dword ptr [esp+40h]
  004078D1: 8B 54 24 50        mov         edx,dword ptr [esp+50h]
  004078D5: C7 44 24 14 01 00  mov         dword ptr [esp+14h],1
            00 00
  004078DD: C7 44 24 0C 02 00  mov         dword ptr [esp+0Ch],2
            00 00
  004078E5: 89 44 24 10        mov         dword ptr [esp+10h],eax
  004078E9: 89 5C 24 08        mov         dword ptr [esp+8],ebx
  004078ED: C7 44 24 04 08 00  mov         dword ptr [esp+4],8
            00 00
  004078F5: 89 14 24           mov         dword ptr [esp],edx
  004078F8: FF 15 00 22 41 00  call        dword ptr ds:[412200h]
  004078FE: 83 EC 18           sub         esp,18h
  00407901: 85 C0              test        eax,eax
  00407903: 74 7C              je          00407981
  00407905: 83 C4 34           add         esp,34h
  00407908: B8 02 00 00 00     mov         eax,2
  0040790D: 5B                 pop         ebx
  0040790E: 5E                 pop         esi
  0040790F: C3                 ret
  00407910: 8B 44 24 50        mov         eax,dword ptr [esp+50h]
  00407914: 85 C0              test        eax,eax
  00407916: 75 7B              jne         00407993
  00407918: 0F B6 03           movzx       eax,byte ptr [ebx]
  0040791B: 8B 54 24 40        mov         edx,dword ptr [esp+40h]
  0040791F: 66 89 02           mov         word ptr [edx],ax
  00407922: 83 C4 34           add         esp,34h
  00407925: B8 01 00 00 00     mov         eax,1
  0040792A: 5B                 pop         ebx
  0040792B: 5E                 pop         esi
  0040792C: C3                 ret
  0040792D: 8D 76 00           lea         esi,[esi]
  00407930: 8B 44 24 40        mov         eax,dword ptr [esp+40h]
  00407934: 66 C7 00 00 00     mov         word ptr [eax],0
  00407939: 31 C0              xor         eax,eax
  0040793B: 83 C4 34           add         esp,34h
  0040793E: 5B                 pop         ebx
  0040793F: 5E                 pop         esi
  00407940: C3                 ret
  00407941: 88 44 24 2D        mov         byte ptr [esp+2Dh],al
  00407945: 8D 44 24 2C        lea         eax,[esp+2Ch]
  00407949: 8B 54 24 40        mov         edx,dword ptr [esp+40h]
  0040794D: 89 44 24 08        mov         dword ptr [esp+8],eax
  00407951: 8B 44 24 50        mov         eax,dword ptr [esp+50h]
  00407955: C7 44 24 14 01 00  mov         dword ptr [esp+14h],1
            00 00
  0040795D: C7 44 24 0C 02 00  mov         dword ptr [esp+0Ch],2
            00 00
  00407965: 89 54 24 10        mov         dword ptr [esp+10h],edx
  00407969: C7 44 24 04 08 00  mov         dword ptr [esp+4],8
            00 00
  00407971: 89 04 24           mov         dword ptr [esp],eax
  00407974: FF 15 00 22 41 00  call        dword ptr ds:[412200h]
  0040797A: 83 EC 18           sub         esp,18h
  0040797D: 85 C0              test        eax,eax
  0040797F: 75 84              jne         00407905
  00407981: E8 42 66 00 00     call        0040DFC8
  00407986: C7 00 2A 00 00 00  mov         dword ptr [eax],2Ah
  0040798C: B8 FF FF FF FF     mov         eax,0FFFFFFFFh
  00407991: EB A8              jmp         0040793B
  00407993: 8B 44 24 40        mov         eax,dword ptr [esp+40h]
  00407997: 8B 54 24 50        mov         edx,dword ptr [esp+50h]
  0040799B: C7 44 24 14 01 00  mov         dword ptr [esp+14h],1
            00 00
  004079A3: C7 44 24 0C 01 00  mov         dword ptr [esp+0Ch],1
            00 00
  004079AB: 89 44 24 10        mov         dword ptr [esp+10h],eax
  004079AF: 89 5C 24 08        mov         dword ptr [esp+8],ebx
  004079B3: C7 44 24 04 08 00  mov         dword ptr [esp+4],8
            00 00
  004079BB: 89 14 24           mov         dword ptr [esp],edx
  004079BE: FF 15 00 22 41 00  call        dword ptr ds:[412200h]
  004079C4: 83 EC 18           sub         esp,18h
  004079C7: 85 C0              test        eax,eax
  004079C9: 74 B6              je          00407981
  004079CB: B8 01 00 00 00     mov         eax,1
  004079D0: E9 66 FF FF FF     jmp         0040793B
  004079D5: 83 C4 34           add         esp,34h
  004079D8: 31 C0              xor         eax,eax
  004079DA: 5B                 pop         ebx
  004079DB: 5E                 pop         esi
  004079DC: C3                 ret
  004079DD: 8D 76 00           lea         esi,[esi]
  004079E0: B8 FE FF FF FF     mov         eax,0FFFFFFFEh
  004079E5: E9 51 FF FF FF     jmp         0040793B
  004079EA: 0F B6 03           movzx       eax,byte ptr [ebx]
  004079ED: 88 06              mov         byte ptr [esi],al
  004079EF: B8 FE FF FF FF     mov         eax,0FFFFFFFEh
  004079F4: E9 42 FF FF FF     jmp         0040793B
  004079F9: 8D B4 26 00 00 00  lea         esi,[esi]
            00
  00407A00: 83 EC 3C           sub         esp,3Ch
  00407A03: 8B 44 24 40        mov         eax,dword ptr [esp+40h]
  00407A07: 89 74 24 34        mov         dword ptr [esp+34h],esi
  00407A0B: 8D 74 24 2E        lea         esi,[esp+2Eh]
  00407A0F: 89 5C 24 30        mov         dword ptr [esp+30h],ebx
  00407A13: 8B 5C 24 4C        mov         ebx,dword ptr [esp+4Ch]
  00407A17: 89 7C 24 38        mov         dword ptr [esp+38h],edi
  00407A1B: 85 C0              test        eax,eax
  00407A1D: 0F 45 F0           cmovne      esi,eax
  00407A20: A1 3C 22 41 00     mov         eax,[0041223C]
  00407A25: 66 C7 44 24 2E 00  mov         word ptr [esp+2Eh],0
            00
  00407A2C: 8B 38              mov         edi,dword ptr [eax]
  00407A2E: FF 15 70 F0 40 00  call        dword ptr ds:[40F070h]
  00407A34: 85 DB              test        ebx,ebx
  00407A36: BA C4 13 41 00     mov         edx,4113C4h
  00407A3B: 0F 44 DA           cmove       ebx,edx
  00407A3E: 89 5C 24 0C        mov         dword ptr [esp+0Ch],ebx
  00407A42: 89 7C 24 14        mov         dword ptr [esp+14h],edi
  00407A46: 89 34 24           mov         dword ptr [esp],esi
  00407A49: 89 44 24 10        mov         dword ptr [esp+10h],eax
  00407A4D: 8B 44 24 48        mov         eax,dword ptr [esp+48h]
  00407A51: 89 44 24 08        mov         dword ptr [esp+8],eax
  00407A55: 8B 44 24 44        mov         eax,dword ptr [esp+44h]
  00407A59: 89 44 24 04        mov         dword ptr [esp+4],eax
  00407A5D: E8 FE FD FF FF     call        00407860
  00407A62: 8B 5C 24 30        mov         ebx,dword ptr [esp+30h]
  00407A66: 8B 74 24 34        mov         esi,dword ptr [esp+34h]
  00407A6A: 8B 7C 24 38        mov         edi,dword ptr [esp+38h]
  00407A6E: 83 C4 3C           add         esp,3Ch
  00407A71: C3                 ret
  00407A72: 8D B4 26 00 00 00  lea         esi,[esi]
            00
  00407A79: 8D BC 27 00 00 00  lea         edi,[edi]
            00
  00407A80: 55                 push        ebp
  00407A81: 57                 push        edi
  00407A82: 56                 push        esi
  00407A83: 53                 push        ebx
  00407A84: 83 EC 4C           sub         esp,4Ch
  00407A87: 8B 44 24 6C        mov         eax,dword ptr [esp+6Ch]
  00407A8B: C7 44 24 24 C8 13  mov         dword ptr [esp+24h],4113C8h
            41 00
  00407A93: 8B 74 24 64        mov         esi,dword ptr [esp+64h]
  00407A97: 8B 6C 24 60        mov         ebp,dword ptr [esp+60h]
  00407A9B: 8B 7C 24 68        mov         edi,dword ptr [esp+68h]
  00407A9F: 85 C0              test        eax,eax
  00407AA1: 0F 44 44 24 24     cmove       eax,dword ptr [esp+24h]
  00407AA6: 89 44 24 24        mov         dword ptr [esp+24h],eax
  00407AAA: FF 15 70 F0 40 00  call        dword ptr ds:[40F070h]
  00407AB0: 85 F6              test        esi,esi
  00407AB2: 89 44 24 2C        mov         dword ptr [esp+2Ch],eax
  00407AB6: A1 3C 22 41 00     mov         eax,[0041223C]
  00407ABB: 8B 00              mov         eax,dword ptr [eax]
  00407ABD: 89 44 24 28        mov         dword ptr [esp+28h],eax
  00407AC1: 74 7D              je          00407B40
  00407AC3: 8B 0E              mov         ecx,dword ptr [esi]
  00407AC5: 85 C9              test        ecx,ecx
  00407AC7: 74 77              je          00407B40
  00407AC9: 85 ED              test        ebp,ebp
  00407ACB: 0F 84 7F 00 00 00  je          00407B50
  00407AD1: 89 F0              mov         eax,esi
  00407AD3: 31 DB              xor         ebx,ebx
  00407AD5: 85 FF              test        edi,edi
  00407AD7: 89 EE              mov         esi,ebp
  00407AD9: 89 C5              mov         ebp,eax
  00407ADB: 75 14              jne         00407AF1
  00407ADD: EB 51              jmp         00407B30
  00407ADF: 90                 nop
  00407AE0: 8B 4D 00           mov         ecx,dword ptr [ebp]
  00407AE3: 01 C3              add         ebx,eax
  00407AE5: 83 C6 02           add         esi,2
  00407AE8: 01 C1              add         ecx,eax
  00407AEA: 39 DF              cmp         edi,ebx
  00407AEC: 89 4D 00           mov         dword ptr [ebp],ecx
  00407AEF: 76 30              jbe         00407B21
  00407AF1: 8B 44 24 28        mov         eax,dword ptr [esp+28h]
  00407AF5: 89 4C 24 04        mov         dword ptr [esp+4],ecx
  00407AF9: 89 34 24           mov         dword ptr [esp],esi
  00407AFC: 89 44 24 14        mov         dword ptr [esp+14h],eax
  00407B00: 8B 44 24 2C        mov         eax,dword ptr [esp+2Ch]
  00407B04: 89 44 24 10        mov         dword ptr [esp+10h],eax
  00407B08: 8B 44 24 24        mov         eax,dword ptr [esp+24h]
  00407B0C: 89 44 24 0C        mov         dword ptr [esp+0Ch],eax
  00407B10: 89 F8              mov         eax,edi
  00407B12: 29 D8              sub         eax,ebx
  00407B14: 89 44 24 08        mov         dword ptr [esp+8],eax
  00407B18: E8 43 FD FF FF     call        00407860
  00407B1D: 85 C0              test        eax,eax
  00407B1F: 7F BF              jg          00407AE0
  00407B21: 85 C0              test        eax,eax
  00407B23: 75 0B              jne         00407B30
  00407B25: 39 FB              cmp         ebx,edi
  00407B27: 73 07              jae         00407B30
  00407B29: C7 45 00 00 00 00  mov         dword ptr [ebp],0
            00
  00407B30: 83 C4 4C           add         esp,4Ch
  00407B33: 89 D8              mov         eax,ebx
  00407B35: 5B                 pop         ebx
  00407B36: 5E                 pop         esi
  00407B37: 5F                 pop         edi
  00407B38: 5D                 pop         ebp
  00407B39: C3                 ret
  00407B3A: 8D B6 00 00 00 00  lea         esi,[esi]
  00407B40: 83 C4 4C           add         esp,4Ch
  00407B43: 31 DB              xor         ebx,ebx
  00407B45: 89 D8              mov         eax,ebx
  00407B47: 5B                 pop         ebx
  00407B48: 5E                 pop         esi
  00407B49: 5F                 pop         edi
  00407B4A: 5D                 pop         ebp
  00407B4B: C3                 ret
  00407B4C: 8D 74 26 00        lea         esi,[esi]
  00407B50: 31 DB              xor         ebx,ebx
  00407B52: 85 FF              test        edi,edi
  00407B54: 66 C7 44 24 3E 00  mov         word ptr [esp+3Eh],0
            00
  00407B5B: 74 D3              je          00407B30
  00407B5D: 8B 6C 24 28        mov         ebp,dword ptr [esp+28h]
  00407B61: 89 7C 24 28        mov         dword ptr [esp+28h],edi
  00407B65: 8B 7C 24 2C        mov         edi,dword ptr [esp+2Ch]
  00407B69: EB 13              jmp         00407B7E
  00407B6B: 90                 nop
  00407B6C: 8D 74 26 00        lea         esi,[esi]
  00407B70: 8B 0E              mov         ecx,dword ptr [esi]
  00407B72: 01 C3              add         ebx,eax
  00407B74: 01 C1              add         ecx,eax
  00407B76: 39 5C 24 28        cmp         dword ptr [esp+28h],ebx
  00407B7A: 89 0E              mov         dword ptr [esi],ecx
  00407B7C: 76 B2              jbe         00407B30
  00407B7E: 8B 44 24 24        mov         eax,dword ptr [esp+24h]
  00407B82: 89 6C 24 14        mov         dword ptr [esp+14h],ebp
  00407B86: 89 7C 24 10        mov         dword ptr [esp+10h],edi
  00407B8A: 89 6C 24 08        mov         dword ptr [esp+8],ebp
  00407B8E: 89 44 24 0C        mov         dword ptr [esp+0Ch],eax
  00407B92: 8D 44 24 3E        lea         eax,[esp+3Eh]
  00407B96: 89 4C 24 04        mov         dword ptr [esp+4],ecx
  00407B9A: 89 04 24           mov         dword ptr [esp],eax
  00407B9D: E8 BE FC FF FF     call        00407860
  00407BA2: 85 C0              test        eax,eax
  00407BA4: 7F CA              jg          00407B70
  00407BA6: EB 88              jmp         00407B30
  00407BA8: 90                 nop
  00407BA9: 8D B4 26 00 00 00  lea         esi,[esi]
            00
  00407BB0: 56                 push        esi
  00407BB1: 53                 push        ebx
  00407BB2: 83 EC 34           sub         esp,34h
  00407BB5: A1 3C 22 41 00     mov         eax,[0041223C]
  00407BBA: 8B 5C 24 48        mov         ebx,dword ptr [esp+48h]
  00407BBE: 66 C7 44 24 2E 00  mov         word ptr [esp+2Eh],0
            00
  00407BC5: 8B 30              mov         esi,dword ptr [eax]
  00407BC7: FF 15 70 F0 40 00  call        dword ptr ds:[40F070h]
  00407BCD: 85 DB              test        ebx,ebx
  00407BCF: BA CC 13 41 00     mov         edx,4113CCh
  00407BD4: 0F 44 DA           cmove       ebx,edx
  00407BD7: 89 5C 24 0C        mov         dword ptr [esp+0Ch],ebx
  00407BDB: 89 74 24 14        mov         dword ptr [esp+14h],esi
  00407BDF: 89 44 24 10        mov         dword ptr [esp+10h],eax
  00407BE3: 8B 44 24 44        mov         eax,dword ptr [esp+44h]
  00407BE7: 89 44 24 08        mov         dword ptr [esp+8],eax
  00407BEB: 8B 44 24 40        mov         eax,dword ptr [esp+40h]
  00407BEF: 89 44 24 04        mov         dword ptr [esp+4],eax
  00407BF3: 8D 44 24 2E        lea         eax,[esp+2Eh]
  00407BF7: 89 04 24           mov         dword ptr [esp],eax
  00407BFA: E8 61 FC FF FF     call        00407860
  00407BFF: 83 C4 34           add         esp,34h
  00407C02: 5B                 pop         ebx
  00407C03: 5E                 pop         esi
  00407C04: C3                 ret
  00407C05: 90                 nop
  00407C06: 90                 nop
  00407C07: 90                 nop
  00407C08: 90                 nop
  00407C09: 90                 nop
  00407C0A: 90                 nop
  00407C0B: 90                 nop
  00407C0C: 90                 nop
  00407C0D: 90                 nop
  00407C0E: 90                 nop
  00407C0F: 90                 nop
  00407C10: 55                 push        ebp
  00407C11: 57                 push        edi
  00407C12: 56                 push        esi
  00407C13: 53                 push        ebx
  00407C14: 83 EC 3C           sub         esp,3Ch
  00407C17: 8B 4C 24 54        mov         ecx,dword ptr [esp+54h]
  00407C1B: 8B 6C 24 50        mov         ebp,dword ptr [esp+50h]
  00407C1F: 8B 5C 24 58        mov         ebx,dword ptr [esp+58h]
  00407C23: 85 C9              test        ecx,ecx
  00407C25: 74 06              je          00407C2D
  00407C27: 8B 44 24 54        mov         eax,dword ptr [esp+54h]
  00407C2B: 89 28              mov         dword ptr [eax],ebp
  00407C2D: 83 FB 01           cmp         ebx,1
  00407C30: 74 10              je          00407C42
  00407C32: 89 D8              mov         eax,ebx
  00407C34: C1 E8 1F           shr         eax,1Fh
  00407C37: 84 C0              test        al,al
  00407C39: 75 07              jne         00407C42
  00407C3B: 83 FB 24           cmp         ebx,24h
  00407C3E: 89 DE              mov         esi,ebx
  00407C40: 7E 21              jle         00407C63
  00407C42: E8 81 63 00 00     call        0040DFC8
  00407C47: 31 D2              xor         edx,edx
  00407C49: C7 00 21 00 00 00  mov         dword ptr [eax],21h
  00407C4F: 31 C0              xor         eax,eax
  00407C51: 83 C4 3C           add         esp,3Ch
  00407C54: 5B                 pop         ebx
  00407C55: 5E                 pop         esi
  00407C56: 5F                 pop         edi
  00407C57: 5D                 pop         ebp
  00407C58: C3                 ret
  00407C59: 8D B4 26 00 00 00  lea         esi,[esi]
            00
  00407C60: 83 C5 01           add         ebp,1
  00407C63: 0F B6 5D 00        movzx       ebx,byte ptr [ebp]
  00407C67: 0F BE C3           movsx       eax,bl
  00407C6A: 89 04 24           mov         dword ptr [esp],eax
  00407C6D: E8 4E 63 00 00     call        0040DFC0
  00407C72: 85 C0              test        eax,eax
  00407C74: 75 EA              jne         00407C60
  00407C76: 89 F0              mov         eax,esi
  00407C78: 89 DE              mov         esi,ebx
  00407C7A: 89 F2              mov         edx,esi
  00407C7C: 89 C3              mov         ebx,eax
  00407C7E: 80 FA 2D           cmp         dl,2Dh
  00407C81: 89 E8              mov         eax,ebp
  00407C83: 0F 94 C2           sete        dl
  00407C86: 0F B6 D2           movzx       edx,dl
  00407C89: 89 54 24 2C        mov         dword ptr [esp+2Ch],edx
  00407C8D: 0F 84 12 01 00 00  je          00407DA5
  00407C93: 89 F2              mov         edx,esi
  00407C95: 80 FA 2B           cmp         dl,2Bh
  00407C98: 0F 84 07 01 00 00  je          00407DA5
  00407C9E: 85 DB              test        ebx,ebx
  00407CA0: 0F 85 0E 01 00 00  jne         00407DB4
  00407CA6: 89 F0              mov         eax,esi
  00407CA8: B3 0A              mov         bl,0Ah
  00407CAA: 3C 30              cmp         al,30h
  00407CAC: 0F 84 0E 02 00 00  je          00407EC0
  00407CB2: 89 F0              mov         eax,esi
  00407CB4: 0F BE F0           movsx       esi,al
  00407CB7: 8D 46 D0           lea         eax,[esi-30h]
  00407CBA: 83 F8 09           cmp         eax,9
  00407CBD: 0F 87 95 01 00 00  ja          00407E58
  00407CC3: 83 EE 30           sub         esi,30h
  00407CC6: 39 F3              cmp         ebx,esi
  00407CC8: 0F 8E E4 01 00 00  jle         00407EB2
  00407CCE: 89 F0              mov         eax,esi
  00407CD0: C1 E8 1F           shr         eax,1Fh
  00407CD3: 84 C0              test        al,al
  00407CD5: 0F 85 D7 01 00 00  jne         00407EB2
  00407CDB: 89 DA              mov         edx,ebx
  00407CDD: 89 F7              mov         edi,esi
  00407CDF: C1 FA 1F           sar         edx,1Fh
  00407CE2: 83 C5 01           add         ebp,1
  00407CE5: C1 FF 1F           sar         edi,1Fh
  00407CE8: C7 44 24 28 00 00  mov         dword ptr [esp+28h],0
            00 00
  00407CF0: 89 5C 24 20        mov         dword ptr [esp+20h],ebx
  00407CF4: 89 54 24 24        mov         dword ptr [esp+24h],edx
  00407CF8: 89 5C 24 1C        mov         dword ptr [esp+1Ch],ebx
  00407CFC: E9 80 00 00 00     jmp         00407D81
  00407D01: 89 CB              mov         ebx,ecx
  00407D03: 39 5C 24 1C        cmp         dword ptr [esp+1Ch],ebx
  00407D07: 0F 8E EF 00 00 00  jle         00407DFC
  00407D0D: 85 DB              test        ebx,ebx
  00407D0F: 0F 88 E7 00 00 00  js          00407DFC
  00407D15: 8B 44 24 20        mov         eax,dword ptr [esp+20h]
  00407D19: 8B 54 24 24        mov         edx,dword ptr [esp+24h]
  00407D1D: C7 04 24 FF FF FF  mov         dword ptr [esp],0FFFFFFFFh
            FF
  00407D24: C7 44 24 04 FF FF  mov         dword ptr [esp+4],7FFFFFFFh
            FF 7F
  00407D2C: 89 44 24 08        mov         dword ptr [esp+8],eax
  00407D30: 89 54 24 0C        mov         dword ptr [esp+0Ch],edx
  00407D34: E8 0F 63 00 00     call        0040E048
  00407D39: 83 C0 02           add         eax,2
  00407D3C: 83 D2 00           adc         edx,0
  00407D3F: 39 D7              cmp         edi,edx
  00407D41: 0F 87 9A 00 00 00  ja          00407DE1
  00407D47: 72 08              jb          00407D51
  00407D49: 39 C6              cmp         esi,eax
  00407D4B: 0F 87 90 00 00 00  ja          00407DE1
  00407D51: 8B 44 24 24        mov         eax,dword ptr [esp+24h]
  00407D55: 0F AF 7C 24 1C     imul        edi,dword ptr [esp+1Ch]
  00407D5A: 0F AF C6           imul        eax,esi
  00407D5D: 01 C7              add         edi,eax
  00407D5F: 8B 44 24 1C        mov         eax,dword ptr [esp+1Ch]
  00407D63: F7 E6              mul         eax,esi
  00407D65: 89 DE              mov         esi,ebx
  00407D67: 01 FA              add         edx,edi
  00407D69: 89 DF              mov         edi,ebx
  00407D6B: C1 FF 1F           sar         edi,1Fh
  00407D6E: 89 44 24 10        mov         dword ptr [esp+10h],eax
  00407D72: 89 54 24 14        mov         dword ptr [esp+14h],edx
  00407D76: 03 74 24 10        add         esi,dword ptr [esp+10h]
  00407D7A: 13 7C 24 14        adc         edi,dword ptr [esp+14h]
  00407D7E: 83 C5 01           add         ebp,1
  00407D81: 0F BE 5D 00        movsx       ebx,byte ptr [ebp]
  00407D85: 8D 4B D0           lea         ecx,[ebx-30h]
  00407D88: 83 F9 09           cmp         ecx,9
  00407D8B: 0F 86 70 FF FF FF  jbe         00407D01
  00407D91: 89 1C 24           mov         dword ptr [esp],ebx
  00407D94: E8 77 62 00 00     call        0040E010
  00407D99: 85 C0              test        eax,eax
  00407D9B: 74 53              je          00407DF0
  00407D9D: 83 EB 37           sub         ebx,37h
  00407DA0: E9 5E FF FF FF     jmp         00407D03
  00407DA5: 83 C5 01           add         ebp,1
  00407DA8: 85 DB              test        ebx,ebx
  00407DAA: 0F B6 70 01        movzx       esi,byte ptr [eax+1]
  00407DAE: 0F 84 F2 FE FF FF  je          00407CA6
  00407DB4: 83 FB 10           cmp         ebx,10h
  00407DB7: 0F 85 F5 FE FF FF  jne         00407CB2
  00407DBD: 89 F2              mov         edx,esi
  00407DBF: 80 FA 30           cmp         dl,30h
  00407DC2: 0F 85 EA FE FF FF  jne         00407CB2
  00407DC8: 0F B6 45 01        movzx       eax,byte ptr [ebp+1]
  00407DCC: 83 E0 DF           and         eax,0FFFFFFDFh
  00407DCF: 3C 58              cmp         al,58h
  00407DD1: 0F 84 FA 00 00 00  je          00407ED1
  00407DD7: BE 30 00 00 00     mov         esi,30h
  00407DDC: E9 E2 FE FF FF     jmp         00407CC3
  00407DE1: C7 44 24 28 01 00  mov         dword ptr [esp+28h],1
            00 00
  00407DE9: EB 93              jmp         00407D7E
  00407DEB: 90                 nop
  00407DEC: 8D 74 26 00        lea         esi,[esi]
  00407DF0: 89 1C 24           mov         dword ptr [esp],ebx
  00407DF3: E8 20 62 00 00     call        0040E018
  00407DF8: 85 C0              test        eax,eax
  00407DFA: 75 54              jne         00407E50
  00407DFC: 8B 54 24 54        mov         edx,dword ptr [esp+54h]
  00407E00: 85 D2              test        edx,edx
  00407E02: 74 06              je          00407E0A
  00407E04: 8B 54 24 54        mov         edx,dword ptr [esp+54h]
  00407E08: 89 2A              mov         dword ptr [edx],ebp
  00407E0A: 8B 44 24 2C        mov         eax,dword ptr [esp+2Ch]
  00407E0E: 85 C0              test        eax,eax
  00407E10: 74 70              je          00407E82
  00407E12: 81 FF 00 00 00 80  cmp         edi,80000000h
  00407E18: 0F 87 C4 00 00 00  ja          00407EE2
  00407E1E: 72 09              jb          00407E29
  00407E20: 83 FE 00           cmp         esi,0
  00407E23: 0F 87 B9 00 00 00  ja          00407EE2
  00407E29: 83 7C 24 28 00     cmp         dword ptr [esp+28h],0
  00407E2E: 66
  00407E2F: 90                 nop
  00407E30: 0F 85 AC 00 00 00  jne         00407EE2
  00407E36: F7 DE              neg         esi
  00407E38: 83 D7 00           adc         edi,0
  00407E3B: F7 DF              neg         edi
  00407E3D: 83 C4 3C           add         esp,3Ch
  00407E40: 89 F0              mov         eax,esi
  00407E42: 5B                 pop         ebx
  00407E43: 89 FA              mov         edx,edi
  00407E45: 5E                 pop         esi
  00407E46: 5F                 pop         edi
  00407E47: 5D                 pop         ebp
  00407E48: C3                 ret
  00407E49: 8D B4 26 00 00 00  lea         esi,[esi]
            00
  00407E50: 83 EB 57           sub         ebx,57h
  00407E53: E9 AB FE FF FF     jmp         00407D03
  00407E58: 89 34 24           mov         dword ptr [esp],esi
  00407E5B: E8 B0 61 00 00     call        0040E010
  00407E60: 85 C0              test        eax,eax
  00407E62: 75 43              jne         00407EA7
  00407E64: 89 34 24           mov         dword ptr [esp],esi
  00407E67: E8 AC 61 00 00     call        0040E018
  00407E6C: 31 D2              xor         edx,edx
  00407E6E: 89 C1              mov         ecx,eax
  00407E70: 31 C0              xor         eax,eax
  00407E72: 85 C9              test        ecx,ecx
  00407E74: 0F 84 D7 FD FF FF  je          00407C51
  00407E7A: 83 EE 57           sub         esi,57h
  00407E7D: E9 44 FE FF FF     jmp         00407CC6
  00407E82: 85 FF              test        edi,edi
  00407E84: 78 07              js          00407E8D
  00407E86: 83 7C 24 28 00     cmp         dword ptr [esp+28h],0
  00407E8B: 74 B0              je          00407E3D
  00407E8D: E8 36 61 00 00     call        0040DFC8
  00407E92: BA FF FF FF 7F     mov         edx,7FFFFFFFh
  00407E97: C7 00 22 00 00 00  mov         dword ptr [eax],22h
  00407E9D: B8 FF FF FF FF     mov         eax,0FFFFFFFFh
  00407EA2: E9 AA FD FF FF     jmp         00407C51
  00407EA7: 83 EE 37           sub         esi,37h
  00407EAA: 39 F3              cmp         ebx,esi
  00407EAC: 0F 8F 1C FE FF FF  jg          00407CCE
  00407EB2: 83 C4 3C           add         esp,3Ch
  00407EB5: 31 C0              xor         eax,eax
  00407EB7: 5B                 pop         ebx
  00407EB8: 31 D2              xor         edx,edx
  00407EBA: 5E                 pop         esi
  00407EBB: 5F                 pop         edi
  00407EBC: 5D                 pop         ebp
  00407EBD: C3                 ret
  00407EBE: 66
  00407EBF: 90                 nop
  00407EC0: 0F B6 45 01        movzx       eax,byte ptr [ebp+1]
  00407EC4: B3 08              mov         bl,8
  00407EC6: 83 E0 DF           and         eax,0FFFFFFDFh
  00407EC9: 3C 58              cmp         al,58h
  00407ECB: 0F 85 E1 FD FF FF  jne         00407CB2
  00407ED1: 0F B6 75 02        movzx       esi,byte ptr [ebp+2]
  00407ED5: BB 10 00 00 00     mov         ebx,10h
  00407EDA: 83 C5 02           add         ebp,2
  00407EDD: E9 D0 FD FF FF     jmp         00407CB2
  00407EE2: E8 E1 60 00 00     call        0040DFC8
  00407EE7: BA 00 00 00 80     mov         edx,80000000h
  00407EEC: C7 00 22 00 00 00  mov         dword ptr [eax],22h
  00407EF2: 31 C0              xor         eax,eax
  00407EF4: E9 58 FD FF FF     jmp         00407C51
  00407EF9: 90                 nop
  00407EFA: 90                 nop
  00407EFB: 90                 nop
  00407EFC: 90                 nop
  00407EFD: 90                 nop
  00407EFE: 90                 nop
  00407EFF: 90                 nop
  00407F00: 83 EC 4C           sub         esp,4Ch
  00407F03: 8D 44 24 2C        lea         eax,[esp+2Ch]
  00407F07: 89 44 24 10        mov         dword ptr [esp+10h],eax
  00407F0B: 8D 44 24 28        lea         eax,[esp+28h]
  00407F0F: 89 44 24 0C        mov         dword ptr [esp+0Ch],eax
  00407F13: 8B 44 24 54        mov         eax,dword ptr [esp+54h]
  00407F17: D9 EE              fldz
  00407F19: C7 44 24 08 38 F0  mov         dword ptr [esp+8],40F038h
            40 00
  00407F21: DB 7C 24 34        fstp        tbyte ptr [esp+34h]
  00407F25: 89 44 24 04        mov         dword ptr [esp+4],eax
  00407F29: 8B 44 24 50        mov         eax,dword ptr [esp+50h]
  00407F2D: 89 04 24           mov         dword ptr [esp],eax
  00407F30: E8 5B 25 00 00     call        0040A490
  00407F35: 89 C2              mov         edx,eax
  00407F37: 83 E2 07           and         edx,7
  00407F3A: 83 FA 06           cmp         edx,6
  00407F3D: 77 38              ja          00407F77
  00407F3F: FF 24 95 28 06 41  jmp         dword ptr [edx*4+410628h]
            00
  00407F46: 0F B7 54 24 28     movzx       edx,word ptr [esp+28h]
  00407F4B: 66 81 C2 3E 40     add         dx,403Eh
  00407F50: 66 89 54 24 3C     mov         word ptr [esp+3Ch],dx
  00407F55: 8B 54 24 2C        mov         edx,dword ptr [esp+2Ch]
  00407F59: 66 89 54 24 34     mov         word ptr [esp+34h],dx
  00407F5E: C1 EA 10           shr         edx,10h
  00407F61: 66 89 54 24 36     mov         word ptr [esp+36h],dx
  00407F66: 8B 54 24 30        mov         edx,dword ptr [esp+30h]
  00407F6A: 66 89 54 24 38     mov         word ptr [esp+38h],dx
  00407F6F: C1 EA 10           shr         edx,10h
  00407F72: 66 89 54 24 3A     mov         word ptr [esp+3Ah],dx
  00407F77: A8 08              test        al,8
  00407F79: 74 07              je          00407F82
  00407F7B: 66 81 4C 24 3C 00  or          word ptr [esp+3Ch],8000h
            80
  00407F82: DB 6C 24 34        fld         tbyte ptr [esp+34h]
  00407F86: 83 C4 4C           add         esp,4Ch
  00407F89: C3                 ret
  00407F8A: 8D B6 00 00 00 00  lea         esi,[esi]
  00407F90: 66 C7 44 24 3C FF  mov         word ptr [esp+3Ch],7FFFh
            7F
  00407F97: 66 C7 44 24 3A 00  mov         word ptr [esp+3Ah],8000h
            80
  00407F9E: 66 C7 44 24 34 00  mov         word ptr [esp+34h],0
            00
  00407FA5: 66 C7 44 24 36 00  mov         word ptr [esp+36h],0
            00
  00407FAC: 66 C7 44 24 38 00  mov         word ptr [esp+38h],0
            00
  00407FB3: EB C2              jmp         00407F77
  00407FB5: 66 C7 44 24 34 00  mov         word ptr [esp+34h],0
            00
  00407FBC: 66 C7 44 24 36 00  mov         word ptr [esp+36h],0
            00
  00407FC3: 66 C7 44 24 38 00  mov         word ptr [esp+38h],0
            00
  00407FCA: 66 C7 44 24 3A 00  mov         word ptr [esp+3Ah],0C000h
            C0
  00407FD1: 66 C7 44 24 3C FF  mov         word ptr [esp+3Ch],7FFFh
            7F
  00407FD8: EB 9D              jmp         00407F77
  00407FDA: 8D B6 00 00 00 00  lea         esi,[esi]
  00407FE0: 66 C7 44 24 3C 00  mov         word ptr [esp+3Ch],0
            00
  00407FE7: 66 C7 44 24 3A 00  mov         word ptr [esp+3Ah],0
            00
  00407FEE: 66 C7 44 24 38 00  mov         word ptr [esp+38h],0
            00
  00407FF5: 66 C7 44 24 36 00  mov         word ptr [esp+36h],0
            00
  00407FFC: 66 C7 44 24 34 00  mov         word ptr [esp+34h],0
            00
  00408003: E9 6F FF FF FF     jmp         00407F77
  00408008: 66 C7 44 24 3C 00  mov         word ptr [esp+3Ch],0
            00
  0040800F: E9 41 FF FF FF     jmp         00407F55
  00408014: 90                 nop
  00408015: 90                 nop
  00408016: 90                 nop
  00408017: 90                 nop
  00408018: 90                 nop
  00408019: 90                 nop
  0040801A: 90                 nop
  0040801B: 90                 nop
  0040801C: 90                 nop
  0040801D: 90                 nop
  0040801E: 90                 nop
  0040801F: 90                 nop
  00408020: 83 EC 4C           sub         esp,4Ch
  00408023: 8D 44 24 38        lea         eax,[esp+38h]
  00408027: 89 44 24 10        mov         dword ptr [esp+10h],eax
  0040802B: 8D 44 24 3C        lea         eax,[esp+3Ch]
  0040802F: 89 44 24 0C        mov         dword ptr [esp+0Ch],eax
  00408033: 8B 44 24 54        mov         eax,dword ptr [esp+54h]
  00408037: C7 44 24 08 50 F0  mov         dword ptr [esp+8],40F050h
            40 00
  0040803F: 89 44 24 04        mov         dword ptr [esp+4],eax
  00408043: 8B 44 24 50        mov         eax,dword ptr [esp+50h]
  00408047: 89 04 24           mov         dword ptr [esp],eax
  0040804A: E8 41 24 00 00     call        0040A490
  0040804F: 89 C2              mov         edx,eax
  00408051: 83 E2 07           and         edx,7
  00408054: 83 FA 05           cmp         edx,5
  00408057: 76 1B              jbe         00408074
  00408059: 31 D2              xor         edx,edx
  0040805B: 89 D1              mov         ecx,edx
  0040805D: 81 C9 00 00 00 80  or          ecx,80000000h
  00408063: A8 08              test        al,8
  00408065: 0F 45 D1           cmovne      edx,ecx
  00408068: 89 54 24 2C        mov         dword ptr [esp+2Ch],edx
  0040806C: D9 44 24 2C        fld         dword ptr [esp+2Ch]
  00408070: 83 C4 4C           add         esp,4Ch
  00408073: C3                 ret
  00408074: FF 24 95 44 06 41  jmp         dword ptr [edx*4+410644h]
            00
  0040807B: 90                 nop
  0040807C: 8D 74 26 00        lea         esi,[esi]
  00408080: BA 00 00 80 7F     mov         edx,7F800000h
  00408085: EB D4              jmp         0040805B
  00408087: 8B 54 24 38        mov         edx,dword ptr [esp+38h]
  0040808B: EB CE              jmp         0040805B
  0040808D: 8D 76 00           lea         esi,[esi]
  00408090: 8B 54 24 3C        mov         edx,dword ptr [esp+3Ch]
  00408094: 8B 4C 24 38        mov         ecx,dword ptr [esp+38h]
  00408098: 81 C2 96 00 00 00  add         edx,96h
  0040809E: C1 E2 17           shl         edx,17h
  004080A1: 81 E1 FF FF 7F 00  and         ecx,7FFFFFh
  004080A7: 09 CA              or          edx,ecx
  004080A9: EB B0              jmp         0040805B
  004080AB: 90                 nop
  004080AC: 8D 74 26 00        lea         esi,[esi]
  004080B0: BA 00 00 C0 7F     mov         edx,7FC00000h
  004080B5: EB A4              jmp         0040805B
  004080B7: 90                 nop
  004080B8: 90                 nop
  004080B9: 90                 nop
  004080BA: 90                 nop
  004080BB: 90                 nop
  004080BC: 90                 nop
  004080BD: 90                 nop
  004080BE: 90                 nop
  004080BF: 90                 nop
  004080C0: 55                 push        ebp
  004080C1: 57                 push        edi
  004080C2: 56                 push        esi
  004080C3: 53                 push        ebx
  004080C4: 83 EC 3C           sub         esp,3Ch
  004080C7: 8B 6C 24 54        mov         ebp,dword ptr [esp+54h]
  004080CB: 8B 5C 24 50        mov         ebx,dword ptr [esp+50h]
  004080CF: 85 ED              test        ebp,ebp
  004080D1: 74 06              je          004080D9
  004080D3: 8B 44 24 54        mov         eax,dword ptr [esp+54h]
  004080D7: 89 18              mov         dword ptr [eax],ebx
  004080D9: 83 7C 24 58 01     cmp         dword ptr [esp+58h],1
  004080DE: 74 12              je          004080F2
  004080E0: 8B 44 24 58        mov         eax,dword ptr [esp+58h]
  004080E4: C1 E8 1F           shr         eax,1Fh
  004080E7: 84 C0              test        al,al
  004080E9: 75 07              jne         004080F2
  004080EB: 83 7C 24 58 24     cmp         dword ptr [esp+58h],24h
  004080F0: 7E 21              jle         00408113
  004080F2: E8 D1 5E 00 00     call        0040DFC8
  004080F7: 31 F6              xor         esi,esi
  004080F9: 31 FF              xor         edi,edi
  004080FB: C7 00 21 00 00 00  mov         dword ptr [eax],21h
  00408101: 83 C4 3C           add         esp,3Ch
  00408104: 89 F0              mov         eax,esi
  00408106: 5B                 pop         ebx
  00408107: 89 FA              mov         edx,edi
  00408109: 5E                 pop         esi
  0040810A: 5F                 pop         edi
  0040810B: 5D                 pop         ebp
  0040810C: C3                 ret
  0040810D: 8D 76 00           lea         esi,[esi]
  00408110: 83 C3 01           add         ebx,1
  00408113: 0F B6 33           movzx       esi,byte ptr [ebx]
  00408116: 89 F2              mov         edx,esi
  00408118: 0F BE C2           movsx       eax,dl
  0040811B: 89 04 24           mov         dword ptr [esp],eax
  0040811E: E8 9D 5E 00 00     call        0040DFC0
  00408123: 85 C0              test        eax,eax
  00408125: 75 E9              jne         00408110
  00408127: 89 F2              mov         edx,esi
  00408129: 89 D8              mov         eax,ebx
  0040812B: 80 FA 2D           cmp         dl,2Dh
  0040812E: 0F 94 C2           sete        dl
  00408131: 0F B6 D2           movzx       edx,dl
  00408134: 89 54 24 2C        mov         dword ptr [esp+2Ch],edx
  00408138: 0F 84 48 01 00 00  je          00408286
  0040813E: 89 F2              mov         edx,esi
  00408140: 80 FA 2B           cmp         dl,2Bh
  00408143: 0F 84 3D 01 00 00  je          00408286
  00408149: 8B 7C 24 58        mov         edi,dword ptr [esp+58h]
  0040814D: 85 FF              test        edi,edi
  0040814F: 0F 85 44 01 00 00  jne         00408299
  00408155: 89 F0              mov         eax,esi
  00408157: 3C 30              cmp         al,30h
  00408159: C7 44 24 58 0A 00  mov         dword ptr [esp+58h],0Ah
            00 00
  00408161: 0F 84 FA 01 00 00  je          00408361
  00408167: 89 F0              mov         eax,esi
  00408169: 0F BE E8           movsx       ebp,al
  0040816C: 8D 45 D0           lea         eax,[ebp-30h]
  0040816F: 83 F8 09           cmp         eax,9
  00408172: 0F 87 98 01 00 00  ja          00408310
  00408178: 8D 75 D0           lea         esi,[ebp-30h]
  0040817B: 39 74 24 58        cmp         dword ptr [esp+58h],esi
  0040817F: 0F 8E FB 01 00 00  jle         00408380
  00408185: 89 F0              mov         eax,esi
  00408187: C1 E8 1F           shr         eax,1Fh
  0040818A: 84 C0              test        al,al
  0040818C: 0F 85 EE 01 00 00  jne         00408380
  00408192: 8D 6B 01           lea         ebp,[ebx+1]
  00408195: 8B 44 24 58        mov         eax,dword ptr [esp+58h]
  00408199: 89 F7              mov         edi,esi
  0040819B: 0F BE 5D 00        movsx       ebx,byte ptr [ebp]
  0040819F: C1 FF 1F           sar         edi,1Fh
  004081A2: C7 44 24 28 00 00  mov         dword ptr [esp+28h],0
            00 00
  004081AA: 89 C2              mov         edx,eax
  004081AC: 8D 4B D0           lea         ecx,[ebx-30h]
  004081AF: C1 FA 1F           sar         edx,1Fh
  004081B2: 83 F9 09           cmp         ecx,9
  004081B5: 89 44 24 18        mov         dword ptr [esp+18h],eax
  004081B9: 89 54 24 1C        mov         dword ptr [esp+1Ch],edx
  004081BD: 0F 87 A8 00 00 00  ja          0040826B
  004081C3: 89 CB              mov         ebx,ecx
  004081C5: 39 5C 24 58        cmp         dword ptr [esp+58h],ebx
  004081C9: 0F 8E 05 01 00 00  jle         004082D4
  004081CF: 85 DB              test        ebx,ebx
  004081D1: 0F 88 FD 00 00 00  js          004082D4
  004081D7: 8B 44 24 18        mov         eax,dword ptr [esp+18h]
  004081DB: 8B 54 24 1C        mov         edx,dword ptr [esp+1Ch]
  004081DF: C7 04 24 FF FF FF  mov         dword ptr [esp],0FFFFFFFFh
            FF
  004081E6: C7 44 24 04 FF FF  mov         dword ptr [esp+4],0FFFFFFFFh
            FF FF
  004081EE: 89 44 24 08        mov         dword ptr [esp+8],eax
  004081F2: 89 54 24 0C        mov         dword ptr [esp+0Ch],edx
  004081F6: E8 45 5E 00 00     call        0040E040
  004081FB: 83 C0 01           add         eax,1
  004081FE: 83 D2 00           adc         edx,0
  00408201: 39 D7              cmp         edi,edx
  00408203: 77 4B              ja          00408250
  00408205: 72 04              jb          0040820B
  00408207: 39 C6              cmp         esi,eax
  00408209: 77 45              ja          00408250
  0040820B: 8B 54 24 18        mov         edx,dword ptr [esp+18h]
  0040820F: 89 D9              mov         ecx,ebx
  00408211: 8B 44 24 1C        mov         eax,dword ptr [esp+1Ch]
  00408215: C1 FB 1F           sar         ebx,1Fh
  00408218: 0F AF D7           imul        edx,edi
  0040821B: 0F AF C6           imul        eax,esi
  0040821E: 01 D0              add         eax,edx
  00408220: 89 44 24 24        mov         dword ptr [esp+24h],eax
  00408224: 8B 44 24 18        mov         eax,dword ptr [esp+18h]
  00408228: F7 E6              mul         eax,esi
  0040822A: 89 44 24 10        mov         dword ptr [esp+10h],eax
  0040822E: 8B 44 24 24        mov         eax,dword ptr [esp+24h]
  00408232: 01 C2              add         edx,eax
  00408234: 89 54 24 14        mov         dword ptr [esp+14h],edx
  00408238: 03 4C 24 10        add         ecx,dword ptr [esp+10h]
  0040823C: 13 5C 24 14        adc         ebx,dword ptr [esp+14h]
  00408240: 39 DF              cmp         edi,ebx
  00408242: 72 3C              jb          00408280
  00408244: 77 0A              ja          00408250
  00408246: 39 CE              cmp         esi,ecx
  00408248: 76 36              jbe         00408280
  0040824A: 8D B6 00 00 00 00  lea         esi,[esi]
  00408250: C7 44 24 28 01 00  mov         dword ptr [esp+28h],1
            00 00
  00408258: 83 C5 01           add         ebp,1
  0040825B: 0F BE 5D 00        movsx       ebx,byte ptr [ebp]
  0040825F: 8D 4B D0           lea         ecx,[ebx-30h]
  00408262: 83 F9 09           cmp         ecx,9
  00408265: 0F 86 58 FF FF FF  jbe         004081C3
  0040826B: 89 1C 24           mov         dword ptr [esp],ebx
  0040826E: E8 9D 5D 00 00     call        0040E010
  00408273: 85 C0              test        eax,eax
  00408275: 74 51              je          004082C8
  00408277: 83 EB 37           sub         ebx,37h
  0040827A: E9 46 FF FF FF     jmp         004081C5
  0040827F: 90                 nop
  00408280: 89 CE              mov         esi,ecx
  00408282: 89 DF              mov         edi,ebx
  00408284: EB D2              jmp         00408258
  00408286: 8B 7C 24 58        mov         edi,dword ptr [esp+58h]
  0040828A: 83 C3 01           add         ebx,1
  0040828D: 0F B6 70 01        movzx       esi,byte ptr [eax+1]
  00408291: 85 FF              test        edi,edi
  00408293: 0F 84 BC FE FF FF  je          00408155
  00408299: 83 7C 24 58 10     cmp         dword ptr [esp+58h],10h
  0040829E: 0F 85 C3 FE FF FF  jne         00408167
  004082A4: 89 F2              mov         edx,esi
  004082A6: 80 FA 30           cmp         dl,30h
  004082A9: 0F 85 B8 FE FF FF  jne         00408167
  004082AF: 0F B6 43 01        movzx       eax,byte ptr [ebx+1]
  004082B3: 83 E0 DF           and         eax,0FFFFFFDFh
  004082B6: 3C 58              cmp         al,58h
  004082B8: 0F 84 AE 00 00 00  je          0040836C
  004082BE: BD 30 00 00 00     mov         ebp,30h
  004082C3: E9 B0 FE FF FF     jmp         00408178
  004082C8: 89 1C 24           mov         dword ptr [esp],ebx
  004082CB: E8 48 5D 00 00     call        0040E018
  004082D0: 85 C0              test        eax,eax
  004082D2: 75 2E              jne         00408302
  004082D4: 8B 4C 24 54        mov         ecx,dword ptr [esp+54h]
  004082D8: 85 C9              test        ecx,ecx
  004082DA: 74 06              je          004082E2
  004082DC: 8B 54 24 54        mov         edx,dword ptr [esp+54h]
  004082E0: 89 2A              mov         dword ptr [edx],ebp
  004082E2: 8B 54 24 28        mov         edx,dword ptr [esp+28h]
  004082E6: 85 D2              test        edx,edx
  004082E8: 75 56              jne         00408340
  004082EA: 8B 44 24 2C        mov         eax,dword ptr [esp+2Ch]
  004082EE: 85 C0              test        eax,eax
  004082F0: 0F 84 0B FE FF FF  je          00408101
  004082F6: F7 DE              neg         esi
  004082F8: 83 D7 00           adc         edi,0
  004082FB: F7 DF              neg         edi
  004082FD: E9 FF FD FF FF     jmp         00408101
  00408302: 83 EB 57           sub         ebx,57h
  00408305: E9 BB FE FF FF     jmp         004081C5
  0040830A: 8D B6 00 00 00 00  lea         esi,[esi]
  00408310: 89 2C 24           mov         dword ptr [esp],ebp
  00408313: 8D 75 C9           lea         esi,[ebp-37h]
  00408316: E8 F5 5C 00 00     call        0040E010
  0040831B: 85 C0              test        eax,eax
  0040831D: 0F 85 58 FE FF FF  jne         0040817B
  00408323: 89 2C 24           mov         dword ptr [esp],ebp
  00408326: 31 F6              xor         esi,esi
  00408328: 31 FF              xor         edi,edi
  0040832A: E8 E9 5C 00 00     call        0040E018
  0040832F: 85 C0              test        eax,eax
  00408331: 0F 84 CA FD FF FF  je          00408101
  00408337: 8D 75 A9           lea         esi,[ebp-57h]
  0040833A: E9 3C FE FF FF     jmp         0040817B
  0040833F: 90                 nop
  00408340: E8 83 5C 00 00     call        0040DFC8
  00408345: BE FF FF FF FF     mov         esi,0FFFFFFFFh
  0040834A: BF FF FF FF FF     mov         edi,0FFFFFFFFh
  0040834F: 89 FA              mov         edx,edi
  00408351: C7 00 22 00 00 00  mov         dword ptr [eax],22h
  00408357: 83 C4 3C           add         esp,3Ch
  0040835A: 89 F0              mov         eax,esi
  0040835C: 5B                 pop         ebx
  0040835D: 5E                 pop         esi
  0040835E: 5F                 pop         edi
  0040835F: 5D                 pop         ebp
  00408360: C3                 ret
  00408361: 0F B6 43 01        movzx       eax,byte ptr [ebx+1]
  00408365: 83 E0 DF           and         eax,0FFFFFFDFh
  00408368: 3C 58              cmp         al,58h
  0040836A: 75 24              jne         00408390
  0040836C: 0F B6 73 02        movzx       esi,byte ptr [ebx+2]
  00408370: 83 C3 02           add         ebx,2
  00408373: C7 44 24 58 10 00  mov         dword ptr [esp+58h],10h
            00 00
  0040837B: E9 E7 FD FF FF     jmp         00408167
  00408380: 83 C4 3C           add         esp,3Ch
  00408383: 31 F6              xor         esi,esi
  00408385: 31 FF              xor         edi,edi
  00408387: 89 F0              mov         eax,esi
  00408389: 5B                 pop         ebx
  0040838A: 89 FA              mov         edx,edi
  0040838C: 5E                 pop         esi
  0040838D: 5F                 pop         edi
  0040838E: 5D                 pop         ebp
  0040838F: C3                 ret
  00408390: C7 44 24 58 08 00  mov         dword ptr [esp+58h],8
            00 00
  00408398: E9 CA FD FF FF     jmp         00408167
  0040839D: 90                 nop
  0040839E: 90                 nop
  0040839F: 90                 nop
  004083A0: 55                 push        ebp
  004083A1: 57                 push        edi
  004083A2: 56                 push        esi
  004083A3: 53                 push        ebx
  004083A4: 31 DB              xor         ebx,ebx
  004083A6: 81 EC 9C 00 00 00  sub         esp,9Ch
  004083AC: 8B 94 24 BC 00 00  mov         edx,dword ptr [esp+0BCh]
            00
  004083B3: 8B 32              mov         esi,dword ptr [edx]
  004083B5: 89 F0              mov         eax,esi
  004083B7: 83 E0 CF           and         eax,0FFFFFFCFh
  004083BA: 89 02              mov         dword ptr [edx],eax
  004083BC: 89 F0              mov         eax,esi
  004083BE: 83 E0 07           and         eax,7
  004083C1: 83 F8 04           cmp         eax,4
  004083C4: 0F 87 96 00 00 00  ja          00408460
  004083CA: FF 24 85 70 06 41  jmp         dword ptr [eax*4+410670h]
            00
  004083D1: 0F B6 41 FF        movzx       eax,byte ptr [ecx-1]
  004083D5: 89 CE              mov         esi,ecx
  004083D7: EB 1A              jmp         004083F3
  004083D9: DD D8              fstp        st(0)
  004083DB: DD D8              fstp        st(0)
  004083DD: DD D8              fstp        st(0)
  004083DF: EB 12              jmp         004083F3
  004083E1: DD D8              fstp        st(0)
  004083E3: DD D8              fstp        st(0)
  004083E5: DD D8              fstp        st(0)
  004083E7: DD D8              fstp        st(0)
  004083E9: EB 08              jmp         004083F3
  004083EB: DD D8              fstp        st(0)
  004083ED: DD D8              fstp        st(0)
  004083EF: DD D8              fstp        st(0)
  004083F1: DD D8              fstp        st(0)
  004083F3: 3C 39              cmp         al,39h
  004083F5: 8D 4E FF           lea         ecx,[esi-1]
  004083F8: 0F 85 E3 13 00 00  jne         004097E1
  004083FE: 39 D9              cmp         ecx,ebx
  00408400: 75 CF              jne         004083D1
  00408402: 83 44 24 74 01     add         dword ptr [esp+74h],1
  00408407: B8 31 00 00 00     mov         eax,31h
  0040840C: C6 03 30           mov         byte ptr [ebx],30h
  0040840F: 88 01              mov         byte ptr [ecx],al
  00408411: 8B 4C 24 74        mov         ecx,dword ptr [esp+74h]
  00408415: C7 44 24 24 20 00  mov         dword ptr [esp+24h],20h
            00 00
  0040841D: 83 C1 01           add         ecx,1
  00408420: 89 4C 24 28        mov         dword ptr [esp+28h],ecx
  00408424: 89 2C 24           mov         dword ptr [esp],ebp
  00408427: E8 54 3E 00 00     call        0040C280
  0040842C: 8B 84 24 CC 00 00  mov         eax,dword ptr [esp+0CCh]
            00
  00408433: 8B 4C 24 28        mov         ecx,dword ptr [esp+28h]
  00408437: 8B 94 24 C8 00 00  mov         edx,dword ptr [esp+0C8h]
            00
  0040843E: C6 06 00           mov         byte ptr [esi],0
  00408441: 85 C0              test        eax,eax
  00408443: 89 0A              mov         dword ptr [edx],ecx
  00408445: 74 09              je          00408450
  00408447: 8B 84 24 CC 00 00  mov         eax,dword ptr [esp+0CCh]
            00
  0040844E: 89 30              mov         dword ptr [eax],esi
  00408450: 8B 94 24 BC 00 00  mov         edx,dword ptr [esp+0BCh]
            00
  00408457: 8B 4C 24 24        mov         ecx,dword ptr [esp+24h]
  0040845B: 09 0A              or          dword ptr [edx],ecx
  0040845D: 8D 76 00           lea         esi,[esi]
  00408460: 81 C4 9C 00 00 00  add         esp,9Ch
  00408466: 89 D8              mov         eax,ebx
  00408468: 5B                 pop         ebx
  00408469: 5E                 pop         esi
  0040846A: 5F                 pop         edi
  0040846B: 5D                 pop         ebp
  0040846C: C3                 ret
  0040846D: 8D 76 00           lea         esi,[esi]
  00408470: 8B 84 24 B0 00 00  mov         eax,dword ptr [esp+0B0h]
            00
  00408477: 31 D2              xor         edx,edx
  00408479: 8B 38              mov         edi,dword ptr [eax]
  0040847B: 83 FF 20           cmp         edi,20h
  0040847E: 7E 0E              jle         0040848E
  00408480: B8 20 00 00 00     mov         eax,20h
  00408485: 01 C0              add         eax,eax
  00408487: 83 C2 01           add         edx,1
  0040848A: 39 C7              cmp         edi,eax
  0040848C: 7F F7              jg          00408485
  0040848E: 89 14 24           mov         dword ptr [esp],edx
  00408491: E8 2A 3D 00 00     call        0040C1C0
  00408496: 8B 94 24 B8 00 00  mov         edx,dword ptr [esp+0B8h]
            00
  0040849D: 89 C5              mov         ebp,eax
  0040849F: 8D 47 FF           lea         eax,[edi-1]
  004084A2: C1 F8 05           sar         eax,5
  004084A5: 8D 1C 82           lea         ebx,[edx+eax*4]
  004084A8: 8B 84 24 B8 00 00  mov         eax,dword ptr [esp+0B8h]
            00
  004084AF: 8D 55 14           lea         edx,[ebp+14h]
  004084B2: 89 D1              mov         ecx,edx
  004084B4: 89 54 24 20        mov         dword ptr [esp+20h],edx
  004084B8: 8B 10              mov         edx,dword ptr [eax]
  004084BA: 83 C0 04           add         eax,4
  004084BD: 89 11              mov         dword ptr [ecx],edx
  004084BF: 83 C1 04           add         ecx,4
  004084C2: 39 C3              cmp         ebx,eax
  004084C4: 73 F2              jae         004084B8
  004084C6: 8B 54 24 20        mov         edx,dword ptr [esp+20h]
  004084CA: 29 D1              sub         ecx,edx
  004084CC: C1 F9 02           sar         ecx,2
  004084CF: 90                 nop
  004084D0: 8D 41 FF           lea         eax,[ecx-1]
  004084D3: 8B 5C 85 14        mov         ebx,dword ptr [ebp+eax*4+14h]
  004084D7: 85 DB              test        ebx,ebx
  004084D9: 0F 85 D1 04 00 00  jne         ___wcrtomb_cp
  004084DF: 85 C0              test        eax,eax
  004084E1: 89 C1              mov         ecx,eax
  004084E3: 75 EB              jne         004084D0
  004084E5: C7 45 10 00 00 00  mov         dword ptr [ebp+10h],0
            00
  004084EC: C7 44 24 40 00 00  mov         dword ptr [esp+40h],0
            00 00
  004084F4: 89 2C 24           mov         dword ptr [esp],ebp
  004084F7: E8 D4 47 00 00     call        0040CCD0
  004084FC: 8B 8C 24 B4 00 00  mov         ecx,dword ptr [esp+0B4h]
            00
  00408503: 89 4C 24 4C        mov         dword ptr [esp+4Ch],ecx
  00408507: 85 C0              test        eax,eax
  00408509: 89 84 24 8C 00 00  mov         dword ptr [esp+8Ch],eax
            00
  00408510: 0F 85 71 04 00 00  jne         00408987
  00408516: 8B 4D 10           mov         ecx,dword ptr [ebp+10h]
  00408519: 85 C9              test        ecx,ecx
  0040851B: 0F 85 BF 00 00 00  jne         004085E0
  00408521: 89 2C 24           mov         dword ptr [esp],ebp
  00408524: E8 57 3D 00 00     call        0040C280
  00408529: 8B 8C 24 C8 00 00  mov         ecx,dword ptr [esp+0C8h]
            00
  00408530: 8B 84 24 CC 00 00  mov         eax,dword ptr [esp+0CCh]
            00
  00408537: C7 01 01 00 00 00  mov         dword ptr [ecx],1
  0040853D: C7 44 24 08 01 00  mov         dword ptr [esp+8],1
            00 00
  00408545: 89 44 24 04        mov         dword ptr [esp+4],eax
  00408549: C7 04 24 6D 06 41  mov         dword ptr [esp],41066Dh
            00
  00408550: E8 9B 16 00 00     call        00409BF0
  00408555: 81 C4 9C 00 00 00  add         esp,9Ch
  0040855B: 89 C3              mov         ebx,eax
  0040855D: 89 D8              mov         eax,ebx
  0040855F: 5B                 pop         ebx
  00408560: 5E                 pop         esi
  00408561: 5F                 pop         edi
  00408562: 5D                 pop         ebp
  00408563: C3                 ret
  00408564: 8B 94 24 C8 00 00  mov         edx,dword ptr [esp+0C8h]
            00
  0040856B: 8B 8C 24 CC 00 00  mov         ecx,dword ptr [esp+0CCh]
            00
  00408572: C7 02 00 80 FF FF  mov         dword ptr [edx],0FFFF8000h
  00408578: C7 44 24 08 03 00  mov         dword ptr [esp+8],3
            00 00
  00408580: 89 4C 24 04        mov         dword ptr [esp+4],ecx
  00408584: C7 04 24 69 06 41  mov         dword ptr [esp],410669h
            00
  0040858B: E8 60 16 00 00     call        00409BF0
  00408590: 81 C4 9C 00 00 00  add         esp,9Ch
  00408596: 89 C3              mov         ebx,eax
  00408598: 89 D8              mov         eax,ebx
  0040859A: 5B                 pop         ebx
  0040859B: 5E                 pop         esi
  0040859C: 5F                 pop         edi
  0040859D: 5D                 pop         ebp
  0040859E: C3                 ret
  0040859F: 90                 nop
  004085A0: 8B 8C 24 C8 00 00  mov         ecx,dword ptr [esp+0C8h]
            00
  004085A7: 8B 84 24 CC 00 00  mov         eax,dword ptr [esp+0CCh]
            00
  004085AE: C7 01 00 80 FF FF  mov         dword ptr [ecx],0FFFF8000h
  004085B4: C7 44 24 08 08 00  mov         dword ptr [esp+8],8
            00 00
  004085BC: 89 44 24 04        mov         dword ptr [esp+4],eax
  004085C0: C7 04 24 60 06 41  mov         dword ptr [esp],410660h
            00
  004085C7: E8 24 16 00 00     call        00409BF0
  004085CC: 81 C4 9C 00 00 00  add         esp,9Ch
  004085D2: 89 C3              mov         ebx,eax
  004085D4: 89 D8              mov         eax,ebx
  004085D6: 5B                 pop         ebx
  004085D7: 5E                 pop         esi
  004085D8: 5F                 pop         edi
  004085D9: 5D                 pop         ebp
  004085DA: C3                 ret
  004085DB: 90                 nop
  004085DC: 8D 74 26 00        lea         esi,[esi]
  004085E0: 8D 84 24 8C 00 00  lea         eax,[esp+8Ch]
            00
  004085E7: 89 44 24 04        mov         dword ptr [esp+4],eax
  004085EB: 89 2C 24           mov         dword ptr [esp],ebp
  004085EE: E8 8D 43 00 00     call        0040C980
  004085F3: 8B 4C 24 4C        mov         ecx,dword ptr [esp+4Ch]
  004085F7: 8B 54 24 40        mov         edx,dword ptr [esp+40h]
  004085FB: 8D 44 11 FF        lea         eax,[ecx+edx-1]
  004085FF: DD 5C 24 38        fstp        qword ptr [esp+38h]
  00408603: 8B 4C 24 3C        mov         ecx,dword ptr [esp+3Ch]
  00408607: 89 C2              mov         edx,eax
  00408609: 89 44 24 78        mov         dword ptr [esp+78h],eax
  0040860D: C1 FA 1F           sar         edx,1Fh
  00408610: 89 D3              mov         ebx,edx
  00408612: 31 C3              xor         ebx,eax
  00408614: 81 E1 FF FF 0F 00  and         ecx,0FFFFFh
  0040861A: 29 D3              sub         ebx,edx
  0040861C: 81 C9 00 00 F0 3F  or          ecx,3FF00000h
  00408622: 81 EB 35 04 00 00  sub         ebx,435h
  00408628: 89 4C 24 3C        mov         dword ptr [esp+3Ch],ecx
  0040862C: 85 DB              test        ebx,ebx
  0040862E: DD 44 24 38        fld         qword ptr [esp+38h]
  00408632: D8 25 84 06 41 00  fsub        dword ptr ds:[410684h]
  00408638: DC 0D 88 06 41 00  fmul        qword ptr ds:[410688h]
  0040863E: DC 05 90 06 41 00  fadd        qword ptr ds:[410690h]
  00408644: DB 44 24 78        fild        dword ptr [esp+78h]
  00408648: DC 0D 98 06 41 00  fmul        qword ptr ds:[410698h]
  0040864E: DE C1              faddp       st(1),st
  00408650: 7E 10              jle         00408662
  00408652: 89 5C 24 78        mov         dword ptr [esp+78h],ebx
  00408656: DB 44 24 78        fild        dword ptr [esp+78h]
  0040865A: DC 0D A0 06 41 00  fmul        qword ptr ds:[4106A0h]
  00408660: DE C1              faddp       st(1),st
  00408662: D9 7C 24 7E        fnstcw      word ptr [esp+7Eh]
  00408666: 0F B7 5C 24 7E     movzx       ebx,word ptr [esp+7Eh]
  0040866B: B7 0C              mov         bh,0Ch
  0040866D: 66 89 5C 24 7C     mov         word ptr [esp+7Ch],bx
  00408672: D9 6C 24 7C        fldcw       word ptr [esp+7Ch]
  00408676: DB 54 24 20        fist        dword ptr [esp+20h]
  0040867A: D9 6C 24 7E        fldcw       word ptr [esp+7Eh]
  0040867E: D9 EE              fldz
  00408680: DF E9              fucomip     st,st(1)
  00408682: 0F 87 5B 07 00 00  ja          00408DE3
  00408688: DD D8              fstp        st(0)
  0040868A: 89 C3              mov         ebx,eax
  0040868C: C1 E3 14           shl         ebx,14h
  0040868F: 01 CB              add         ebx,ecx
  00408691: 83 7C 24 20 16     cmp         dword ptr [esp+20h],16h
  00408696: 89 5C 24 3C        mov         dword ptr [esp+3Ch],ebx
  0040869A: C7 44 24 60 01 00  mov         dword ptr [esp+60h],1
            00 00
  004086A2: 77 28              ja          004086CC
  004086A4: 8B 54 24 20        mov         edx,dword ptr [esp+20h]
  004086A8: DD 04 D5 80 08 41  fld         qword ptr [edx*8+410880h]
            00
  004086AF: DD 44 24 38        fld         qword ptr [esp+38h]
  004086B3: D9 C9              fxch        st(1)
  004086B5: DF E9              fucomip     st,st(1)
  004086B7: DD D8              fstp        st(0)
  004086B9: 0F 86 91 03 00 00  jbe         _wcrtomb
  004086BF: 83 6C 24 20 01     sub         dword ptr [esp+20h],1
  004086C4: C7 44 24 60 00 00  mov         dword ptr [esp+60h],0
            00 00
  004086CC: 8B 4C 24 40        mov         ecx,dword ptr [esp+40h]
  004086D0: C7 44 24 54 00 00  mov         dword ptr [esp+54h],0
            00 00
  004086D8: 29 C1              sub         ecx,eax
  004086DA: 83 E9 01           sub         ecx,1
  004086DD: 89 4C 24 48        mov         dword ptr [esp+48h],ecx
  004086E1: 0F 88 E9 06 00 00  js          00408DD0
  004086E7: 8B 54 24 20        mov         edx,dword ptr [esp+20h]
  004086EB: 85 D2              test        edx,edx
  004086ED: 0F 88 0D 07 00 00  js          00408E00
  004086F3: 8B 4C 24 20        mov         ecx,dword ptr [esp+20h]
  004086F7: 01 4C 24 48        add         dword ptr [esp+48h],ecx
  004086FB: C7 44 24 58 00 00  mov         dword ptr [esp+58h],0
            00 00
  00408703: 89 4C 24 5C        mov         dword ptr [esp+5Ch],ecx
  00408707: 83 BC 24 C0 00 00  cmp         dword ptr [esp+0C0h],9
            00 09
  0040870F: 0F 87 BB 02 00 00  ja          004089D0
  00408715: 83 BC 24 C0 00 00  cmp         dword ptr [esp+0C0h],5
            00 05
  0040871D: 0F 8E B8 02 00 00  jle         004089DB
  00408723: 83 AC 24 C0 00 00  sub         dword ptr [esp+0C0h],4
            00 04
  0040872B: 31 C0              xor         eax,eax
  0040872D: 83 BC 24 C0 00 00  cmp         dword ptr [esp+0C0h],3
            00 03
  00408735: 0F 84 6C 09 00 00  je          004090A7
  0040873B: 0F 8F AF 02 00 00  jg          004089F0
  00408741: 83 BC 24 C0 00 00  cmp         dword ptr [esp+0C0h],2
            00 02
  00408749: 0F 84 0D 09 00 00  je          0040905C
  0040874F: 89 7C 24 78        mov         dword ptr [esp+78h],edi
  00408753: 31 D2              xor         edx,edx
  00408755: DB 44 24 78        fild        dword ptr [esp+78h]
  00408759: DC 0D A8 06 41 00  fmul        qword ptr ds:[4106A8h]
  0040875F: C7 44 24 64 01 00  mov         dword ptr [esp+64h],1
            00 00
  00408767: C7 44 24 70 FF FF  mov         dword ptr [esp+70h],0FFFFFFFFh
            FF FF
  0040876F: C7 44 24 50 FF FF  mov         dword ptr [esp+50h],0FFFFFFFFh
            FF FF
  00408777: C7 84 24 C4 00 00  mov         dword ptr [esp+0C4h],0
            00 00 00 00 00
  00408782: D9 6C 24 7C        fldcw       word ptr [esp+7Ch]
  00408786: DB 5C 24 78        fistp       dword ptr [esp+78h]
  0040878A: D9 6C 24 7E        fldcw       word ptr [esp+7Eh]
  0040878E: 8B 44 24 78        mov         eax,dword ptr [esp+78h]
  00408792: 83 C0 03           add         eax,3
  00408795: 89 84 24 8C 00 00  mov         dword ptr [esp+8Ch],eax
            00
  0040879C: 8D 74 26 00        lea         esi,[esi]
  004087A0: 89 04 24           mov         dword ptr [esp],eax
  004087A3: 88 54 24 18        mov         byte ptr [esp+18h],dl
  004087A7: E8 04 14 00 00     call        00409BB0
  004087AC: 8B 8C 24 B0 00 00  mov         ecx,dword ptr [esp+0B0h]
            00
  004087B3: 0F B6 54 24 18     movzx       edx,byte ptr [esp+18h]
  004087B8: 8B 49 0C           mov         ecx,dword ptr [ecx+0Ch]
  004087BB: 89 C3              mov         ebx,eax
  004087BD: 83 E9 01           sub         ecx,1
  004087C0: 83 F9 00           cmp         ecx,0
  004087C3: 89 4C 24 44        mov         dword ptr [esp+44h],ecx
  004087C7: 74 1E              je          004087E7
  004087C9: B8 02 00 00 00     mov         eax,2
  004087CE: 0F 4D C1           cmovge      eax,ecx
  004087D1: 83 E6 08           and         esi,8
  004087D4: 89 44 24 44        mov         dword ptr [esp+44h],eax
  004087D8: 74 0D              je          004087E7
  004087DA: B8 03 00 00 00     mov         eax,3
  004087DF: 2B 44 24 44        sub         eax,dword ptr [esp+44h]
  004087E3: 89 44 24 44        mov         dword ptr [esp+44h],eax
  004087E7: 84 D2              test        dl,dl
  004087E9: 0F 84 C1 02 00 00  je          _wcsrtombs
  004087EF: 8B 54 24 44        mov         edx,dword ptr [esp+44h]
  004087F3: 0B 54 24 20        or          edx,dword ptr [esp+20h]
  004087F7: 0F 85 B3 02 00 00  jne         _wcsrtombs
  004087FD: 8B 4C 24 60        mov         ecx,dword ptr [esp+60h]
  00408801: C7 84 24 8C 00 00  mov         dword ptr [esp+8Ch],0
            00 00 00 00 00
  0040880C: DD 44 24 38        fld         qword ptr [esp+38h]
  00408810: 85 C9              test        ecx,ecx
  00408812: 74 0A              je          0040881E
  00408814: D9 E8              fld1
  00408816: DF E9              fucomip     st,st(1)
  00408818: 0F 87 EA 0E 00 00  ja          00409708
  0040881E: D9 C0              fld         st(0)
  00408820: 8B 44 24 50        mov         eax,dword ptr [esp+50h]
  00408824: D8 C1              fadd        st,st(1)
  00408826: D8 05 BC 06 41 00  fadd        dword ptr ds:[4106BCh]
  0040882C: DD 5C 24 68        fstp        qword ptr [esp+68h]
  00408830: 81 6C 24 6C 00 00  sub         dword ptr [esp+6Ch],3400000h
            40 03
  00408838: 85 C0              test        eax,eax
  0040883A: 0F 84 33 02 00 00  je          00408A73
  00408840: 8B 54 24 50        mov         edx,dword ptr [esp+50h]
  00408844: D9 C0              fld         st(0)
  00408846: C7 44 24 74 00 00  mov         dword ptr [esp+74h],0
            00 00
  0040884E: 8B 44 24 64        mov         eax,dword ptr [esp+64h]
  00408852: 85 C0              test        eax,eax
  00408854: 0F 84 50 0B 00 00  je          004093AA
  0040885A: DD 44 24 68        fld         qword ptr [esp+68h]
  0040885E: 8D 73 01           lea         esi,[ebx+1]
  00408861: D9 05 C4 06 41 00  fld         dword ptr ds:[4106C4h]
  00408867: DC 34 D5 78 08 41  fdiv        qword ptr [edx*8+410878h]
            00
  0040886E: D9 7C 24 7E        fnstcw      word ptr [esp+7Eh]
  00408872: C7 84 24 8C 00 00  mov         dword ptr [esp+8Ch],0
            00 00 00 00 00
  0040887D: 0F B7 44 24 7E     movzx       eax,word ptr [esp+7Eh]
  00408882: B4 0C              mov         ah,0Ch
  00408884: 66 89 44 24 7C     mov         word ptr [esp+7Ch],ax
  00408889: DE E1              fsubrp      st(1),st
  0040888B: D9 C9              fxch        st(1)
  0040888D: D9 6C 24 7C        fldcw       word ptr [esp+7Ch]
  00408891: DB 54 24 78        fist        dword ptr [esp+78h]
  00408895: D9 6C 24 7E        fldcw       word ptr [esp+7Eh]
  00408899: 8B 44 24 78        mov         eax,dword ptr [esp+78h]
  0040889D: 89 44 24 78        mov         dword ptr [esp+78h],eax
  004088A1: 83 C0 30           add         eax,30h
  004088A4: DB 44 24 78        fild        dword ptr [esp+78h]
  004088A8: DE E9              fsubp       st(1),st
  004088AA: D9 C9              fxch        st(1)
  004088AC: 88 03              mov         byte ptr [ebx],al
  004088AE: DB E9              fucomi      st,st(1)
  004088B0: 0F 87 A1 00 00 00  ja          00408957
  004088B6: D9 C1              fld         st(1)
  004088B8: D8 2D B0 06 41 00  fsubr       dword ptr ds:[4106B0h]
  004088BE: D9 C9              fxch        st(1)
  004088C0: DB E9              fucomi      st,st(1)
  004088C2: DD D9              fstp        st(1)
  004088C4: 0F 87 0F FB FF FF  ja          004083D9
  004088CA: 8B 84 24 8C 00 00  mov         eax,dword ptr [esp+8Ch]
            00
  004088D1: 83 C0 01           add         eax,1
  004088D4: 39 D0              cmp         eax,edx
  004088D6: 89 84 24 8C 00 00  mov         dword ptr [esp+8Ch],eax
            00
  004088DD: 0F 8D B6 01 00 00  jge         00408A99
  004088E3: D9 05 B4 06 41 00  fld         dword ptr ds:[4106B4h]
  004088E9: EB 36              jmp         00408921
  004088EB: 90                 nop
  004088EC: 8D 74 26 00        lea         esi,[esi]
  004088F0: D9 C1              fld         st(1)
  004088F2: D8 2D B0 06 41 00  fsubr       dword ptr ds:[4106B0h]
  004088F8: D9 C9              fxch        st(1)
  004088FA: DB E9              fucomi      st,st(1)
  004088FC: DD D9              fstp        st(1)
  004088FE: 0F 87 DD FA FF FF  ja          004083E1
  00408904: 8B 84 24 8C 00 00  mov         eax,dword ptr [esp+8Ch]
            00
  0040890B: 83 C0 01           add         eax,1
  0040890E: 39 C2              cmp         edx,eax
  00408910: 89 84 24 8C 00 00  mov         dword ptr [esp+8Ch],eax
            00
  00408917: 0F 8E 82 01 00 00  jle         00408A9F
  0040891D: D9 C9              fxch        st(1)
  0040891F: D9 CA              fxch        st(2)
  00408921: DC C9              fmul        st(1),st
  00408923: DC CA              fmul        st(2),st
  00408925: D9 CA              fxch        st(2)
  00408927: D9 6C 24 7C        fldcw       word ptr [esp+7Ch]
  0040892B: DB 54 24 78        fist        dword ptr [esp+78h]
  0040892F: D9 6C 24 7E        fldcw       word ptr [esp+7Eh]
  00408933: 8B 44 24 78        mov         eax,dword ptr [esp+78h]
  00408937: 89 44 24 78        mov         dword ptr [esp+78h],eax
  0040893B: 83 C0 30           add         eax,30h
  0040893E: DB 44 24 78        fild        dword ptr [esp+78h]
  00408942: DE E9              fsubp       st(1),st
  00408944: D9 C9              fxch        st(1)
  00408946: 88 06              mov         byte ptr [esi],al
  00408948: 83 C6 01           add         esi,1
  0040894B: DB E9              fucomi      st,st(1)
  0040894D: 76 A1              jbe         004088F0
  0040894F: DD D8              fstp        st(0)
  00408951: DD D9              fstp        st(1)
  00408953: DD D9              fstp        st(1)
  00408955: EB 04              jmp         0040895B
  00408957: DD D8              fstp        st(0)
  00408959: DD D9              fstp        st(1)
  0040895B: D9 EE              fldz
  0040895D: D9 C9              fxch        st(1)
  0040895F: DF E9              fucomip     st,st(1)
  00408961: DD D8              fstp        st(0)
  00408963: 0F 8A C5 0E 00 00  jp          0040982E
  00408969: 0F 85 BF 0E 00 00  jne         0040982E
  0040896F: 8B 4C 24 74        mov         ecx,dword ptr [esp+74h]
  00408973: C7 44 24 24 00 00  mov         dword ptr [esp+24h],0
            00 00
  0040897B: 83 C1 01           add         ecx,1
  0040897E: 89 4C 24 28        mov         dword ptr [esp+28h],ecx
  00408982: E9 9D FA FF FF     jmp         00408424
  00408987: 89 44 24 04        mov         dword ptr [esp+4],eax
  0040898B: 89 2C 24           mov         dword ptr [esp],ebp
  0040898E: E8 2D 42 00 00     call        0040CBC0
  00408993: 8B 84 24 8C 00 00  mov         eax,dword ptr [esp+8Ch]
            00
  0040899A: 8B 94 24 B4 00 00  mov         edx,dword ptr [esp+0B4h]
            00
  004089A1: 29 44 24 40        sub         dword ptr [esp+40h],eax
  004089A5: 01 C2              add         edx,eax
  004089A7: 89 54 24 4C        mov         dword ptr [esp+4Ch],edx
  004089AB: E9 66 FB FF FF     jmp         00408516
___wcrtomb_cp:
  004089B0: 0F BD 44 8D 10     bsr         eax,dword ptr [ebp+ecx*4+10h]
  004089B5: 89 4D 10           mov         dword ptr [ebp+10h],ecx
  004089B8: C1 E1 05           shl         ecx,5
  004089BB: 83 F0 1F           xor         eax,1Fh
  004089BE: 29 C1              sub         ecx,eax
  004089C0: 89 4C 24 40        mov         dword ptr [esp+40h],ecx
  004089C4: E9 2B FB FF FF     jmp         004084F4
  004089C9: 8D B4 26 00 00 00  lea         esi,[esi]
            00
  004089D0: C7 84 24 C0 00 00  mov         dword ptr [esp+0C0h],0
            00 00 00 00 00
  004089DB: 05 FE 03 00 00     add         eax,3FEh
  004089E0: 3D F7 07 00 00     cmp         eax,7F7h
  004089E5: 0F 96 C0           setbe       al
  004089E8: E9 40 FD FF FF     jmp         0040872D
  004089ED: 8D 76 00           lea         esi,[esi]
  004089F0: 83 BC 24 C0 00 00  cmp         dword ptr [esp+0C0h],4
            00 04
  004089F8: 0F 84 9F 06 00 00  je          0040909D
  004089FE: 83 BC 24 C0 00 00  cmp         dword ptr [esp+0C0h],5
            00 05
  00408A06: 0F 85 43 FD FF FF  jne         0040874F
  00408A0C: C7 44 24 64 01 00  mov         dword ptr [esp+64h],1
            00 00
  00408A14: 8B 94 24 C4 00 00  mov         edx,dword ptr [esp+0C4h]
            00
  00408A1B: 03 54 24 20        add         edx,dword ptr [esp+20h]
  00408A1F: 89 54 24 70        mov         dword ptr [esp+70h],edx
  00408A23: 83 C2 01           add         edx,1
  00408A26: 85 D2              test        edx,edx
  00408A28: 89 54 24 50        mov         dword ptr [esp+50h],edx
  00408A2C: 0F 8E CE 08 00 00  jle         00409300
  00408A32: 83 FA 0E           cmp         edx,0Eh
  00408A35: 89 94 24 8C 00 00  mov         dword ptr [esp+8Ch],edx
            00
  00408A3C: 0F 96 C2           setbe       dl
  00408A3F: 21 C2              and         edx,eax
  00408A41: 8B 44 24 50        mov         eax,dword ptr [esp+50h]
  00408A45: E9 56 FD FF FF     jmp         004087A0
  00408A4A: 8D B6 00 00 00 00  lea         esi,[esi]
_wcrtomb:
  00408A50: C7 44 24 60 00 00  mov         dword ptr [esp+60h],0
            00 00
  00408A58: E9 6F FC FF FF     jmp         004086CC
  00408A5D: D9 C0              fld         st(0)
  00408A5F: D8 C1              fadd        st,st(1)
  00408A61: D8 05 BC 06 41 00  fadd        dword ptr ds:[4106BCh]
  00408A67: DD 5C 24 68        fstp        qword ptr [esp+68h]
  00408A6B: 81 6C 24 6C 00 00  sub         dword ptr [esp+6Ch],3400000h
            40 03
  00408A73: D9 C0              fld         st(0)
  00408A75: D8 25 C0 06 41 00  fsub        dword ptr ds:[4106C0h]
  00408A7B: DD 44 24 68        fld         qword ptr [esp+68h]
  00408A7F: D9 C9              fxch        st(1)
  00408A81: DB E9              fucomi      st,st(1)
  00408A83: 0F 87 04 09 00 00  ja          0040938D
  00408A89: D9 C9              fxch        st(1)
  00408A8B: D9 E0              fchs
  00408A8D: DF E9              fucomip     st,st(1)
  00408A8F: DD D8              fstp        st(0)
  00408A91: 0F 87 0B 03 00 00  ja          00408DA2
  00408A97: EB 10              jmp         00408AA9
  00408A99: DD D8              fstp        st(0)
  00408A9B: DD D8              fstp        st(0)
  00408A9D: EB 0A              jmp         00408AA9
  00408A9F: DD D8              fstp        st(0)
  00408AA1: DD D8              fstp        st(0)
  00408AA3: DD D8              fstp        st(0)
  00408AA5: EB 02              jmp         00408AA9
  00408AA7: DD D8              fstp        st(0)
  00408AA9: DD 5C 24 38        fstp        qword ptr [esp+38h]
  00408AAD: 8D 76 00           lea         esi,[esi]
_wcsrtombs:
  00408AB0: 8B 44 24 4C        mov         eax,dword ptr [esp+4Ch]
  00408AB4: 85 C0              test        eax,eax
  00408AB6: 0F 88 B4 00 00 00  js          00408B70
  00408ABC: 8B 94 24 B0 00 00  mov         edx,dword ptr [esp+0B0h]
            00
  00408AC3: 8B 4C 24 20        mov         ecx,dword ptr [esp+20h]
  00408AC7: 3B 4A 14           cmp         ecx,dword ptr [edx+14h]
  00408ACA: 0F 8F A0 00 00 00  jg          00408B70
  00408AD0: 8B 44 24 50        mov         eax,dword ptr [esp+50h]
  00408AD4: DD 04 CD 80 08 41  fld         qword ptr [ecx*8+410880h]
            00
  00408ADB: 85 C0              test        eax,eax
  00408ADD: 0F 8F E5 06 00 00  jg          004091C8
  00408AE3: 8B 84 24 C4 00 00  mov         eax,dword ptr [esp+0C4h]
            00
  00408AEA: C1 E8 1F           shr         eax,1Fh
  00408AED: 84 C0              test        al,al
  00408AEF: 0F 84 D3 06 00 00  je          004091C8
  00408AF5: 8B 44 24 50        mov         eax,dword ptr [esp+50h]
  00408AF9: 85 C0              test        eax,eax
  00408AFB: 0F 85 A5 02 00 00  jne         00408DA6
  00408B01: D8 0D C0 06 41 00  fmul        dword ptr ds:[4106C0h]
  00408B07: DD 44 24 38        fld         qword ptr [esp+38h]
  00408B0B: D9 C9              fxch        st(1)
  00408B0D: DF E9              fucomip     st,st(1)
  00408B0F: DD D8              fstp        st(0)
  00408B11: 0F 83 91 02 00 00  jae         00408DA8
  00408B17: 83 C1 02           add         ecx,2
  00408B1A: 31 FF              xor         edi,edi
  00408B1C: 89 4C 24 28        mov         dword ptr [esp+28h],ecx
  00408B20: C7 44 24 38 00 00  mov         dword ptr [esp+38h],0
            00 00
  00408B28: C6 03 31           mov         byte ptr [ebx],31h
  00408B2B: 8D 73 01           lea         esi,[ebx+1]
  00408B2E: 31 D2              xor         edx,edx
  00408B30: C7 44 24 24 20 00  mov         dword ptr [esp+24h],20h
            00 00
  00408B38: 89 3C 24           mov         dword ptr [esp],edi
  00408B3B: 89 54 24 18        mov         dword ptr [esp+18h],edx
  00408B3F: E8 3C 37 00 00     call        0040C280
  00408B44: 8B 54 24 38        mov         edx,dword ptr [esp+38h]
  00408B48: 85 D2              test        edx,edx
  00408B4A: 8B 54 24 18        mov         edx,dword ptr [esp+18h]
  00408B4E: 0F 84 D0 F8 FF FF  je          00408424
  00408B54: 3B 54 24 38        cmp         edx,dword ptr [esp+38h]
  00408B58: 0F 85 E9 04 00 00  jne         00409047
  00408B5E: 8B 44 24 38        mov         eax,dword ptr [esp+38h]
  00408B62: 89 04 24           mov         dword ptr [esp],eax
  00408B65: E8 16 37 00 00     call        0040C280
  00408B6A: E9 B5 F8 FF FF     jmp         00408424
  00408B6F: 90                 nop
  00408B70: 8B 4C 24 64        mov         ecx,dword ptr [esp+64h]
  00408B74: 85 C9              test        ecx,ecx
  00408B76: 0F 84 A4 02 00 00  je          00408E20
  00408B7C: 8B 84 24 B0 00 00  mov         eax,dword ptr [esp+0B0h]
            00
  00408B83: 8B 74 24 4C        mov         esi,dword ptr [esp+4Ch]
  00408B87: 2B 7C 24 40        sub         edi,dword ptr [esp+40h]
  00408B8B: 8B 48 04           mov         ecx,dword ptr [eax+4]
  00408B8E: 29 FE              sub         esi,edi
  00408B90: 8D 47 01           lea         eax,[edi+1]
  00408B93: 89 84 24 8C 00 00  mov         dword ptr [esp+8Ch],eax
            00
  00408B9A: 39 CE              cmp         esi,ecx
  00408B9C: 0F 8D 4E 04 00 00  jge         00408FF0
  00408BA2: 83 BC 24 C0 00 00  cmp         dword ptr [esp+0C0h],5
            00 05
  00408BAA: 0F 84 40 04 00 00  je          00408FF0
___rv_alloc_D2A:
  00408BB0: 83 BC 24 C0 00 00  cmp         dword ptr [esp+0C0h],3
            00 03
  00408BB8: 0F 84 32 04 00 00  je          00408FF0
  00408BBE: 8B 44 24 4C        mov         eax,dword ptr [esp+4Ch]
  00408BC2: 8B 54 24 50        mov         edx,dword ptr [esp+50h]
  00408BC6: 29 C8              sub         eax,ecx
  00408BC8: 83 C0 01           add         eax,1
  00408BCB: 85 D2              test        edx,edx
  00408BCD: 89 84 24 8C 00 00  mov         dword ptr [esp+8Ch],eax
            00
  00408BD4: 0F 8E 5A 07 00 00  jle         00409334
  00408BDA: 83 BC 24 C0 00 00  cmp         dword ptr [esp+0C0h],1
            00 01
  00408BE2: 0F 8E 4C 07 00 00  jle         00409334
  00408BE8: 39 44 24 50        cmp         dword ptr [esp+50h],eax
  00408BEC: 0F 8C 0C 04 00 00  jl          00408FFE
  00408BF2: 8B 4C 24 54        mov         ecx,dword ptr [esp+54h]
  00408BF6: 8B 74 24 58        mov         esi,dword ptr [esp+58h]
  00408BFA: 89 4C 24 4C        mov         dword ptr [esp+4Ch],ecx
  00408BFE: 66
  00408BFF: 90                 nop
  00408C00: C7 04 24 01 00 00  mov         dword ptr [esp],1
            00
  00408C07: 01 44 24 54        add         dword ptr [esp+54h],eax
  00408C0B: 01 44 24 48        add         dword ptr [esp+48h],eax
  00408C0F: E8 AC 37 00 00     call        0040C3C0
  00408C14: 89 44 24 38        mov         dword ptr [esp+38h],eax
  00408C18: 8B 44 24 48        mov         eax,dword ptr [esp+48h]
  00408C1C: 85 C0              test        eax,eax
  00408C1E: 7E 2C              jle         00408C4C
  00408C20: 8B 44 24 4C        mov         eax,dword ptr [esp+4Ch]
  00408C24: 85 C0              test        eax,eax
  00408C26: 7E 24              jle         00408C4C
  00408C28: 8B 4C 24 4C        mov         ecx,dword ptr [esp+4Ch]
  00408C2C: 39 4C 24 48        cmp         dword ptr [esp+48h],ecx
  00408C30: 89 C8              mov         eax,ecx
  00408C32: 0F 4E 44 24 48     cmovle      eax,dword ptr [esp+48h]
  00408C37: 29 44 24 54        sub         dword ptr [esp+54h],eax
  00408C3B: 29 44 24 48        sub         dword ptr [esp+48h],eax
  00408C3F: 29 C1              sub         ecx,eax
  00408C41: 89 84 24 8C 00 00  mov         dword ptr [esp+8Ch],eax
            00
  00408C48: 89 4C 24 4C        mov         dword ptr [esp+4Ch],ecx
  00408C4C: 8B 7C 24 58        mov         edi,dword ptr [esp+58h]
  00408C50: 85 FF              test        edi,edi
  00408C52: 7E 48              jle         00408C9C
  00408C54: 8B 4C 24 64        mov         ecx,dword ptr [esp+64h]
  00408C58: 85 C9              test        ecx,ecx
  00408C5A: 0F 84 89 06 00 00  je          004092E9
___quorem_D2A:
  00408C60: 85 F6              test        esi,esi
  00408C62: 7E 2C              jle         00408C90
  00408C64: 8B 44 24 38        mov         eax,dword ptr [esp+38h]
  00408C68: 89 74 24 04        mov         dword ptr [esp+4],esi
  00408C6C: 89 04 24           mov         dword ptr [esp],eax
  00408C6F: E8 DC 38 00 00     call        0040C550
  00408C74: 89 6C 24 04        mov         dword ptr [esp+4],ebp
  00408C78: 89 04 24           mov         dword ptr [esp],eax
  00408C7B: 89 44 24 38        mov         dword ptr [esp+38h],eax
  00408C7F: E8 6C 37 00 00     call        0040C3F0
  00408C84: 89 2C 24           mov         dword ptr [esp],ebp
  00408C87: 89 C7              mov         edi,eax
  00408C89: E8 F2 35 00 00     call        0040C280
  00408C8E: 89 FD              mov         ebp,edi
  00408C90: 8B 44 24 58        mov         eax,dword ptr [esp+58h]
  00408C94: 29 F0              sub         eax,esi
  00408C96: 0F 85 A9 06 00 00  jne         00409345
  00408C9C: C7 04 24 01 00 00  mov         dword ptr [esp],1
            00
  00408CA3: E8 18 37 00 00     call        0040C3C0
  00408CA8: 8B 54 24 5C        mov         edx,dword ptr [esp+5Ch]
  00408CAC: 85 D2              test        edx,edx
  00408CAE: 89 C7              mov         edi,eax
  00408CB0: 7E 12              jle         00408CC4
  00408CB2: 8B 4C 24 5C        mov         ecx,dword ptr [esp+5Ch]
  00408CB6: 89 04 24           mov         dword ptr [esp],eax
  00408CB9: 89 4C 24 04        mov         dword ptr [esp+4],ecx
  00408CBD: E8 8E 38 00 00     call        0040C550
  00408CC2: 89 C7              mov         edi,eax
  00408CC4: 83 BC 24 C0 00 00  cmp         dword ptr [esp+0C0h],1
            00 01
  00408CCC: C7 44 24 58 00 00  mov         dword ptr [esp+58h],0
            00 00
  00408CD4: 0F 8E D3 05 00 00  jle         004092AD
  00408CDA: 8B 44 24 5C        mov         eax,dword ptr [esp+5Ch]
  00408CDE: BE 1F 00 00 00     mov         esi,1Fh
  00408CE3: 85 C0              test        eax,eax
  00408CE5: 74 0B              je          00408CF2
  00408CE7: 8B 47 10           mov         eax,dword ptr [edi+10h]
  00408CEA: 0F BD 74 87 10     bsr         esi,dword ptr [edi+eax*4+10h]
  00408CEF: 83 F6 1F           xor         esi,1Fh
  00408CF2: 2B 74 24 48        sub         esi,dword ptr [esp+48h]
  00408CF6: 8B 4C 24 54        mov         ecx,dword ptr [esp+54h]
  00408CFA: 83 EE 04           sub         esi,4
  00408CFD: 83 E6 1F           and         esi,1Fh
  00408D00: 01 F1              add         ecx,esi
  00408D02: 89 F0              mov         eax,esi
  00408D04: 85 C9              test        ecx,ecx
  00408D06: 89 B4 24 8C 00 00  mov         dword ptr [esp+8Ch],esi
            00
  00408D0D: 7E 15              jle         00408D24
  00408D0F: 89 2C 24           mov         dword ptr [esp],ebp
  00408D12: 89 4C 24 04        mov         dword ptr [esp+4],ecx
  00408D16: E8 55 39 00 00     call        0040C670
  00408D1B: 89 C5              mov         ebp,eax
  00408D1D: 8B 84 24 8C 00 00  mov         eax,dword ptr [esp+8Ch]
            00
  00408D24: 03 44 24 48        add         eax,dword ptr [esp+48h]
  00408D28: 85 C0              test        eax,eax
  00408D2A: 7E 0E              jle         00408D3A
  00408D2C: 89 3C 24           mov         dword ptr [esp],edi
  00408D2F: 89 44 24 04        mov         dword ptr [esp+4],eax
  00408D33: E8 38 39 00 00     call        0040C670
  00408D38: 89 C7              mov         edi,eax
  00408D3A: 8B 44 24 60        mov         eax,dword ptr [esp+60h]
  00408D3E: 85 C0              test        eax,eax
  00408D40: 0F 85 6E 03 00 00  jne         004090B4
  00408D46: 8B 44 24 50        mov         eax,dword ptr [esp+50h]
  00408D4A: 85 C0              test        eax,eax
  00408D4C: 0F 8F EE 00 00 00  jg          00408E40
  00408D52: 83 BC 24 C0 00 00  cmp         dword ptr [esp+0C0h],2
            00 02
  00408D5A: 0F 8E E0 00 00 00  jle         00408E40
  00408D60: 8B 44 24 50        mov         eax,dword ptr [esp+50h]
  00408D64: 85 C0              test        eax,eax
  00408D66: 75 4A              jne         00408DB2
  00408D68: 89 3C 24           mov         dword ptr [esp],edi
  00408D6B: C7 44 24 08 00 00  mov         dword ptr [esp+8],0
            00 00
  00408D73: C7 44 24 04 05 00  mov         dword ptr [esp+4],5
            00 00
  00408D7B: E8 50 35 00 00     call        0040C2D0
  00408D80: 89 2C 24           mov         dword ptr [esp],ebp
  00408D83: 89 44 24 04        mov         dword ptr [esp+4],eax
  00408D87: 89 C7              mov         edi,eax
  00408D89: E8 F2 39 00 00     call        0040C780
  00408D8E: 85 C0              test        eax,eax
  00408D90: 7E 20              jle         00408DB2
  00408D92: 8B 4C 24 20        mov         ecx,dword ptr [esp+20h]
  00408D96: 83 C1 02           add         ecx,2
  00408D99: 89 4C 24 28        mov         dword ptr [esp+28h],ecx
  00408D9D: E9 86 FD FF FF     jmp         00408B28
  00408DA2: DD D8              fstp        st(0)
  00408DA4: EB 02              jmp         00408DA8
  00408DA6: DD D8              fstp        st(0)
  00408DA8: 31 FF              xor         edi,edi
  00408DAA: C7 44 24 38 00 00  mov         dword ptr [esp+38h],0
            00 00
  00408DB2: 8B 84 24 C4 00 00  mov         eax,dword ptr [esp+0C4h]
            00
  00408DB9: 89 DE              mov         esi,ebx
  00408DBB: 31 D2              xor         edx,edx
  00408DBD: C7 44 24 24 10 00  mov         dword ptr [esp+24h],10h
            00 00
  00408DC5: F7 D8              neg         eax
  00408DC7: 89 44 24 28        mov         dword ptr [esp+28h],eax
  00408DCB: E9 68 FD FF FF     jmp         00408B38
  00408DD0: F7 D9              neg         ecx
  00408DD2: 89 4C 24 54        mov         dword ptr [esp+54h],ecx
  00408DD6: C7 44 24 48 00 00  mov         dword ptr [esp+48h],0
            00 00
  00408DDE: E9 04 F9 FF FF     jmp         004086E7
  00408DE3: DB 44 24 20        fild        dword ptr [esp+20h]
  00408DE7: DF E9              fucomip     st,st(1)
  00408DE9: DD D8              fstp        st(0)
  00408DEB: 7A 06              jp          00408DF3
  00408DED: 0F 84 97 F8 FF FF  je          0040868A
  00408DF3: 83 6C 24 20 01     sub         dword ptr [esp+20h],1
  00408DF8: E9 8D F8 FF FF     jmp         0040868A
  00408DFD: 8D 76 00           lea         esi,[esi]
  00408E00: 8B 54 24 20        mov         edx,dword ptr [esp+20h]
  00408E04: 29 54 24 54        sub         dword ptr [esp+54h],edx
  00408E08: C7 44 24 5C 00 00  mov         dword ptr [esp+5Ch],0
            00 00
  00408E10: F7 DA              neg         edx
  00408E12: 89 54 24 58        mov         dword ptr [esp+58h],edx
  00408E16: E9 EC F8 FF FF     jmp         00408707
  00408E1B: 90                 nop
  00408E1C: 8D 74 26 00        lea         esi,[esi]
  00408E20: 8B 54 24 54        mov         edx,dword ptr [esp+54h]
  00408E24: 8B 74 24 58        mov         esi,dword ptr [esp+58h]
  00408E28: C7 44 24 38 00 00  mov         dword ptr [esp+38h],0
            00 00
  00408E30: 89 54 24 4C        mov         dword ptr [esp+4Ch],edx
  00408E34: E9 DF FD FF FF     jmp         00408C18
  00408E39: 8D B4 26 00 00 00  lea         esi,[esi]
            00
  00408E40: 8B 44 24 64        mov         eax,dword ptr [esp+64h]
  00408E44: 85 C0              test        eax,eax
  00408E46: 0F 84 C4 02 00 00  je          00409110
  00408E4C: 03 74 24 4C        add         esi,dword ptr [esp+4Ch]
  00408E50: 85 F6              test        esi,esi
  00408E52: 7E 14              jle         00408E68
  00408E54: 8B 44 24 38        mov         eax,dword ptr [esp+38h]
  00408E58: 89 74 24 04        mov         dword ptr [esp+4],esi
  00408E5C: 89 04 24           mov         dword ptr [esp],eax
  00408E5F: E8 0C 38 00 00     call        0040C670
  00408E64: 89 44 24 38        mov         dword ptr [esp+38h],eax
  00408E68: 8B 74 24 58        mov         esi,dword ptr [esp+58h]
  00408E6C: 8B 44 24 38        mov         eax,dword ptr [esp+38h]
___mingw_set_output_format:
  00408E70: 85 F6              test        esi,esi
  00408E72: 89 44 24 48        mov         dword ptr [esp+48h],eax
  00408E76: 0F 85 92 07 00 00  jne         0040960E
  00408E7C: 8B 54 24 38        mov         edx,dword ptr [esp+38h]
  00408E80: 89 7C 24 30        mov         dword ptr [esp+30h],edi
  00408E84: 8B 7C 24 48        mov         edi,dword ptr [esp+48h]
  00408E88: 89 5C 24 28        mov         dword ptr [esp+28h],ebx
  00408E8C: 89 5C 24 38        mov         dword ptr [esp+38h],ebx
  00408E90: C7 84 24 8C 00 00  mov         dword ptr [esp+8Ch],1
            00 01 00 00 00
  00408E9B: 89 D3              mov         ebx,edx
  00408E9D: E9 DD 00 00 00     jmp         00408F7F
  00408EA2: 89 14 24           mov         dword ptr [esp],edx
  00408EA5: 89 44 24 18        mov         dword ptr [esp+18h],eax
  00408EA9: E8 D2 33 00 00     call        0040C280
  00408EAE: 8B 44 24 18        mov         eax,dword ptr [esp+18h]
  00408EB2: 8B 94 24 C0 00 00  mov         edx,dword ptr [esp+0C0h]
            00
  00408EB9: 09 C2              or          edx,eax
  00408EBB: 75 18              jne         00408ED5
  00408EBD: 8B 8C 24 B8 00 00  mov         ecx,dword ptr [esp+0B8h]
            00
  00408EC4: F6 01 01           test        byte ptr [ecx],1
  00408EC7: 75 0C              jne         00408ED5
  00408EC9: 8B 54 24 44        mov         edx,dword ptr [esp+44h]
  00408ECD: 85 D2              test        edx,edx
  00408ECF: 0F 84 B0 09 00 00  je          00409885
  00408ED5: 85 F6              test        esi,esi
  00408ED7: 0F 88 A7 05 00 00  js          00409484
  00408EDD: 0B B4 24 C0 00 00  or          esi,dword ptr [esp+0C0h]
            00
  00408EE4: 75 10              jne         00408EF6
  00408EE6: 8B 94 24 B8 00 00  mov         edx,dword ptr [esp+0B8h]
            00
  00408EED: F6 02 01           test        byte ptr [edx],1
  00408EF0: 0F 84 8E 05 00 00  je          00409484
  00408EF6: 85 C0              test        eax,eax
  00408EF8: 0F 8F 5A 07 00 00  jg          00409658
  00408EFE: 8B 4C 24 28        mov         ecx,dword ptr [esp+28h]
  00408F02: 0F B6 54 24 2C     movzx       edx,byte ptr [esp+2Ch]
  00408F07: 88 11              mov         byte ptr [ecx],dl
  00408F09: 8B 54 24 50        mov         edx,dword ptr [esp+50h]
  00408F0D: 83 C1 01           add         ecx,1
  00408F10: 39 94 24 8C 00 00  cmp         dword ptr [esp+8Ch],edx
            00
  00408F17: 89 4C 24 28        mov         dword ptr [esp+28h],ecx
  00408F1B: 0F 84 AB 07 00 00  je          004096CC
  00408F21: 89 2C 24           mov         dword ptr [esp],ebp
  00408F24: C7 44 24 08 00 00  mov         dword ptr [esp+8],0
            00 00
  00408F2C: C7 44 24 04 0A 00  mov         dword ptr [esp+4],0Ah
            00 00
  00408F34: E8 97 33 00 00     call        0040C2D0
  00408F39: 39 FB              cmp         ebx,edi
  00408F3B: C7 44 24 08 00 00  mov         dword ptr [esp+8],0
            00 00
  00408F43: C7 44 24 04 0A 00  mov         dword ptr [esp+4],0Ah
            00 00
  00408F4B: 89 1C 24           mov         dword ptr [esp],ebx
  00408F4E: 89 C5              mov         ebp,eax
_setlocale_codepage_hack:
  00408F50: 0F 84 8D 00 00 00  je          00408FE3
  00408F56: E8 75 33 00 00     call        0040C2D0
  00408F5B: 89 3C 24           mov         dword ptr [esp],edi
  00408F5E: C7 44 24 08 00 00  mov         dword ptr [esp+8],0
            00 00
  00408F66: C7 44 24 04 0A 00  mov         dword ptr [esp+4],0Ah
            00 00
  00408F6E: 89 C3              mov         ebx,eax
  00408F70: E8 5B 33 00 00     call        0040C2D0
  00408F75: 89 C7              mov         edi,eax
  00408F77: 83 84 24 8C 00 00  add         dword ptr [esp+8Ch],1
            00 01
  00408F7F: 8B 44 24 30        mov         eax,dword ptr [esp+30h]
  00408F83: 89 2C 24           mov         dword ptr [esp],ebp
  00408F86: 89 44 24 04        mov         dword ptr [esp+4],eax
  00408F8A: E8 D1 0C 00 00     call        00409C60
  00408F8F: 89 5C 24 04        mov         dword ptr [esp+4],ebx
  00408F93: 89 2C 24           mov         dword ptr [esp],ebp
  00408F96: 89 44 24 40        mov         dword ptr [esp+40h],eax
  00408F9A: 83 C0 30           add         eax,30h
  00408F9D: 89 44 24 2C        mov         dword ptr [esp+2Ch],eax
  00408FA1: E8 DA 37 00 00     call        0040C780
  00408FA6: 89 7C 24 04        mov         dword ptr [esp+4],edi
  00408FAA: 89 C6              mov         esi,eax
  00408FAC: 8B 44 24 30        mov         eax,dword ptr [esp+30h]
  00408FB0: 89 04 24           mov         dword ptr [esp],eax
  00408FB3: E8 38 38 00 00     call        0040C7F0
  00408FB8: 89 C2              mov         edx,eax
  00408FBA: B8 01 00 00 00     mov         eax,1
  00408FBF: 8B 4A 0C           mov         ecx,dword ptr [edx+0Ch]
  00408FC2: 85 C9              test        ecx,ecx
  00408FC4: 0F 85 D8 FE FF FF  jne         00408EA2
  00408FCA: 89 54 24 04        mov         dword ptr [esp+4],edx
  00408FCE: 89 2C 24           mov         dword ptr [esp],ebp
  00408FD1: 89 54 24 18        mov         dword ptr [esp+18h],edx
  00408FD5: E8 A6 37 00 00     call        0040C780
  00408FDA: 8B 54 24 18        mov         edx,dword ptr [esp+18h]
  00408FDE: E9 BF FE FF FF     jmp         00408EA2
  00408FE3: E8 E8 32 00 00     call        0040C2D0
  00408FE8: 89 C3              mov         ebx,eax
  00408FEA: 89 C7              mov         edi,eax
  00408FEC: EB 89              jmp         00408F77
  00408FEE: 66
  00408FEF: 90                 nop
  00408FF0: 83 BC 24 C0 00 00  cmp         dword ptr [esp+0C0h],1
            00 01
  00408FF8: 0F 8E 36 03 00 00  jle         00409334
  00408FFE: 8B 44 24 50        mov         eax,dword ptr [esp+50h]
  00409002: 8B 74 24 58        mov         esi,dword ptr [esp+58h]
  00409006: 83 E8 01           sub         eax,1
  00409009: 29 C6              sub         esi,eax
  0040900B: 39 44 24 58        cmp         dword ptr [esp+58h],eax
  0040900F: 7D 10              jge         00409021
  00409011: 89 C1              mov         ecx,eax
  00409013: 31 F6              xor         esi,esi
  00409015: 2B 4C 24 58        sub         ecx,dword ptr [esp+58h]
  00409019: 01 4C 24 5C        add         dword ptr [esp+5Ch],ecx
  0040901D: 89 44 24 58        mov         dword ptr [esp+58h],eax
  00409021: 8B 44 24 50        mov         eax,dword ptr [esp+50h]
  00409025: 85 C0              test        eax,eax
  00409027: 0F 88 C3 05 00 00  js          004095F0
  0040902D: 8B 4C 24 50        mov         ecx,dword ptr [esp+50h]
  00409031: 8B 54 24 54        mov         edx,dword ptr [esp+54h]
  00409035: 89 8C 24 8C 00 00  mov         dword ptr [esp+8Ch],ecx
            00
  0040903C: 89 C8              mov         eax,ecx
  0040903E: 89 54 24 4C        mov         dword ptr [esp+4Ch],edx
  00409042: E9 B9 FB FF FF     jmp         00408C00
  00409047: 85 D2              test        edx,edx
  00409049: 0F 84 0F FB FF FF  je          00408B5E
  0040904F: 89 14 24           mov         dword ptr [esp],edx
  00409052: E8 29 32 00 00     call        0040C280
  00409057: E9 02 FB FF FF     jmp         00408B5E
  0040905C: C7 44 24 64 00 00  mov         dword ptr [esp+64h],0
            00 00
  00409064: 8B 9C 24 C4 00 00  mov         ebx,dword ptr [esp+0C4h]
            00
  0040906B: 85 DB              test        ebx,ebx
  0040906D: 0F 8E AC 02 00 00  jle         0040931F
  00409073: 83 BC 24 C4 00 00  cmp         dword ptr [esp+0C4h],0Eh
            00 0E
  0040907B: 0F 96 C2           setbe       dl
  0040907E: 8B 8C 24 C4 00 00  mov         ecx,dword ptr [esp+0C4h]
            00
  00409085: 21 C2              and         edx,eax
  00409087: 89 8C 24 8C 00 00  mov         dword ptr [esp+8Ch],ecx
            00
  0040908E: 89 C8              mov         eax,ecx
  00409090: 89 4C 24 70        mov         dword ptr [esp+70h],ecx
  00409094: 89 4C 24 50        mov         dword ptr [esp+50h],ecx
  00409098: E9 03 F7 FF FF     jmp         004087A0
  0040909D: C7 44 24 64 01 00  mov         dword ptr [esp+64h],1
            00 00
  004090A5: EB BD              jmp         00409064
  004090A7: C7 44 24 64 00 00  mov         dword ptr [esp+64h],0
            00 00
  004090AF: E9 60 F9 FF FF     jmp         00408A14
  004090B4: 89 7C 24 04        mov         dword ptr [esp+4],edi
  004090B8: 89 2C 24           mov         dword ptr [esp],ebp
  004090BB: E8 C0 36 00 00     call        0040C780
  004090C0: 85 C0              test        eax,eax
  004090C2: 0F 89 7E FC FF FF  jns         00408D46
  004090C8: 89 2C 24           mov         dword ptr [esp],ebp
  004090CB: C7 44 24 08 00 00  mov         dword ptr [esp+8],0
            00 00
  004090D3: C7 44 24 04 0A 00  mov         dword ptr [esp+4],0Ah
            00 00
  004090DB: 83 6C 24 20 01     sub         dword ptr [esp+20h],1
  004090E0: E8 EB 31 00 00     call        0040C2D0
  004090E5: 89 C5              mov         ebp,eax
  004090E7: 8B 44 24 64        mov         eax,dword ptr [esp+64h]
  004090EB: 85 C0              test        eax,eax
  004090ED: 0F 85 D1 07 00 00  jne         004098C4
  004090F3: 83 7C 24 70 00     cmp         dword ptr [esp+70h],0
  004090F8: 8B 54 24 70        mov         edx,dword ptr [esp+70h]
  004090FC: 7F 0E              jg          0040910C
  004090FE: 83 BC 24 C0 00 00  cmp         dword ptr [esp+0C0h],2
            00 02
  00409106: 0F 8F 8D 08 00 00  jg          00409999
  0040910C: 89 54 24 50        mov         dword ptr [esp+50h],edx
  00409110: 89 DE              mov         esi,ebx
  00409112: 89 5C 24 24        mov         dword ptr [esp+24h],ebx
  00409116: 8B 5C 24 50        mov         ebx,dword ptr [esp+50h]
  0040911A: C7 84 24 8C 00 00  mov         dword ptr [esp+8Ch],1
            00 01 00 00 00
  00409125: EB 22              jmp         00409149
  00409127: 89 2C 24           mov         dword ptr [esp],ebp
  0040912A: C7 44 24 08 00 00  mov         dword ptr [esp+8],0
            00 00
  00409132: C7 44 24 04 0A 00  mov         dword ptr [esp+4],0Ah
            00 00
  0040913A: E8 91 31 00 00     call        0040C2D0
  0040913F: 83 84 24 8C 00 00  add         dword ptr [esp+8Ch],1
            00 01
  00409147: 89 C5              mov         ebp,eax
  00409149: 89 7C 24 04        mov         dword ptr [esp+4],edi
  0040914D: 89 2C 24           mov         dword ptr [esp],ebp
  00409150: E8 0B 0B 00 00     call        00409C60
  00409155: 83 C0 30           add         eax,30h
  00409158: 88 06              mov         byte ptr [esi],al
  0040915A: 83 C6 01           add         esi,1
  0040915D: 3B 9C 24 8C 00 00  cmp         ebx,dword ptr [esp+8Ch]
            00
  00409164: 7F C1              jg          00409127
  00409166: 8B 5C 24 24        mov         ebx,dword ptr [esp+24h]
  0040916A: 31 D2              xor         edx,edx
  0040916C: 89 44 24 2C        mov         dword ptr [esp+2Ch],eax
  00409170: 8B 44 24 44        mov         eax,dword ptr [esp+44h]
  00409174: 85 C0              test        eax,eax
  00409176: 0F 84 09 04 00 00  je          00409585
  0040917C: 83 7C 24 44 02     cmp         dword ptr [esp+44h],2
  00409181: 0F 84 3A 04 00 00  je          004095C1
  00409187: 83 7D 10 01        cmp         dword ptr [ebp+10h],1
  0040918B: 0F 8E 38 06 00 00  jle         004097C9
  00409191: 0F B6 4E FF        movzx       ecx,byte ptr [esi-1]
  00409195: EB 06              jmp         0040919D
  00409197: 0F B6 48 FF        movzx       ecx,byte ptr [eax-1]
  0040919B: 89 C6              mov         esi,eax
  0040919D: 80 F9 39           cmp         cl,39h
  004091A0: 8D 46 FF           lea         eax,[esi-1]
  004091A3: 0F 85 42 05 00 00  jne         004096EB
  004091A9: 39 D8              cmp         eax,ebx
  004091AB: 75 EA              jne         00409197
  004091AD: 8B 4C 24 20        mov         ecx,dword ptr [esp+20h]
  004091B1: C6 03 31           mov         byte ptr [ebx],31h
  004091B4: C7 44 24 24 20 00  mov         dword ptr [esp+24h],20h
            00 00
  004091BC: 83 C1 02           add         ecx,2
  004091BF: 89 4C 24 28        mov         dword ptr [esp+28h],ecx
  004091C3: E9 70 F9 FF FF     jmp         00408B38
  004091C8: DD 44 24 38        fld         qword ptr [esp+38h]
  004091CC: 8D 73 01           lea         esi,[ebx+1]
  004091CF: D9 C0              fld         st(0)
  004091D1: D8 F2              fdiv        st,st(2)
  004091D3: D9 7C 24 7E        fnstcw      word ptr [esp+7Eh]
  004091D7: C7 84 24 8C 00 00  mov         dword ptr [esp+8Ch],1
            00 01 00 00 00
  004091E2: 0F B7 44 24 7E     movzx       eax,word ptr [esp+7Eh]
  004091E7: B4 0C              mov         ah,0Ch
  004091E9: 66 89 44 24 7C     mov         word ptr [esp+7Ch],ax
  004091EE: D9 6C 24 7C        fldcw       word ptr [esp+7Ch]
  004091F2: DB 5C 24 78        fistp       dword ptr [esp+78h]
  004091F6: D9 6C 24 7E        fldcw       word ptr [esp+7Eh]
  004091FA: 8B 44 24 78        mov         eax,dword ptr [esp+78h]
  004091FE: 89 44 24 78        mov         dword ptr [esp+78h],eax
  00409202: 8D 48 30           lea         ecx,[eax+30h]
  00409205: DB 44 24 78        fild        dword ptr [esp+78h]
  00409209: D8 CA              fmul        st,st(2)
  0040920B: 88 0B              mov         byte ptr [ebx],cl
  0040920D: DE E9              fsubp       st(1),st
  0040920F: D9 EE              fldz
  00409211: D9 C9              fxch        st(1)
  00409213: DB E9              fucomi      st,st(1)
  00409215: DD D9              fstp        st(1)
  00409217: 0F 8B E5 06 00 00  jnp         00409902
  0040921D: 8B 8C 24 8C 00 00  mov         ecx,dword ptr [esp+8Ch]
            00
  00409224: 39 4C 24 50        cmp         dword ptr [esp+50h],ecx
  00409228: 0F 84 2C 01 00 00  je          0040935A
  0040922E: D9 05 B4 06 41 00  fld         dword ptr ds:[4106B4h]
  00409234: 8B 7C 24 50        mov         edi,dword ptr [esp+50h]
  00409238: EB 15              jmp         0040924F
  0040923A: 8D B6 00 00 00 00  lea         esi,[esi]
  00409240: 8B 8C 24 8C 00 00  mov         ecx,dword ptr [esp+8Ch]
            00
  00409247: 39 CF              cmp         edi,ecx
  00409249: 0F 84 09 01 00 00  je          00409358
  0040924F: 83 C1 01           add         ecx,1
  00409252: DC C9              fmul        st(1),st
  00409254: 89 8C 24 8C 00 00  mov         dword ptr [esp+8Ch],ecx
            00
  0040925B: D9 C1              fld         st(1)
  0040925D: D8 F3              fdiv        st,st(3)
  0040925F: D9 6C 24 7C        fldcw       word ptr [esp+7Ch]
  00409263: DB 5C 24 78        fistp       dword ptr [esp+78h]
  00409267: D9 6C 24 7E        fldcw       word ptr [esp+7Eh]
  0040926B: 8B 44 24 78        mov         eax,dword ptr [esp+78h]
  0040926F: 89 44 24 78        mov         dword ptr [esp+78h],eax
  00409273: 8D 50 30           lea         edx,[eax+30h]
  00409276: DB 44 24 78        fild        dword ptr [esp+78h]
  0040927A: D8 CB              fmul        st,st(3)
  0040927C: 88 16              mov         byte ptr [esi],dl
  0040927E: 83 C6 01           add         esi,1
  00409281: DE EA              fsubp       st(2),st
  00409283: D9 EE              fldz
  00409285: D9 CA              fxch        st(2)
  00409287: DB EA              fucomi      st,st(2)
  00409289: DD DA              fstp        st(2)
  0040928B: 7A B3              jp          00409240
  0040928D: 75 B1              jne         00409240
  0040928F: DD D8              fstp        st(0)
  00409291: DD D8              fstp        st(0)
  00409293: DD D8              fstp        st(0)
  00409295: 8B 54 24 20        mov         edx,dword ptr [esp+20h]
  00409299: C7 44 24 24 00 00  mov         dword ptr [esp+24h],0
            00 00
  004092A1: 83 C2 01           add         edx,1
  004092A4: 89 54 24 28        mov         dword ptr [esp+28h],edx
  004092A8: E9 77 F1 FF FF     jmp         00408424
  004092AD: 83 7C 24 40 01     cmp         dword ptr [esp+40h],1
  004092B2: 0F 85 22 FA FF FF  jne         00408CDA
  004092B8: 8B 94 24 B0 00 00  mov         edx,dword ptr [esp+0B0h]
            00
  004092BF: 8B 42 04           mov         eax,dword ptr [edx+4]
  004092C2: 83 C0 01           add         eax,1
  004092C5: 39 84 24 B4 00 00  cmp         dword ptr [esp+0B4h],eax
            00
  004092CC: 0F 8E 08 FA FF FF  jle         00408CDA
  004092D2: 83 44 24 54 01     add         dword ptr [esp+54h],1
  004092D7: 83 44 24 48 01     add         dword ptr [esp+48h],1
  004092DC: C7 44 24 58 01 00  mov         dword ptr [esp+58h],1
            00 00
  004092E4: E9 F1 F9 FF FF     jmp         00408CDA
  004092E9: 8B 54 24 58        mov         edx,dword ptr [esp+58h]
  004092ED: 89 2C 24           mov         dword ptr [esp],ebp
  004092F0: 89 54 24 04        mov         dword ptr [esp+4],edx
  004092F4: E8 57 32 00 00     call        0040C550
  004092F9: 89 C5              mov         ebp,eax
  004092FB: E9 9C F9 FF FF     jmp         00408C9C
  00409300: 83 7C 24 50 0E     cmp         dword ptr [esp+50h],0Eh
  00409305: C7 84 24 8C 00 00  mov         dword ptr [esp+8Ch],1
            00 01 00 00 00
  00409310: 0F 96 C2           setbe       dl
  00409313: 21 C2              and         edx,eax
  00409315: B8 01 00 00 00     mov         eax,1
  0040931A: E9 81 F4 FF FF     jmp         004087A0
  0040931F: BA 01 00 00 00     mov         edx,1
  00409324: C7 84 24 C4 00 00  mov         dword ptr [esp+0C4h],1
            00 01 00 00 00
  0040932F: E9 4A FD FF FF     jmp         0040907E
  00409334: 8B 54 24 54        mov         edx,dword ptr [esp+54h]
  00409338: 8B 74 24 58        mov         esi,dword ptr [esp+58h]
  0040933C: 89 54 24 4C        mov         dword ptr [esp+4Ch],edx
  00409340: E9 BB F8 FF FF     jmp         00408C00
  00409345: 89 2C 24           mov         dword ptr [esp],ebp
  00409348: 89 44 24 04        mov         dword ptr [esp+4],eax
  0040934C: E8 FF 31 00 00     call        0040C550
  00409351: 89 C5              mov         ebp,eax
  00409353: E9 44 F9 FF FF     jmp         00408C9C
  00409358: DD D8              fstp        st(0)
  0040935A: 8B 7C 24 44        mov         edi,dword ptr [esp+44h]
  0040935E: 85 FF              test        edi,edi
  00409360: 0F 84 47 03 00 00  je          004096AD
  00409366: DD D8              fstp        st(0)
  00409368: DD D8              fstp        st(0)
  0040936A: 83 7C 24 44 01     cmp         dword ptr [esp+44h],1
  0040936F: 0F 84 FF 04 00 00  je          00409874
  00409375: 8B 4C 24 20        mov         ecx,dword ptr [esp+20h]
  00409379: C7 44 24 24 10 00  mov         dword ptr [esp+24h],10h
            00 00
  00409381: 83 C1 01           add         ecx,1
  00409384: 89 4C 24 28        mov         dword ptr [esp+28h],ecx
  00409388: E9 97 F0 FF FF     jmp         00408424
  0040938D: DD D8              fstp        st(0)
  0040938F: DD D8              fstp        st(0)
  00409391: DD D8              fstp        st(0)
  00409393: C7 44 24 28 02 00  mov         dword ptr [esp+28h],2
            00 00
  0040939B: 31 FF              xor         edi,edi
  0040939D: C7 44 24 38 00 00  mov         dword ptr [esp+38h],0
            00 00
  004093A5: E9 7E F7 FF FF     jmp         00408B28
  004093AA: DD 44 24 68        fld         qword ptr [esp+68h]
  004093AE: 89 DE              mov         esi,ebx
  004093B0: D9 7C 24 7E        fnstcw      word ptr [esp+7Eh]
  004093B4: DC 0C D5 78 08 41  fmul        qword ptr [edx*8+410878h]
            00
  004093BB: C7 84 24 8C 00 00  mov         dword ptr [esp+8Ch],1
            00 01 00 00 00
  004093C6: 0F B7 44 24 7E     movzx       eax,word ptr [esp+7Eh]
  004093CB: DD 44 24 38        fld         qword ptr [esp+38h]
  004093CF: B4 0C              mov         ah,0Ch
  004093D1: D9 05 B4 06 41 00  fld         dword ptr ds:[4106B4h]
  004093D7: D9 CB              fxch        st(3)
  004093D9: 66 89 44 24 7C     mov         word ptr [esp+7Ch],ax
  004093DE: EB 0E              jmp         004093EE
  004093E0: D8 CA              fmul        st,st(2)
  004093E2: 83 C1 01           add         ecx,1
  004093E5: 89 8C 24 8C 00 00  mov         dword ptr [esp+8Ch],ecx
            00
  004093EC: D9 C0              fld         st(0)
  004093EE: D9 6C 24 7C        fldcw       word ptr [esp+7Ch]
  004093F2: DB 54 24 78        fist        dword ptr [esp+78h]
  004093F6: D9 6C 24 7E        fldcw       word ptr [esp+7Eh]
  004093FA: 8B 44 24 78        mov         eax,dword ptr [esp+78h]
  004093FE: 85 C0              test        eax,eax
  00409400: 74 0E              je          ___set_ones_D2A
  00409402: DD D9              fstp        st(1)
  00409404: 89 44 24 78        mov         dword ptr [esp+78h],eax
  00409408: DB 44 24 78        fild        dword ptr [esp+78h]
  0040940C: DE E9              fsubp       st(1),st
  0040940E: EB 02              jmp         00409412
___set_ones_D2A:
  00409410: DD D8              fstp        st(0)
  00409412: 83 C0 30           add         eax,30h
  00409415: 88 06              mov         byte ptr [esi],al
  00409417: 8B 8C 24 8C 00 00  mov         ecx,dword ptr [esp+8Ch]
            00
  0040941E: 83 C6 01           add         esi,1
  00409421: 39 D1              cmp         ecx,edx
  00409423: 75 BB              jne         004093E0
  00409425: DD DA              fstp        st(2)
  00409427: D9 C9              fxch        st(1)
  00409429: D9 05 C4 06 41 00  fld         dword ptr ds:[4106C4h]
  0040942F: D9 C2              fld         st(2)
  00409431: D8 C1              fadd        st,st(1)
  00409433: D9 CA              fxch        st(2)
  00409435: DB EA              fucomi      st,st(2)
  00409437: DD DA              fstp        st(2)
  00409439: 0F 87 AC EF FF FF  ja          004083EB
  0040943F: DE E2              fsubrp      st(2),st
  00409441: D9 C9              fxch        st(1)
  00409443: DF E9              fucomip     st,st(1)
  00409445: 0F 86 5C F6 FF FF  jbe         00408AA7
  0040944B: DD D9              fstp        st(1)
  0040944D: D9 EE              fldz
  0040944F: D9 C9              fxch        st(1)
  00409451: DF E9              fucomip     st,st(1)
  00409453: DD D8              fstp        st(0)
  00409455: 7A 06              jp          0040945D
  00409457: 0F 84 E9 03 00 00  je          00409846
  0040945D: C7 44 24 24 10 00  mov         dword ptr [esp+24h],10h
            00 00
  00409465: EB 06              jmp         0040946D
  00409467: 0F B6 42 FF        movzx       eax,byte ptr [edx-1]
  0040946B: 89 D6              mov         esi,edx
  0040946D: 3C 30              cmp         al,30h
  0040946F: 8D 56 FF           lea         edx,[esi-1]
  00409472: 74 F3              je          00409467
  00409474: 8B 44 24 74        mov         eax,dword ptr [esp+74h]
  00409478: 83 C0 01           add         eax,1
  0040947B: 89 44 24 28        mov         dword ptr [esp+28h],eax
  0040947F: E9 A0 EF FF FF     jmp         00408424
  00409484: 8B 4C 24 44        mov         ecx,dword ptr [esp+44h]
  00409488: 89 DA              mov         edx,ebx
  0040948A: 89 7C 24 48        mov         dword ptr [esp+48h],edi
  0040948E: 8B 74 24 28        mov         esi,dword ptr [esp+28h]
  00409492: 8B 7C 24 30        mov         edi,dword ptr [esp+30h]
  00409496: 8B 5C 24 38        mov         ebx,dword ptr [esp+38h]
  0040949A: 85 C9              test        ecx,ecx
  0040949C: 0F 84 BF 02 00 00  je          00409761
  004094A2: 83 7D 10 01        cmp         dword ptr [ebp+10h],1
  004094A6: 0F 8E AB 02 00 00  jle         00409757
  004094AC: 83 7C 24 44 02     cmp         dword ptr [esp+44h],2
  004094B1: 0F 84 05 03 00 00  je          004097BC
  004094B7: 89 7C 24 24        mov         dword ptr [esp+24h],edi
  004094BB: 89 D7              mov         edi,edx
  004094BD: 89 5C 24 34        mov         dword ptr [esp+34h],ebx
  004094C1: 8B 5C 24 48        mov         ebx,dword ptr [esp+48h]
  004094C5: EB 62              jmp         00409529
  004094C7: 0F B6 4C 24 2C     movzx       ecx,byte ptr [esp+2Ch]
  004094CC: 88 0E              mov         byte ptr [esi],cl
  004094CE: 83 C6 01           add         esi,1
  004094D1: 89 1C 24           mov         dword ptr [esp],ebx
  004094D4: C7 44 24 08 00 00  mov         dword ptr [esp+8],0
            00 00
  004094DC: C7 44 24 04 0A 00  mov         dword ptr [esp+4],0Ah
            00 00
  004094E4: E8 E7 2D 00 00     call        0040C2D0
  004094E9: 39 DF              cmp         edi,ebx
  004094EB: 89 2C 24           mov         dword ptr [esp],ebp
  004094EE: C7 44 24 08 00 00  mov         dword ptr [esp+8],0
            00 00
  004094F6: C7 44 24 04 0A 00  mov         dword ptr [esp+4],0Ah
            00 00
  004094FE: 0F 44 F8           cmove       edi,eax
  00409501: 89 44 24 18        mov         dword ptr [esp+18h],eax
  00409505: E8 C6 2D 00 00     call        0040C2D0
  0040950A: 89 C5              mov         ebp,eax
  0040950C: 8B 44 24 24        mov         eax,dword ptr [esp+24h]
  00409510: 89 2C 24           mov         dword ptr [esp],ebp
  00409513: 89 44 24 04        mov         dword ptr [esp+4],eax
  00409517: E8 44 07 00 00     call        00409C60
  0040951C: 8B 54 24 18        mov         edx,dword ptr [esp+18h]
  00409520: 89 D3              mov         ebx,edx
  00409522: 83 C0 30           add         eax,30h
  00409525: 89 44 24 2C        mov         dword ptr [esp+2Ch],eax
  00409529: 8B 44 24 24        mov         eax,dword ptr [esp+24h]
  0040952D: 89 5C 24 04        mov         dword ptr [esp+4],ebx
  00409531: 89 04 24           mov         dword ptr [esp],eax
  00409534: E8 47 32 00 00     call        0040C780
  00409539: 85 C0              test        eax,eax
  0040953B: 7F 8A              jg          004094C7
  0040953D: 83 7C 24 2C 39     cmp         dword ptr [esp+2Ch],39h
  00409542: 89 FA              mov         edx,edi
  00409544: 89 5C 24 48        mov         dword ptr [esp+48h],ebx
  00409548: 8B 7C 24 24        mov         edi,dword ptr [esp+24h]
  0040954C: 8B 5C 24 34        mov         ebx,dword ptr [esp+34h]
  00409550: 0F 84 93 02 00 00  je          004097E9
  00409556: 83 44 24 2C 01     add         dword ptr [esp+2Ch],1
  0040955B: C7 44 24 24 20 00  mov         dword ptr [esp+24h],20h
            00 00
  00409563: 0F B6 44 24 2C     movzx       eax,byte ptr [esp+2Ch]
  00409568: 88 06              mov         byte ptr [esi],al
  0040956A: 8B 4C 24 20        mov         ecx,dword ptr [esp+20h]
  0040956E: 83 C6 01           add         esi,1
  00409571: 8B 44 24 48        mov         eax,dword ptr [esp+48h]
  00409575: 83 C1 01           add         ecx,1
  00409578: 89 4C 24 28        mov         dword ptr [esp+28h],ecx
  0040957C: 89 44 24 38        mov         dword ptr [esp+38h],eax
  00409580: E9 B3 F5 FF FF     jmp         00408B38
  00409585: 89 2C 24           mov         dword ptr [esp],ebp
  00409588: C7 44 24 04 01 00  mov         dword ptr [esp+4],1
            00 00
  00409590: 89 54 24 18        mov         dword ptr [esp+18h],edx
  00409594: E8 D7 30 00 00     call        0040C670
  00409599: 89 7C 24 04        mov         dword ptr [esp+4],edi
  0040959D: 89 04 24           mov         dword ptr [esp],eax
  004095A0: 89 C5              mov         ebp,eax
  004095A2: E8 D9 31 00 00     call        0040C780
  004095A7: 8B 54 24 18        mov         edx,dword ptr [esp+18h]
  004095AB: 83 F8 00           cmp         eax,0
  004095AE: 0F 8F DD FB FF FF  jg          00409191
  004095B4: 75 0B              jne         004095C1
  004095B6: F6 44 24 2C 01     test        byte ptr [esp+2Ch],1
  004095BB: 0F 85 D0 FB FF FF  jne         00409191
  004095C1: 83 7D 10 01        cmp         dword ptr [ebp+10h],1
  004095C5: 0F 8E 91 03 00 00  jle         0040995C
  004095CB: C7 44 24 24 10 00  mov         dword ptr [esp+24h],10h
            00 00
  004095D3: EB 02              jmp         004095D7
  004095D5: 89 C6              mov         esi,eax
  004095D7: 80 7E FF 30        cmp         byte ptr [esi-1],30h
  004095DB: 8D 46 FF           lea         eax,[esi-1]
  004095DE: 74 F5              je          004095D5
  004095E0: 8B 4C 24 20        mov         ecx,dword ptr [esp+20h]
  004095E4: 83 C1 01           add         ecx,1
  004095E7: 89 4C 24 28        mov         dword ptr [esp+28h],ecx
  004095EB: E9 48 F5 FF FF     jmp         00408B38
  004095F0: 8B 4C 24 54        mov         ecx,dword ptr [esp+54h]
  004095F4: 31 C0              xor         eax,eax
  004095F6: 2B 4C 24 50        sub         ecx,dword ptr [esp+50h]
  004095FA: C7 84 24 8C 00 00  mov         dword ptr [esp+8Ch],0
            00 00 00 00 00
  00409605: 89 4C 24 4C        mov         dword ptr [esp+4Ch],ecx
  00409609: E9 F2 F5 FF FF     jmp         00408C00
  0040960E: 8B 40 04           mov         eax,dword ptr [eax+4]
  00409611: 89 04 24           mov         dword ptr [esp],eax
  00409614: E8 A7 2B 00 00     call        0040C1C0
  00409619: 8B 4C 24 38        mov         ecx,dword ptr [esp+38h]
  0040961D: 8D 50 0C           lea         edx,[eax+0Ch]
  00409620: 89 C6              mov         esi,eax
  00409622: 8B 41 10           mov         eax,dword ptr [ecx+10h]
  00409625: 83 C1 0C           add         ecx,0Ch
  00409628: 89 4C 24 04        mov         dword ptr [esp+4],ecx
  0040962C: 89 14 24           mov         dword ptr [esp],edx
  0040962F: 8D 04 85 08 00 00  lea         eax,[eax*4+8]
            00
  00409636: 89 44 24 08        mov         dword ptr [esp+8],eax
  0040963A: E8 E1 48 00 00     call        0040DF20
  0040963F: C7 44 24 04 01 00  mov         dword ptr [esp+4],1
            00 00
  00409647: 89 34 24           mov         dword ptr [esp],esi
  0040964A: E8 21 30 00 00     call        0040C670
  0040964F: 89 44 24 48        mov         dword ptr [esp+48h],eax
  00409653: E9 24 F8 FF FF     jmp         00408E7C
  00409658: 83 7C 24 44 02     cmp         dword ptr [esp+44h],2
  0040965D: 0F 84 9B F8 FF FF  je          00408EFE
  00409663: 83 7C 24 2C 39     cmp         dword ptr [esp+2Ch],39h
  00409668: 89 DA              mov         edx,ebx
  0040966A: 89 7C 24 48        mov         dword ptr [esp+48h],edi
  0040966E: 8B 74 24 28        mov         esi,dword ptr [esp+28h]
  00409672: 8B 7C 24 30        mov         edi,dword ptr [esp+30h]
  00409676: 8B 5C 24 38        mov         ebx,dword ptr [esp+38h]
  0040967A: 0F 84 69 01 00 00  je          004097E9
  00409680: 0F B6 44 24 2C     movzx       eax,byte ptr [esp+2Ch]
  00409685: 8B 4C 24 20        mov         ecx,dword ptr [esp+20h]
  00409689: C7 44 24 24 20 00  mov         dword ptr [esp+24h],20h
            00 00
  00409691: 83 C0 01           add         eax,1
  00409694: 88 06              mov         byte ptr [esi],al
  00409696: 8B 44 24 48        mov         eax,dword ptr [esp+48h]
  0040969A: 83 C1 01           add         ecx,1
  0040969D: 83 C6 01           add         esi,1
  004096A0: 89 4C 24 28        mov         dword ptr [esp+28h],ecx
  004096A4: 89 44 24 38        mov         dword ptr [esp+38h],eax
  004096A8: E9 8B F4 FF FF     jmp         00408B38
  004096AD: D8 C0              fadd        st,st(0)
  004096AF: DB E9              fucomi      st,st(1)
  004096B1: 0F 86 4A 01 00 00  jbe         00409801
  004096B7: DD D8              fstp        st(0)
  004096B9: DD D8              fstp        st(0)
  004096BB: 8B 4C 24 20        mov         ecx,dword ptr [esp+20h]
  004096BF: 0F B6 46 FF        movzx       eax,byte ptr [esi-1]
  004096C3: 89 4C 24 74        mov         dword ptr [esp+74h],ecx
  004096C7: E9 27 ED FF FF     jmp         004083F3
  004096CC: 89 7C 24 48        mov         dword ptr [esp+48h],edi
  004096D0: 8B 44 24 48        mov         eax,dword ptr [esp+48h]
  004096D4: 89 DA              mov         edx,ebx
  004096D6: 8B 7C 24 30        mov         edi,dword ptr [esp+30h]
  004096DA: 8B 5C 24 38        mov         ebx,dword ptr [esp+38h]
  004096DE: 8B 74 24 28        mov         esi,dword ptr [esp+28h]
  004096E2: 89 44 24 38        mov         dword ptr [esp+38h],eax
  004096E6: E9 85 FA FF FF     jmp         00409170
  004096EB: 83 C1 01           add         ecx,1
  004096EE: 88 08              mov         byte ptr [eax],cl
  004096F0: 8B 4C 24 20        mov         ecx,dword ptr [esp+20h]
  004096F4: C7 44 24 24 20 00  mov         dword ptr [esp+24h],20h
            00 00
  004096FC: 83 C1 01           add         ecx,1
  004096FF: 89 4C 24 28        mov         dword ptr [esp+28h],ecx
  00409703: E9 30 F4 FF FF     jmp         00408B38
  00409708: 8B 54 24 50        mov         edx,dword ptr [esp+50h]
  0040970C: 85 D2              test        edx,edx
  0040970E: 0F 84 49 F3 FF FF  je          00408A5D
  00409714: 8B 44 24 70        mov         eax,dword ptr [esp+70h]
  00409718: 85 C0              test        eax,eax
  0040971A: 0F 8E 89 F3 FF FF  jle         00408AA9
  00409720: D9 C0              fld         st(0)
  00409722: 8B 54 24 70        mov         edx,dword ptr [esp+70h]
  00409726: D8 0D B4 06 41 00  fmul        dword ptr ds:[4106B4h]
  0040972C: C7 44 24 74 FF FF  mov         dword ptr [esp+74h],0FFFFFFFFh
            FF FF
  00409734: DD 54 24 38        fst         qword ptr [esp+38h]
  00409738: D9 C0              fld         st(0)
  0040973A: D8 0D B8 06 41 00  fmul        dword ptr ds:[4106B8h]
  00409740: D8 05 BC 06 41 00  fadd        dword ptr ds:[4106BCh]
  00409746: DD 5C 24 68        fstp        qword ptr [esp+68h]
  0040974A: 81 6C 24 6C 00 00  sub         dword ptr [esp+6Ch],3400000h
            40 03
  00409752: E9 F7 F0 FF FF     jmp         0040884E
  00409757: 83 7D 14 00        cmp         dword ptr [ebp+14h],0
  0040975B: 0F 85 4B FD FF FF  jne         004094AC
  00409761: 85 C0              test        eax,eax
  00409763: 0F 8E BB 00 00 00  jle         00409824
  00409769: 89 2C 24           mov         dword ptr [esp],ebp
  0040976C: C7 44 24 04 01 00  mov         dword ptr [esp+4],1
            00 00
  00409774: 89 54 24 18        mov         dword ptr [esp+18h],edx
  00409778: E8 F3 2E 00 00     call        0040C670
  0040977D: 89 7C 24 04        mov         dword ptr [esp+4],edi
  00409781: 89 04 24           mov         dword ptr [esp],eax
  00409784: 89 C5              mov         ebp,eax
  00409786: E8 F5 2F 00 00     call        0040C780
  0040978B: 8B 54 24 18        mov         edx,dword ptr [esp+18h]
  0040978F: 83 F8 00           cmp         eax,0
  00409792: 0F 8E 9D 01 00 00  jle         00409935
  00409798: 83 7C 24 2C 39     cmp         dword ptr [esp+2Ch],39h
  0040979D: 74 4A              je          004097E9
  0040979F: 8B 4C 24 40        mov         ecx,dword ptr [esp+40h]
  004097A3: C7 44 24 24 20 00  mov         dword ptr [esp+24h],20h
            00 00
  004097AB: 83 C1 31           add         ecx,31h
  004097AE: 89 4C 24 2C        mov         dword ptr [esp+2Ch],ecx
  004097B2: 83 7D 10 01        cmp         dword ptr [ebp+10h],1
  004097B6: 0F 8E 55 01 00 00  jle         00409911
  004097BC: C7 44 24 24 10 00  mov         dword ptr [esp+24h],10h
            00 00
  004097C4: E9 9A FD FF FF     jmp         00409563
  004097C9: 8B 4D 14           mov         ecx,dword ptr [ebp+14h]
  004097CC: 85 C9              test        ecx,ecx
  004097CE: 0F 85 BD F9 FF FF  jne         00409191
  004097D4: C7 44 24 24 00 00  mov         dword ptr [esp+24h],0
            00 00
  004097DC: E9 F6 FD FF FF     jmp         004095D7
  004097E1: 83 C0 01           add         eax,1
  004097E4: E9 26 EC FF FF     jmp         0040840F
  004097E9: 8B 44 24 48        mov         eax,dword ptr [esp+48h]
  004097ED: B9 39 00 00 00     mov         ecx,39h
  004097F2: C6 06 39           mov         byte ptr [esi],39h
  004097F5: 83 C6 01           add         esi,1
  004097F8: 89 44 24 38        mov         dword ptr [esp+38h],eax
  004097FC: E9 9C F9 FF FF     jmp         0040919D
  00409801: D9 C9              fxch        st(1)
  00409803: DF E9              fucomip     st,st(1)
  00409805: DD D8              fstp        st(0)
  00409807: 7A 02              jp          0040980B
  00409809: 74 48              je          00409853
  0040980B: 8B 54 24 20        mov         edx,dword ptr [esp+20h]
  0040980F: 0F B6 46 FF        movzx       eax,byte ptr [esi-1]
  00409813: C7 44 24 24 10 00  mov         dword ptr [esp+24h],10h
            00 00
  0040981B: 89 54 24 74        mov         dword ptr [esp+74h],edx
  0040981F: E9 49 FC FF FF     jmp         0040946D
  00409824: C7 44 24 24 00 00  mov         dword ptr [esp+24h],0
            00 00
  0040982C: EB 84              jmp         004097B2
  0040982E: 8B 44 24 74        mov         eax,dword ptr [esp+74h]
  00409832: C7 44 24 24 10 00  mov         dword ptr [esp+24h],10h
            00 00
  0040983A: 83 C0 01           add         eax,1
  0040983D: 89 44 24 28        mov         dword ptr [esp+28h],eax
  00409841: E9 DE EB FF FF     jmp         00408424
  00409846: C7 44 24 24 00 00  mov         dword ptr [esp+24h],0
            00 00
  0040984E: E9 1A FC FF FF     jmp         0040946D
  00409853: A8 01              test        al,1
  00409855: 0F B6 46 FF        movzx       eax,byte ptr [esi-1]
  00409859: 0F 85 F0 00 00 00  jne         0040994F
  0040985F: 8B 4C 24 20        mov         ecx,dword ptr [esp+20h]
  00409863: C7 44 24 24 10 00  mov         dword ptr [esp+24h],10h
            00 00
  0040986B: 89 4C 24 74        mov         dword ptr [esp+74h],ecx
  0040986F: E9 F9 FB FF FF     jmp         0040946D
  00409874: 8B 54 24 20        mov         edx,dword ptr [esp+20h]
  00409878: 0F B6 46 FF        movzx       eax,byte ptr [esi-1]
  0040987C: 89 54 24 74        mov         dword ptr [esp+74h],edx
  00409880: E9 6E EB FF FF     jmp         004083F3
  00409885: 83 7C 24 2C 39     cmp         dword ptr [esp+2Ch],39h
  0040988A: 89 DA              mov         edx,ebx
  0040988C: 89 7C 24 48        mov         dword ptr [esp+48h],edi
  00409890: 89 F1              mov         ecx,esi
  00409892: 8B 7C 24 30        mov         edi,dword ptr [esp+30h]
  00409896: 8B 5C 24 38        mov         ebx,dword ptr [esp+38h]
  0040989A: 8B 74 24 28        mov         esi,dword ptr [esp+28h]
  0040989E: 0F 84 45 FF FF FF  je          004097E9
  004098A4: 85 C9              test        ecx,ecx
  004098A6: 0F 8E C7 00 00 00  jle         00409973
  004098AC: 8B 4C 24 40        mov         ecx,dword ptr [esp+40h]
  004098B0: C7 44 24 24 20 00  mov         dword ptr [esp+24h],20h
            00 00
  004098B8: 83 C1 31           add         ecx,31h
  004098BB: 89 4C 24 2C        mov         dword ptr [esp+2Ch],ecx
  004098BF: E9 9F FC FF FF     jmp         00409563
  004098C4: 8B 44 24 38        mov         eax,dword ptr [esp+38h]
  004098C8: C7 44 24 08 00 00  mov         dword ptr [esp+8],0
            00 00
  004098D0: C7 44 24 04 0A 00  mov         dword ptr [esp+4],0Ah
            00 00
  004098D8: 89 04 24           mov         dword ptr [esp],eax
  004098DB: E8 F0 29 00 00     call        0040C2D0
  004098E0: 83 7C 24 70 00     cmp         dword ptr [esp+70h],0
  004098E5: 89 44 24 38        mov         dword ptr [esp+38h],eax
  004098E9: 7F 0A              jg          004098F5
  004098EB: 83 BC 24 C0 00 00  cmp         dword ptr [esp+0C0h],2
            00 02
  004098F3: 7F 33              jg          00409928
  004098F5: 8B 54 24 70        mov         edx,dword ptr [esp+70h]
  004098F9: 89 54 24 50        mov         dword ptr [esp+50h],edx
  004098FD: E9 4A F5 FF FF     jmp         00408E4C
  00409902: 0F 85 15 F9 FF FF  jne         0040921D
  00409908: DD D8              fstp        st(0)
  0040990A: DD D8              fstp        st(0)
  0040990C: E9 84 F9 FF FF     jmp         00409295
  00409911: 83 7D 14 00        cmp         dword ptr [ebp+14h],0
  00409915: B8 10 00 00 00     mov         eax,10h
  0040991A: 0F 44 44 24 24     cmove       eax,dword ptr [esp+24h]
  0040991F: 89 44 24 24        mov         dword ptr [esp+24h],eax
  00409923: E9 3B FC FF FF     jmp         00409563
  00409928: 8B 4C 24 70        mov         ecx,dword ptr [esp+70h]
  0040992C: 89 4C 24 50        mov         dword ptr [esp+50h],ecx
  00409930: E9 2B F4 FF FF     jmp         00408D60
  00409935: 75 0B              jne         00409942
  00409937: F6 44 24 2C 01     test        byte ptr [esp+2Ch],1
  0040993C: 0F 85 56 FE FF FF  jne         00409798
  00409942: C7 44 24 24 20 00  mov         dword ptr [esp+24h],20h
            00 00
  0040994A: E9 63 FE FF FF     jmp         004097B2
  0040994F: 8B 54 24 20        mov         edx,dword ptr [esp+20h]
  00409953: 89 54 24 74        mov         dword ptr [esp+74h],edx
  00409957: E9 97 EA FF FF     jmp         004083F3
  0040995C: 83 7D 14 00        cmp         dword ptr [ebp+14h],0
  00409960: C7 44 24 24 00 00  mov         dword ptr [esp+24h],0
            00 00
  00409968: 0F 85 5D FC FF FF  jne         004095CB
  0040996E: E9 64 FC FF FF     jmp         004095D7
  00409973: 83 7D 10 01        cmp         dword ptr [ebp+10h],1
  00409977: C7 44 24 24 10 00  mov         dword ptr [esp+24h],10h
            00 00
  0040997F: 0F 8F DE FB FF FF  jg          00409563
  00409985: 83 7D 14 01        cmp         dword ptr [ebp+14h],1
  00409989: 19 C0              sbb         eax,eax
  0040998B: F7 D0              not         eax
  0040998D: 83 E0 10           and         eax,10h
  00409990: 89 44 24 24        mov         dword ptr [esp+24h],eax
  00409994: E9 CA FB FF FF     jmp         00409563
  00409999: 89 54 24 50        mov         dword ptr [esp+50h],edx
  0040999D: E9 BE F3 FF FF     jmp         00408D60
  004099A2: 90                 nop
  004099A3: 90                 nop
  004099A4: 90                 nop
  004099A5: 90                 nop
  004099A6: 90                 nop
  004099A7: 90                 nop
  004099A8: 90                 nop
  004099A9: 90                 nop
  004099AA: 90                 nop
  004099AB: 90                 nop
  004099AC: 90                 nop
  004099AD: 90                 nop
  004099AE: 90                 nop
  004099AF: 90                 nop
  004099B0: 83 EC 4C           sub         esp,4Ch
  004099B3: 8B 54 24 58        mov         edx,dword ptr [esp+58h]
  004099B7: 8B 44 24 54        mov         eax,dword ptr [esp+54h]
  004099BB: 85 D2              test        edx,edx
  004099BD: 66 89 44 24 2C     mov         word ptr [esp+2Ch],ax
  004099C2: 75 1C              jne         004099E0
  004099C4: 66 3D FF 00        cmp         ax,0FFh
  004099C8: 77 6E              ja          00409A38
  004099CA: 8B 54 24 50        mov         edx,dword ptr [esp+50h]
  004099CE: 88 02              mov         byte ptr [edx],al
  004099D0: B8 01 00 00 00     mov         eax,1
  004099D5: 83 C4 4C           add         esp,4Ch
  004099D8: C3                 ret
  004099D9: 8D B4 26 00 00 00  lea         esi,[esi]
            00
  004099E0: 8D 44 24 3C        lea         eax,[esp+3Ch]
  004099E4: 89 44 24 1C        mov         dword ptr [esp+1Ch],eax
  004099E8: 8B 44 24 5C        mov         eax,dword ptr [esp+5Ch]
  004099EC: C7 44 24 3C 00 00  mov         dword ptr [esp+3Ch],0
            00 00
  004099F4: C7 44 24 18 00 00  mov         dword ptr [esp+18h],0
            00 00
  004099FC: C7 44 24 0C 01 00  mov         dword ptr [esp+0Ch],1
            00 00
  00409A04: 89 44 24 14        mov         dword ptr [esp+14h],eax
  00409A08: 8B 44 24 50        mov         eax,dword ptr [esp+50h]
  00409A0C: C7 44 24 04 00 00  mov         dword ptr [esp+4],0
            00 00
  00409A14: 89 14 24           mov         dword ptr [esp],edx
  00409A17: 89 44 24 10        mov         dword ptr [esp+10h],eax
  00409A1B: 8D 44 24 2C        lea         eax,[esp+2Ch]
  00409A1F: 89 44 24 08        mov         dword ptr [esp+8],eax
  00409A23: FF 15 24 22 41 00  call        dword ptr ds:[412224h]
  00409A29: 83 EC 20           sub         esp,20h
  00409A2C: 85 C0              test        eax,eax
  00409A2E: 74 08              je          00409A38
  00409A30: 8B 54 24 3C        mov         edx,dword ptr [esp+3Ch]
  00409A34: 85 D2              test        edx,edx
  00409A36: 74 9D              je          004099D5
  00409A38: E8 8B 45 00 00     call        0040DFC8
  00409A3D: C7 00 2A 00 00 00  mov         dword ptr [eax],2Ah
  00409A43: B8 FF FF FF FF     mov         eax,0FFFFFFFFh
  00409A48: 83 C4 4C           add         esp,4Ch
  00409A4B: C3                 ret
  00409A4C: 8D 74 26 00        lea         esi,[esi]
  00409A50: 83 EC 2C           sub         esp,2Ch
  00409A53: 8B 44 24 30        mov         eax,dword ptr [esp+30h]
  00409A57: 89 5C 24 20        mov         dword ptr [esp+20h],ebx
  00409A5B: 8D 5C 24 1B        lea         ebx,[esp+1Bh]
  00409A5F: 89 74 24 24        mov         dword ptr [esp+24h],esi
  00409A63: 0F B7 74 24 34     movzx       esi,word ptr [esp+34h]
  00409A68: 89 7C 24 28        mov         dword ptr [esp+28h],edi
  00409A6C: 85 C0              test        eax,eax
  00409A6E: 0F 45 D8           cmovne      ebx,eax
  00409A71: A1 3C 22 41 00     mov         eax,[0041223C]
  00409A76: 8B 38              mov         edi,dword ptr [eax]
  00409A78: FF 15 70 F0 40 00  call        dword ptr ds:[40F070h]
  00409A7E: 89 74 24 04        mov         dword ptr [esp+4],esi
  00409A82: 89 1C 24           mov         dword ptr [esp],ebx
  00409A85: 89 7C 24 0C        mov         dword ptr [esp+0Ch],edi
  00409A89: 89 44 24 08        mov         dword ptr [esp+8],eax
  00409A8D: E8 1E FF FF FF     call        004099B0
  00409A92: 8B 5C 24 20        mov         ebx,dword ptr [esp+20h]
  00409A96: 8B 74 24 24        mov         esi,dword ptr [esp+24h]
  00409A9A: 8B 7C 24 28        mov         edi,dword ptr [esp+28h]
  00409A9E: 83 C4 2C           add         esp,2Ch
  00409AA1: C3                 ret
  00409AA2: 8D B4 26 00 00 00  lea         esi,[esi]
            00
  00409AA9: 8D BC 27 00 00 00  lea         edi,[edi]
            00
  00409AB0: 55                 push        ebp
  00409AB1: 57                 push        edi
  00409AB2: 56                 push        esi
  00409AB3: 53                 push        ebx
  00409AB4: 31 DB              xor         ebx,ebx
  00409AB6: 83 EC 3C           sub         esp,3Ch
  00409AB9: 8B 6C 24 50        mov         ebp,dword ptr [esp+50h]
  00409ABD: FF 15 70 F0 40 00  call        dword ptr ds:[40F070h]
  00409AC3: 89 44 24 1C        mov         dword ptr [esp+1Ch],eax
  00409AC7: A1 3C 22 41 00     mov         eax,[0041223C]
  00409ACC: 8B 38              mov         edi,dword ptr [eax]
  00409ACE: 8B 44 24 54        mov         eax,dword ptr [esp+54h]
  00409AD2: 8B 30              mov         esi,dword ptr [eax]
  00409AD4: 85 F6              test        esi,esi
  00409AD6: 74 4F              je          00409B27
  00409AD8: 85 ED              test        ebp,ebp
  00409ADA: 0F 84 80 00 00 00  je          00409B60
  00409AE0: 8B 4C 24 58        mov         ecx,dword ptr [esp+58h]
  00409AE4: 85 C9              test        ecx,ecx
  00409AE6: 74 4B              je          00409B33
  00409AE8: 89 F0              mov         eax,esi
  00409AEA: 89 FE              mov         esi,edi
  00409AEC: 89 C7              mov         edi,eax
  00409AEE: EB 13              jmp         00409B03
  00409AF0: 01 C5              add         ebp,eax
  00409AF2: 01 C3              add         ebx,eax
  00409AF4: 80 7D FF 00        cmp         byte ptr [ebp-1],0
  00409AF8: 74 49              je          00409B43
  00409AFA: 83 C7 02           add         edi,2
  00409AFD: 39 5C 24 58        cmp         dword ptr [esp+58h],ebx
  00409B01: 76 2E              jbe         00409B31
  00409B03: 8B 44 24 1C        mov         eax,dword ptr [esp+1Ch]
  00409B07: 89 74 24 0C        mov         dword ptr [esp+0Ch],esi
  00409B0B: 89 44 24 08        mov         dword ptr [esp+8],eax
  00409B0F: 0F B7 07           movzx       eax,word ptr [edi]
  00409B12: 89 2C 24           mov         dword ptr [esp],ebp
  00409B15: 89 44 24 04        mov         dword ptr [esp+4],eax
  00409B19: E8 92 FE FF FF     call        004099B0
  00409B1E: 85 C0              test        eax,eax
  00409B20: 7F CE              jg          00409AF0
  00409B22: BB FF FF FF FF     mov         ebx,0FFFFFFFFh
  00409B27: 83 C4 3C           add         esp,3Ch
  00409B2A: 89 D8              mov         eax,ebx
  00409B2C: 5B                 pop         ebx
  00409B2D: 5E                 pop         esi
  00409B2E: 5F                 pop         edi
  00409B2F: 5D                 pop         ebp
  00409B30: C3                 ret
  00409B31: 89 FE              mov         esi,edi
  00409B33: 8B 44 24 54        mov         eax,dword ptr [esp+54h]
  00409B37: 89 30              mov         dword ptr [eax],esi
  00409B39: 83 C4 3C           add         esp,3Ch
  00409B3C: 89 D8              mov         eax,ebx
  00409B3E: 5B                 pop         ebx
  00409B3F: 5E                 pop         esi
  00409B40: 5F                 pop         edi
  00409B41: 5D                 pop         ebp
  00409B42: C3                 ret
  00409B43: 8B 44 24 54        mov         eax,dword ptr [esp+54h]
  00409B47: 83 EB 01           sub         ebx,1
  00409B4A: C7 00 00 00 00 00  mov         dword ptr [eax],0
  00409B50: 83 C4 3C           add         esp,3Ch
  00409B53: 89 D8              mov         eax,ebx
  00409B55: 5B                 pop         ebx
  00409B56: 5E                 pop         esi
  00409B57: 5F                 pop         edi
  00409B58: 5D                 pop         ebp
  00409B59: C3                 ret
  00409B5A: 8D B6 00 00 00 00  lea         esi,[esi]
  00409B60: 8B 44 24 58        mov         eax,dword ptr [esp+58h]
  00409B64: 8D 6C 24 2B        lea         ebp,[esp+2Bh]
  00409B68: 85 C0              test        eax,eax
  00409B6A: 75 16              jne         00409B82
  00409B6C: EB B9              jmp         00409B27
  00409B6E: 66
  00409B6F: 90                 nop
  00409B70: 01 C3              add         ebx,eax
  00409B72: 80 7C 04 2A 00     cmp         byte ptr [esp+eax+2Ah],0
  00409B77: 74 2D              je          00409BA6
  00409B79: 83 C6 02           add         esi,2
  00409B7C: 39 5C 24 58        cmp         dword ptr [esp+58h],ebx
  00409B80: 76 A5              jbe         00409B27
  00409B82: 8B 44 24 1C        mov         eax,dword ptr [esp+1Ch]
  00409B86: 89 7C 24 0C        mov         dword ptr [esp+0Ch],edi
  00409B8A: 89 44 24 08        mov         dword ptr [esp+8],eax
  00409B8E: 0F B7 06           movzx       eax,word ptr [esi]
  00409B91: 89 2C 24           mov         dword ptr [esp],ebp
  00409B94: 89 44 24 04        mov         dword ptr [esp+4],eax
  00409B98: E8 13 FE FF FF     call        004099B0
  00409B9D: 85 C0              test        eax,eax
  00409B9F: 7F CF              jg          00409B70
  00409BA1: E9 7C FF FF FF     jmp         00409B22
  00409BA6: 83 EB 01           sub         ebx,1
  00409BA9: E9 79 FF FF FF     jmp         00409B27
  00409BAE: 90                 nop
  00409BAF: 90                 nop
  00409BB0: 53                 push        ebx
  00409BB1: 31 DB              xor         ebx,ebx
  00409BB3: 83 EC 18           sub         esp,18h
  00409BB6: 8B 4C 24 20        mov         ecx,dword ptr [esp+20h]
  00409BBA: 83 F9 13           cmp         ecx,13h
  00409BBD: 7E 11              jle         00409BD0
  00409BBF: B8 04 00 00 00     mov         eax,4
  00409BC4: 01 C0              add         eax,eax
  00409BC6: 83 C3 01           add         ebx,1
  00409BC9: 8D 50 0F           lea         edx,[eax+0Fh]
  00409BCC: 39 CA              cmp         edx,ecx
  00409BCE: 7C F4              jl          00409BC4
  00409BD0: 89 1C 24           mov         dword ptr [esp],ebx
  00409BD3: E8 E8 25 00 00     call        0040C1C0
  00409BD8: 89 18              mov         dword ptr [eax],ebx
  00409BDA: 83 C4 18           add         esp,18h
  00409BDD: 83 C0 04           add         eax,4
  00409BE0: 5B                 pop         ebx
  00409BE1: C3                 ret
  00409BE2: 8D B4 26 00 00 00  lea         esi,[esi]
            00
  00409BE9: 8D BC 27 00 00 00  lea         edi,[edi]
            00
  00409BF0: 56                 push        esi
  00409BF1: 53                 push        ebx
  00409BF2: 83 EC 14           sub         esp,14h
  00409BF5: 8B 44 24 28        mov         eax,dword ptr [esp+28h]
  00409BF9: 8B 5C 24 20        mov         ebx,dword ptr [esp+20h]
  00409BFD: 8B 74 24 24        mov         esi,dword ptr [esp+24h]
  00409C01: 89 04 24           mov         dword ptr [esp],eax
  00409C04: E8 A7 FF FF FF     call        00409BB0
  00409C09: 0F B6 13           movzx       edx,byte ptr [ebx]
  00409C0C: 8D 4B 01           lea         ecx,[ebx+1]
  00409C0F: 84 D2              test        dl,dl
  00409C11: 88 10              mov         byte ptr [eax],dl
  00409C13: 89 C2              mov         edx,eax
  00409C15: 74 0F              je          00409C26
  00409C17: 0F B6 19           movzx       ebx,byte ptr [ecx]
  00409C1A: 83 C2 01           add         edx,1
  00409C1D: 83 C1 01           add         ecx,1
  00409C20: 84 DB              test        bl,bl
  00409C22: 88 1A              mov         byte ptr [edx],bl
  00409C24: 75 F1              jne         00409C17
  00409C26: 85 F6              test        esi,esi
  00409C28: 74 02              je          00409C2C
  00409C2A: 89 16              mov         dword ptr [esi],edx
  00409C2C: 83 C4 14           add         esp,14h
  00409C2F: 5B                 pop         ebx
  00409C30: 5E                 pop         esi
  00409C31: C3                 ret
  00409C32: 8D B4 26 00 00 00  lea         esi,[esi]
            00
  00409C39: 8D BC 27 00 00 00  lea         edi,[edi]
            00
  00409C40: 8B 44 24 04        mov         eax,dword ptr [esp+4]
  00409C44: BA 01 00 00 00     mov         edx,1
  00409C49: 8B 48 FC           mov         ecx,dword ptr [eax-4]
  00409C4C: D3 E2              shl         edx,cl
  00409C4E: 89 08              mov         dword ptr [eax],ecx
  00409C50: 89 50 04           mov         dword ptr [eax+4],edx
  00409C53: 83 E8 04           sub         eax,4
  00409C56: 89 44 24 04        mov         dword ptr [esp+4],eax
  00409C5A: E9 21 26 00 00     jmp         0040C280
  00409C5F: 90                 nop
  00409C60: 55                 push        ebp
  00409C61: 31 C0              xor         eax,eax
  00409C63: 57                 push        edi
  00409C64: 56                 push        esi
  00409C65: 53                 push        ebx
  00409C66: 83 EC 5C           sub         esp,5Ch
  00409C69: 8B 6C 24 74        mov         ebp,dword ptr [esp+74h]
  00409C6D: 8B 4C 24 70        mov         ecx,dword ptr [esp+70h]
  00409C71: 8B 55 10           mov         edx,dword ptr [ebp+10h]
  00409C74: 3B 51 10           cmp         edx,dword ptr [ecx+10h]
  00409C77: 0F 8F E6 01 00 00  jg          00409E63
  00409C7D: 8D 4A FF           lea         ecx,[edx-1]
  00409C80: 83 C2 03           add         edx,3
  00409C83: 8D 5D 14           lea         ebx,[ebp+14h]
  00409C86: 89 4C 24 40        mov         dword ptr [esp+40h],ecx
  00409C8A: 8B 4C 24 70        mov         ecx,dword ptr [esp+70h]
  00409C8E: 89 5C 24 1C        mov         dword ptr [esp+1Ch],ebx
  00409C92: 8D 5C 95 04        lea         ebx,[ebp+edx*4+4]
  00409C96: 89 5C 24 3C        mov         dword ptr [esp+3Ch],ebx
  00409C9A: 8B 5C 24 70        mov         ebx,dword ptr [esp+70h]
  00409C9E: 83 C1 14           add         ecx,14h
  00409CA1: 89 4C 24 44        mov         dword ptr [esp+44h],ecx
  00409CA5: 8B 4C 95 04        mov         ecx,dword ptr [ebp+edx*4+4]
  00409CA9: 8B 44 93 04        mov         eax,dword ptr [ebx+edx*4+4]
  00409CAD: 31 D2              xor         edx,edx
  00409CAF: 83 C1 01           add         ecx,1
  00409CB2: F7 F1              div         eax,ecx
  00409CB4: 85 C0              test        eax,eax
  00409CB6: 89 44 24 38        mov         dword ptr [esp+38h],eax
  00409CBA: 89 44 24 48        mov         dword ptr [esp+48h],eax
  00409CBE: 0F 84 EE 00 00 00  je          00409DB2
  00409CC4: 89 6C 24 4C        mov         dword ptr [esp+4Ch],ebp
  00409CC8: 8B 7C 24 1C        mov         edi,dword ptr [esp+1Ch]
  00409CCC: 8B 74 24 44        mov         esi,dword ptr [esp+44h]
  00409CD0: 8B 6C 24 3C        mov         ebp,dword ptr [esp+3Ch]
  00409CD4: C7 44 24 30 00 00  mov         dword ptr [esp+30h],0
            00 00
  00409CDC: C7 44 24 34 00 00  mov         dword ptr [esp+34h],0
            00 00
  00409CE4: C7 44 24 20 00 00  mov         dword ptr [esp+20h],0
            00 00
  00409CEC: C7 44 24 24 00 00  mov         dword ptr [esp+24h],0
            00 00
  00409CF4: 8B 44 24 38        mov         eax,dword ptr [esp+38h]
  00409CF8: F7 27              mul         eax,dword ptr [edi]
  00409CFA: 8B 4C 24 30        mov         ecx,dword ptr [esp+30h]
  00409CFE: 8B 5C 24 34        mov         ebx,dword ptr [esp+34h]
  00409D02: C7 44 24 2C 00 00  mov         dword ptr [esp+2Ch],0
            00 00
  00409D0A: 89 44 24 10        mov         dword ptr [esp+10h],eax
  00409D0E: 01 4C 24 10        add         dword ptr [esp+10h],ecx
  00409D12: 8B 44 24 10        mov         eax,dword ptr [esp+10h]
  00409D16: 89 54 24 14        mov         dword ptr [esp+14h],edx
  00409D1A: 11 5C 24 14        adc         dword ptr [esp+14h],ebx
  00409D1E: 83 C7 04           add         edi,4
  00409D21: 8B 5C 24 14        mov         ebx,dword ptr [esp+14h]
  00409D25: 89 44 24 28        mov         dword ptr [esp+28h],eax
  00409D29: 89 D9              mov         ecx,ebx
  00409D2B: 31 DB              xor         ebx,ebx
  00409D2D: 89 4C 24 30        mov         dword ptr [esp+30h],ecx
  00409D31: 8B 0E              mov         ecx,dword ptr [esi]
  00409D33: 89 5C 24 34        mov         dword ptr [esp+34h],ebx
  00409D37: 31 DB              xor         ebx,ebx
  00409D39: 2B 4C 24 28        sub         ecx,dword ptr [esp+28h]
  00409D3D: 1B 5C 24 2C        sbb         ebx,dword ptr [esp+2Ch]
  00409D41: 2B 4C 24 20        sub         ecx,dword ptr [esp+20h]
  00409D45: 1B 5C 24 24        sbb         ebx,dword ptr [esp+24h]
  00409D49: C7 44 24 24 00 00  mov         dword ptr [esp+24h],0
            00 00
  00409D51: 89 0E              mov         dword ptr [esi],ecx
  00409D53: 83 C6 04           add         esi,4
  00409D56: 89 D8              mov         eax,ebx
  00409D58: 83 E0 01           and         eax,1
  00409D5B: 39 FD              cmp         ebp,edi
  00409D5D: 89 44 24 20        mov         dword ptr [esp+20h],eax
  00409D61: 73 91              jae         00409CF4
  00409D63: 8B 44 24 40        mov         eax,dword ptr [esp+40h]
  00409D67: 8B 4C 24 70        mov         ecx,dword ptr [esp+70h]
  00409D6B: 8B 6C 24 4C        mov         ebp,dword ptr [esp+4Ch]
  00409D6F: 83 C0 04           add         eax,4
  00409D72: 8B 7C 81 04        mov         edi,dword ptr [ecx+eax*4+4]
  00409D76: 85 FF              test        edi,edi
  00409D78: 75 38              jne         00409DB2
  00409D7A: 8D 04 81           lea         eax,[ecx+eax*4]
  00409D7D: 39 44 24 44        cmp         dword ptr [esp+44h],eax
  00409D81: 73 24              jae         00409DA7
  00409D83: 8B 30              mov         esi,dword ptr [eax]
  00409D85: 85 F6              test        esi,esi
  00409D87: 75 1E              jne         00409DA7
  00409D89: 8B 4C 24 44        mov         ecx,dword ptr [esp+44h]
  00409D8D: 8B 54 24 40        mov         edx,dword ptr [esp+40h]
  00409D91: EB 06              jmp         00409D99
  00409D93: 8B 18              mov         ebx,dword ptr [eax]
  00409D95: 85 DB              test        ebx,ebx
  00409D97: 75 0A              jne         00409DA3
  00409D99: 83 E8 04           sub         eax,4
  00409D9C: 83 EA 01           sub         edx,1
  00409D9F: 39 C1              cmp         ecx,eax
  00409DA1: 72 F0              jb          00409D93
  00409DA3: 89 54 24 40        mov         dword ptr [esp+40h],edx
  00409DA7: 8B 4C 24 40        mov         ecx,dword ptr [esp+40h]
  00409DAB: 8B 5C 24 70        mov         ebx,dword ptr [esp+70h]
  00409DAF: 89 4B 10           mov         dword ptr [ebx+10h],ecx
  00409DB2: 8B 5C 24 70        mov         ebx,dword ptr [esp+70h]
  00409DB6: 89 6C 24 04        mov         dword ptr [esp+4],ebp
  00409DBA: 89 1C 24           mov         dword ptr [esp],ebx
  00409DBD: E8 BE 29 00 00     call        0040C780
  00409DC2: 85 C0              test        eax,eax
  00409DC4: 0F 88 95 00 00 00  js          00409E5F
  00409DCA: 8B 44 24 38        mov         eax,dword ptr [esp+38h]
  00409DCE: 31 F6              xor         esi,esi
  00409DD0: 31 FF              xor         edi,edi
  00409DD2: 8B 6C 24 44        mov         ebp,dword ptr [esp+44h]
  00409DD6: 83 C0 01           add         eax,1
  00409DD9: 89 44 24 48        mov         dword ptr [esp+48h],eax
  00409DDD: 8D 76 00           lea         esi,[esi]
  00409DE0: 8B 54 24 1C        mov         edx,dword ptr [esp+1Ch]
  00409DE4: 31 DB              xor         ebx,ebx
  00409DE6: 8B 45 00           mov         eax,dword ptr [ebp]
  00409DE9: 8B 0A              mov         ecx,dword ptr [edx]
  00409DEB: 83 C2 04           add         edx,4
  00409DEE: 89 54 24 1C        mov         dword ptr [esp+1Ch],edx
  00409DF2: 31 D2              xor         edx,edx
  00409DF4: 29 C8              sub         eax,ecx
  00409DF6: 8B 4C 24 1C        mov         ecx,dword ptr [esp+1Ch]
  00409DFA: 19 DA              sbb         edx,ebx
  00409DFC: 29 F0              sub         eax,esi
  00409DFE: 19 FA              sbb         edx,edi
  00409E00: 31 FF              xor         edi,edi
  00409E02: 89 D6              mov         esi,edx
  00409E04: 83 E6 01           and         esi,1
  00409E07: 89 45 00           mov         dword ptr [ebp],eax
  00409E0A: 83 C5 04           add         ebp,4
  00409E0D: 39 4C 24 3C        cmp         dword ptr [esp+3Ch],ecx
  00409E11: 73 CD              jae         00409DE0
  00409E13: 8B 44 24 40        mov         eax,dword ptr [esp+40h]
  00409E17: 8B 5C 24 70        mov         ebx,dword ptr [esp+70h]
  00409E1B: 83 C0 04           add         eax,4
  00409E1E: 8B 7C 83 04        mov         edi,dword ptr [ebx+eax*4+4]
  00409E22: 85 FF              test        edi,edi
  00409E24: 75 39              jne         00409E5F
  00409E26: 8D 04 83           lea         eax,[ebx+eax*4]
  00409E29: 39 44 24 44        cmp         dword ptr [esp+44h],eax
  00409E2D: 73 25              jae         00409E54
  00409E2F: 8B 30              mov         esi,dword ptr [eax]
  00409E31: 85 F6              test        esi,esi
  00409E33: 75 1F              jne         00409E54
  00409E35: 8B 4C 24 44        mov         ecx,dword ptr [esp+44h]
  00409E39: 8B 54 24 40        mov         edx,dword ptr [esp+40h]
  00409E3D: EB 07              jmp         00409E46
  00409E3F: 90                 nop
  00409E40: 8B 18              mov         ebx,dword ptr [eax]
  00409E42: 85 DB              test        ebx,ebx
  00409E44: 75 0A              jne         00409E50
  00409E46: 83 E8 04           sub         eax,4
  00409E49: 83 EA 01           sub         edx,1
  00409E4C: 39 C1              cmp         ecx,eax
  00409E4E: 72 F0              jb          00409E40
  00409E50: 89 54 24 40        mov         dword ptr [esp+40h],edx
  00409E54: 8B 5C 24 40        mov         ebx,dword ptr [esp+40h]
  00409E58: 8B 4C 24 70        mov         ecx,dword ptr [esp+70h]
  00409E5C: 89 59 10           mov         dword ptr [ecx+10h],ebx
  00409E5F: 8B 44 24 48        mov         eax,dword ptr [esp+48h]
  00409E63: 83 C4 5C           add         esp,5Ch
  00409E66: 5B                 pop         ebx
  00409E67: 5E                 pop         esi
  00409E68: 5F                 pop         edi
  00409E69: 5D                 pop         ebp
  00409E6A: C3                 ret
  00409E6B: 90                 nop
  00409E6C: 90                 nop
  00409E6D: 90                 nop
  00409E6E: 90                 nop
  00409E6F: 90                 nop
  00409E70: 53                 push        ebx
  00409E71: 83 EC 18           sub         esp,18h
  00409E74: A1 68 F0 40 00     mov         eax,[0040F068]
  00409E79: 8B 1D D0 13 41 00  mov         ebx,dword ptr ds:[4113D0h]
  00409E7F: 85 C0              test        eax,eax
  00409E81: 75 10              jne         00409E93
  00409E83: 8B 44 24 20        mov         eax,dword ptr [esp+20h]
  00409E87: A3 D0 13 41 00     mov         [004113D0],eax
  00409E8C: 83 C4 18           add         esp,18h
  00409E8F: 89 D8              mov         eax,ebx
  00409E91: 5B                 pop         ebx
  00409E92: C3                 ret
  00409E93: E8 F8 83 FF FF     call        00402290
  00409E98: C7 44 24 04 C8 06  mov         dword ptr [esp+4],4106C8h
            41 00
  00409EA0: 89 04 24           mov         dword ptr [esp],eax
  00409EA3: FF 15 E0 21 41 00  call        dword ptr ds:[4121E0h]
  00409EA9: 83 EC 08           sub         esp,8
  00409EAC: 85 C0              test        eax,eax
  00409EAE: 74 20              je          00409ED0
  00409EB0: 8B 54 24 20        mov         edx,dword ptr [esp+20h]
  00409EB4: 89 14 24           mov         dword ptr [esp],edx
  00409EB7: FF D0              call        eax
  00409EB9: C7 05 68 F0 40 00  mov         dword ptr ds:[40F068h],1
            01 00 00 00
  00409EC3: A3 D0 13 41 00     mov         [004113D0],eax
  00409EC8: 83 C4 18           add         esp,18h
  00409ECB: 89 D8              mov         eax,ebx
  00409ECD: 5B                 pop         ebx
  00409ECE: C3                 ret
  00409ECF: 90                 nop
  00409ED0: C7 05 68 F0 40 00  mov         dword ptr ds:[40F068h],0
            00 00 00 00
  00409EDA: EB A7              jmp         00409E83
  00409EDC: 8D 74 26 00        lea         esi,[esi]
  00409EE0: 8B 15 6C F0 40 00  mov         edx,dword ptr ds:[40F06Ch]
  00409EE6: 85 D2              test        edx,edx
  00409EE8: 75 06              jne         00409EF0
  00409EEA: A1 D0 13 41 00     mov         eax,[004113D0]
  00409EEF: C3                 ret
  00409EF0: 83 EC 1C           sub         esp,1Ch
  00409EF3: E8 98 83 FF FF     call        00402290
  00409EF8: C7 44 24 04 DB 06  mov         dword ptr [esp+4],4106DBh
            41 00
  00409F00: 89 04 24           mov         dword ptr [esp],eax
  00409F03: FF 15 E0 21 41 00  call        dword ptr ds:[4121E0h]
  00409F09: 83 EC 08           sub         esp,8
  00409F0C: 85 C0              test        eax,eax
  00409F0E: 74 16              je          00409F26
  00409F10: FF D0              call        eax
  00409F12: BA 01 00 00 00     mov         edx,1
  00409F17: 89 15 6C F0 40 00  mov         dword ptr ds:[40F06Ch],edx
  00409F1D: A3 D0 13 41 00     mov         [004113D0],eax
  00409F22: 83 C4 1C           add         esp,1Ch
  00409F25: C3                 ret
  00409F26: 31 D2              xor         edx,edx
  00409F28: A1 D0 13 41 00     mov         eax,[004113D0]
  00409F2D: 89 15 6C F0 40 00  mov         dword ptr ds:[40F06Ch],edx
  00409F33: 83 C4 1C           add         esp,1Ch
  00409F36: C3                 ret
  00409F37: 90                 nop
  00409F38: 90                 nop
  00409F39: 90                 nop
  00409F3A: 90                 nop
  00409F3B: 90                 nop
  00409F3C: 90                 nop
  00409F3D: 90                 nop
  00409F3E: 90                 nop
  00409F3F: 90                 nop
  00409F40: A1 D4 13 41 00     mov         eax,[004113D4]
  00409F45: 8B 00              mov         eax,dword ptr [eax]
  00409F47: C3                 ret
  00409F48: 90                 nop
  00409F49: 8D B4 26 00 00 00  lea         esi,[esi]
            00
  00409F50: 83 EC 1C           sub         esp,1Ch
  00409F53: C7 44 24 04 00 00  mov         dword ptr [esp+4],0
            00 00
  00409F5B: C7 04 24 02 00 00  mov         dword ptr [esp],2
            00
  00409F62: E8 B9 40 00 00     call        0040E020
  00409F67: C7 44 24 04 2E 00  mov         dword ptr [esp+4],2Eh
            00 00
  00409F6F: 89 04 24           mov         dword ptr [esp],eax
  00409F72: E8 B1 40 00 00     call        0040E028
  00409F77: 89 C2              mov         edx,eax
  00409F79: 31 C0              xor         eax,eax
  00409F7B: 85 D2              test        edx,edx
  00409F7D: 74 0B              je          00409F8A
  00409F7F: 83 C2 01           add         edx,1
  00409F82: 89 14 24           mov         dword ptr [esp],edx
  00409F85: E8 A6 40 00 00     call        0040E030
  00409F8A: 83 C4 1C           add         esp,1Ch
  00409F8D: C3                 ret
  00409F8E: 66
  00409F8F: 90                 nop
  00409F90: 83 EC 1C           sub         esp,1Ch
  00409F93: 89 5C 24 14        mov         dword ptr [esp+14h],ebx
  00409F97: 89 74 24 18        mov         dword ptr [esp+18h],esi
  00409F9B: E8 F0 82 FF FF     call        00402290
  00409FA0: 85 C0              test        eax,eax
  00409FA2: 89 C3              mov         ebx,eax
  00409FA4: 74 2C              je          00409FD2
  00409FA6: 8B 35 E0 21 41 00  mov         esi,dword ptr ds:[4121E0h]
  00409FAC: C7 44 24 04 F0 06  mov         dword ptr [esp+4],4106F0h
            41 00
  00409FB4: 89 04 24           mov         dword ptr [esp],eax
  00409FB7: FF D6              call        esi
  00409FB9: 83 EC 08           sub         esp,8
  00409FBC: 85 C0              test        eax,eax
  00409FBE: A3 70 F0 40 00     mov         [0040F070],eax
  00409FC3: 74 2B              je          00409FF0
  00409FC5: 8B 5C 24 14        mov         ebx,dword ptr [esp+14h]
  00409FC9: 8B 74 24 18        mov         esi,dword ptr [esp+18h]
  00409FCD: 83 C4 1C           add         esp,1Ch
  00409FD0: FF E0              jmp         eax
  00409FD2: 8B 5C 24 14        mov         ebx,dword ptr [esp+14h]
  00409FD6: 8B 74 24 18        mov         esi,dword ptr [esp+18h]
  00409FDA: C7 05 70 F0 40 00  mov         dword ptr ds:[40F070h],409F50h
            50 9F 40 00
  00409FE4: 83 C4 1C           add         esp,1Ch
  00409FE7: E9 64 FF FF FF     jmp         00409F50
  00409FEC: 8D 74 26 00        lea         esi,[esi]
  00409FF0: C7 44 24 04 04 07  mov         dword ptr [esp+4],410704h
            41 00
  00409FF8: 89 1C 24           mov         dword ptr [esp],ebx
  00409FFB: FF D6              call        esi
  00409FFD: 83 EC 08           sub         esp,8
  0040A000: 85 C0              test        eax,eax
  0040A002: A3 D4 13 41 00     mov         [004113D4],eax
  0040A007: 74 C9              je          00409FD2
  0040A009: 8B 00              mov         eax,dword ptr [eax]
  0040A00B: C7 05 70 F0 40 00  mov         dword ptr ds:[40F070h],409F40h
            40 9F 40 00
  0040A015: 8B 5C 24 14        mov         ebx,dword ptr [esp+14h]
  0040A019: 8B 74 24 18        mov         esi,dword ptr [esp+18h]
  0040A01D: 83 C4 1C           add         esp,1Ch
  0040A020: C3                 ret
  0040A021: 90                 nop
  0040A022: 90                 nop
  0040A023: 90                 nop
  0040A024: 90                 nop
  0040A025: 90                 nop
  0040A026: 90                 nop
  0040A027: 90                 nop
  0040A028: 90                 nop
  0040A029: 90                 nop
  0040A02A: 90                 nop
  0040A02B: 90                 nop
  0040A02C: 90                 nop
  0040A02D: 90                 nop
  0040A02E: 90                 nop
  0040A02F: 90                 nop
  0040A030: 57                 push        edi
  0040A031: 56                 push        esi
  0040A032: 53                 push        ebx
  0040A033: 83 EC 10           sub         esp,10h
  0040A036: 8B 5C 24 20        mov         ebx,dword ptr [esp+20h]
  0040A03A: 8B 73 10           mov         esi,dword ptr [ebx+10h]
  0040A03D: 8D 53 14           lea         edx,[ebx+14h]
  0040A040: 8D 7E 04           lea         edi,[esi+4]
  0040A043: 8D 44 BB 04        lea         eax,[ebx+edi*4+4]
  0040A047: 8B 0A              mov         ecx,dword ptr [edx]
  0040A049: 83 F9 FF           cmp         ecx,0FFFFFFFFh
  0040A04C: 75 29              jne         0040A077
  0040A04E: C7 02 00 00 00 00  mov         dword ptr [edx],0
  0040A054: 83 C2 04           add         edx,4
  0040A057: 39 D0              cmp         eax,edx
  0040A059: 77 EC              ja          0040A047
  0040A05B: 3B 73 08           cmp         esi,dword ptr [ebx+8]
  0040A05E: 7D 25              jge         0040A085
  0040A060: 83 C6 01           add         esi,1
  0040A063: 89 D8              mov         eax,ebx
  0040A065: C7 44 BB 04 01 00  mov         dword ptr [ebx+edi*4+4],1
            00 00
  0040A06D: 89 73 10           mov         dword ptr [ebx+10h],esi
  0040A070: 83 C4 10           add         esp,10h
  0040A073: 5B                 pop         ebx
  0040A074: 5E                 pop         esi
  0040A075: 5F                 pop         edi
  0040A076: C3                 ret
  0040A077: 83 C1 01           add         ecx,1
  0040A07A: 89 D8              mov         eax,ebx
  0040A07C: 89 0A              mov         dword ptr [edx],ecx
  0040A07E: 83 C4 10           add         esp,10h
  0040A081: 5B                 pop         ebx
  0040A082: 5E                 pop         esi
  0040A083: 5F                 pop         edi
  0040A084: C3                 ret
  0040A085: 8B 43 04           mov         eax,dword ptr [ebx+4]
  0040A088: 83 C0 01           add         eax,1
  0040A08B: 89 04 24           mov         dword ptr [esp],eax
  0040A08E: E8 2D 21 00 00     call        0040C1C0
  0040A093: 8B 53 10           mov         edx,dword ptr [ebx+10h]
  0040A096: 8D 0C 95 08 00 00  lea         ecx,[edx*4+8]
            00
  0040A09D: 8D 53 0C           lea         edx,[ebx+0Ch]
  0040A0A0: 89 C7              mov         edi,eax
  0040A0A2: 8D 40 0C           lea         eax,[eax+0Ch]
  0040A0A5: 89 4C 24 08        mov         dword ptr [esp+8],ecx
  0040A0A9: 89 54 24 04        mov         dword ptr [esp+4],edx
  0040A0AD: 89 04 24           mov         dword ptr [esp],eax
  0040A0B0: E8 6B 3E 00 00     call        0040DF20
  0040A0B5: 89 1C 24           mov         dword ptr [esp],ebx
  0040A0B8: 89 FB              mov         ebx,edi
  0040A0BA: E8 C1 21 00 00     call        0040C280
  0040A0BF: 8B 77 10           mov         esi,dword ptr [edi+10h]
  0040A0C2: 8D 7E 04           lea         edi,[esi+4]
  0040A0C5: EB 99              jmp         0040A060
  0040A0C7: 89 F6              mov         esi,esi
  0040A0C9: 8D BC 27 00 00 00  lea         edi,[edi]
            00
  0040A0D0: 55                 push        ebp
  0040A0D1: 89 D5              mov         ebp,edx
  0040A0D3: 57                 push        edi
  0040A0D4: 56                 push        esi
  0040A0D5: 53                 push        ebx
  0040A0D6: 83 EC 4C           sub         esp,4Ch
  0040A0D9: 89 4C 24 28        mov         dword ptr [esp+28h],ecx
  0040A0DD: 8D 4C 24 38        lea         ecx,[esp+38h]
  0040A0E1: 89 4C 24 0C        mov         dword ptr [esp+0Ch],ecx
  0040A0E5: 8D 4C 24 3C        lea         ecx,[esp+3Ch]
  0040A0E9: 89 4C 24 08        mov         dword ptr [esp+8],ecx
  0040A0ED: DD 00              fld         qword ptr [eax]
  0040A0EF: DD 1C 24           fstp        qword ptr [esp]
  0040A0F2: E8 89 29 00 00     call        0040CA80
  0040A0F7: 8B 74 24 38        mov         esi,dword ptr [esp+38h]
  0040A0FB: 8B 7D 00           mov         edi,dword ptr [ebp]
  0040A0FE: 29 FE              sub         esi,edi
  0040A100: 89 C3              mov         ebx,eax
  0040A102: 8B 44 24 3C        mov         eax,dword ptr [esp+3Ch]
  0040A106: 89 74 24 38        mov         dword ptr [esp+38h],esi
  0040A10A: 01 F0              add         eax,esi
  0040A10C: 85 F6              test        esi,esi
  0040A10E: 89 44 24 3C        mov         dword ptr [esp+3Ch],eax
  0040A112: 0F 8E 9D 01 00 00  jle         0040A2B5
  0040A118: 83 FF 35           cmp         edi,35h
  0040A11B: 0F 84 B1 01 00 00  je          0040A2D2
  0040A121: 83 7C 24 68 01     cmp         dword ptr [esp+68h],1
  0040A126: 74 48              je          0040A170
  0040A128: 83 7C 24 68 02     cmp         dword ptr [esp+68h],2
  0040A12D: 74 23              je          0040A152
  0040A12F: 89 F1              mov         ecx,esi
  0040A131: 83 E9 01           sub         ecx,1
  0040A134: 75 2A              jne         0040A160
  0040A136: 8B 54 24 64        mov         edx,dword ptr [esp+64h]
  0040A13A: 31 C0              xor         eax,eax
  0040A13C: 85 D2              test        edx,edx
  0040A13E: 0F 84 27 01 00 00  je          0040A26B
  0040A144: F6 43 14 02        test        byte ptr [ebx+14h],2
  0040A148: C7 44 24 2C 00 00  mov         dword ptr [esp+2Ch],0
            00 00
  0040A150: 74 26              je          0040A178
  0040A152: C7 44 24 2C 01 00  mov         dword ptr [esp+2Ch],1
            00 00
  0040A15A: EB 1C              jmp         0040A178
  0040A15C: 8D 74 26 00        lea         esi,[esi]
  0040A160: 89 C8              mov         eax,ecx
  0040A162: C1 F8 05           sar         eax,5
  0040A165: 8B 44 83 14        mov         eax,dword ptr [ebx+eax*4+14h]
  0040A169: D3 E8              shr         eax,cl
  0040A16B: A8 01              test        al,1
  0040A16D: 75 E3              jne         0040A152
  0040A16F: 90                 nop
  0040A170: C7 44 24 2C 00 00  mov         dword ptr [esp+2Ch],0
            00 00
  0040A178: 89 74 24 04        mov         dword ptr [esp+4],esi
  0040A17C: 89 1C 24           mov         dword ptr [esp],ebx
  0040A17F: E8 BC 2D 00 00     call        .text
  0040A184: 89 1C 24           mov         dword ptr [esp],ebx
  0040A187: 83 F8 01           cmp         eax,1
  0040A18A: 89 44 24 24        mov         dword ptr [esp+24h],eax
  0040A18E: 8B 44 24 38        mov         eax,dword ptr [esp+38h]
  0040A192: 19 F6              sbb         esi,esi
  0040A194: F7 D6              not         esi
  0040A196: 83 E6 10           and         esi,10h
  0040A199: 89 44 24 04        mov         dword ptr [esp+4],eax
  0040A19D: E8 1E 2A 00 00     call        0040CBC0
  0040A1A2: 8B 44 24 2C        mov         eax,dword ptr [esp+2Ch]
  0040A1A6: 85 C0              test        eax,eax
  0040A1A8: 0F 85 42 01 00 00  jne         0040A2F0
  0040A1AE: 8B 44 24 3C        mov         eax,dword ptr [esp+3Ch]
  0040A1B2: 8B 4D 04           mov         ecx,dword ptr [ebp+4]
  0040A1B5: 39 C1              cmp         ecx,eax
  0040A1B7: 0F 8E C6 00 00 00  jle         0040A283
  0040A1BD: 89 CA              mov         edx,ecx
  0040A1BF: 29 C2              sub         edx,eax
  0040A1C1: 39 D7              cmp         edi,edx
  0040A1C3: 89 4C 24 3C        mov         dword ptr [esp+3Ch],ecx
  0040A1C7: 7C 68              jl          0040A231
  0040A1C9: 8B 45 10           mov         eax,dword ptr [ebp+10h]
  0040A1CC: 85 C0              test        eax,eax
  0040A1CE: 75 61              jne         0040A231
  0040A1D0: 8B 44 24 24        mov         eax,dword ptr [esp+24h]
  0040A1D4: 8D 4A FF           lea         ecx,[edx-1]
  0040A1D7: 85 C0              test        eax,eax
  0040A1D9: 0F 94 C0           sete        al
  0040A1DC: 85 C9              test        ecx,ecx
  0040A1DE: 0F 8F 9D 01 00 00  jg          0040A381
  0040A1E4: 84 C0              test        al,al
  0040A1E6: 74 0A              je          0040A1F2
  0040A1E8: 8B 6C 24 64        mov         ebp,dword ptr [esp+64h]
  0040A1EC: 31 C0              xor         eax,eax
  0040A1EE: 85 ED              test        ebp,ebp
  0040A1F0: 74 79              je          0040A26B
  0040A1F2: BD 01 00 00 00     mov         ebp,1
  0040A1F7: D3 E5              shl         ebp,cl
  0040A1F9: C1 F9 05           sar         ecx,5
  0040A1FC: 23 6C 8B 14        and         ebp,dword ptr [ebx+ecx*4+14h]
  0040A200: 89 54 24 04        mov         dword ptr [esp+4],edx
  0040A204: 89 1C 24           mov         dword ptr [esp],ebx
  0040A207: E8 B4 29 00 00     call        0040CBC0
  0040A20C: 8B 54 24 6C        mov         edx,dword ptr [esp+6Ch]
  0040A210: 85 ED              test        ebp,ebp
  0040A212: C7 02 02 00 00 00  mov         dword ptr [edx],2
  0040A218: 0F 85 95 01 00 00  jne         0040A3B3
  0040A21E: 8B 54 24 24        mov         edx,dword ptr [esp+24h]
  0040A222: 8B 44 24 3C        mov         eax,dword ptr [esp+3Ch]
  0040A226: 85 D2              test        edx,edx
  0040A228: 74 1C              je          0040A246
  0040A22A: BE 50 00 00 00     mov         esi,50h
  0040A22F: EB 15              jmp         0040A246
  0040A231: 8B 54 24 6C        mov         edx,dword ptr [esp+6Ch]
  0040A235: 89 C8              mov         eax,ecx
  0040A237: 31 F6              xor         esi,esi
  0040A239: C7 43 10 00 00 00  mov         dword ptr [ebx+10h],0
            00
  0040A240: C7 02 50 00 00 00  mov         dword ptr [edx],50h
  0040A246: 8B 54 24 28        mov         edx,dword ptr [esp+28h]
  0040A24A: 89 02              mov         dword ptr [edx],eax
  0040A24C: 8B 44 24 60        mov         eax,dword ptr [esp+60h]
  0040A250: 89 5C 24 08        mov         dword ptr [esp+8],ebx
  0040A254: 89 7C 24 04        mov         dword ptr [esp+4],edi
  0040A258: 89 04 24           mov         dword ptr [esp],eax
  0040A25B: E8 70 2C 00 00     call        0040CED0
  0040A260: 8B 54 24 6C        mov         edx,dword ptr [esp+6Ch]
  0040A264: B8 01 00 00 00     mov         eax,1
  0040A269: 09 32              or          dword ptr [edx],esi
  0040A26B: 89 1C 24           mov         dword ptr [esp],ebx
  0040A26E: 89 44 24 20        mov         dword ptr [esp+20h],eax
  0040A272: E8 09 20 00 00     call        0040C280
  0040A277: 8B 44 24 20        mov         eax,dword ptr [esp+20h]
  0040A27B: 83 C4 4C           add         esp,4Ch
  0040A27E: 5B                 pop         ebx
  0040A27F: 5E                 pop         esi
  0040A280: 5F                 pop         edi
  0040A281: 5D                 pop         ebp
  0040A282: C3                 ret
  0040A283: 8B 55 08           mov         edx,dword ptr [ebp+8]
  0040A286: 39 C2              cmp         edx,eax
  0040A288: 7D BC              jge         0040A246
  0040A28A: 83 C2 01           add         edx,1
  0040A28D: 31 F6              xor         esi,esi
  0040A28F: 89 54 24 3C        mov         dword ptr [esp+3Ch],edx
  0040A293: 8B 54 24 6C        mov         edx,dword ptr [esp+6Ch]
  0040A297: C7 02 A3 00 00 00  mov         dword ptr [edx],0A3h
  0040A29D: E8 26 3D 00 00     call        0040DFC8
  0040A2A2: C7 00 22 00 00 00  mov         dword ptr [eax],22h
  0040A2A8: 8B 44 24 3C        mov         eax,dword ptr [esp+3Ch]
  0040A2AC: C7 43 10 00 00 00  mov         dword ptr [ebx+10h],0
            00
  0040A2B3: EB 91              jmp         0040A246
  0040A2B5: 8B 54 24 64        mov         edx,dword ptr [esp+64h]
  0040A2B9: 85 D2              test        edx,edx
  0040A2BB: 74 2A              je          0040A2E7
  0040A2BD: 85 F6              test        esi,esi
  0040A2BF: 0F 85 8B 00 00 00  jne         0040A350
  0040A2C5: C7 44 24 24 00 00  mov         dword ptr [esp+24h],0
            00 00
  0040A2CD: E9 E0 FE FF FF     jmp         0040A1B2
  0040A2D2: 8B 4C 24 64        mov         ecx,dword ptr [esp+64h]
  0040A2D6: 31 C0              xor         eax,eax
  0040A2D8: 85 C9              test        ecx,ecx
  0040A2DA: 74 8F              je          0040A26B
  0040A2DC: 83 7D 0C 01        cmp         dword ptr [ebp+0Ch],1
  0040A2E0: 75 89              jne         0040A26B
  0040A2E2: E9 89 FE FF FF     jmp         0040A170
  0040A2E7: 31 C0              xor         eax,eax
  0040A2E9: EB 80              jmp         0040A26B
  0040A2EB: 90                 nop
  0040A2EC: 8D 74 26 00        lea         esi,[esi]
  0040A2F0: 89 1C 24           mov         dword ptr [esp],ebx
  0040A2F3: E8 38 FD FF FF     call        0040A030
  0040A2F8: 89 F9              mov         ecx,edi
  0040A2FA: 83 E1 1F           and         ecx,1Fh
  0040A2FD: 89 C3              mov         ebx,eax
  0040A2FF: 74 09              je          0040A30A
  0040A301: B8 20 00 00 00     mov         eax,20h
  0040A306: 29 C8              sub         eax,ecx
  0040A308: 89 C1              mov         ecx,eax
  0040A30A: 8B 43 10           mov         eax,dword ptr [ebx+10h]
  0040A30D: 0F BD 44 83 10     bsr         eax,dword ptr [ebx+eax*4+10h]
  0040A312: 83 F0 1F           xor         eax,1Fh
  0040A315: 39 C1              cmp         ecx,eax
  0040A317: 74 5A              je          0040A373
  0040A319: 8B 44 24 24        mov         eax,dword ptr [esp+24h]
  0040A31D: 85 C0              test        eax,eax
  0040A31F: 75 0A              jne         0040A32B
  0040A321: 8B 43 14           mov         eax,dword ptr [ebx+14h]
  0040A324: 83 E0 01           and         eax,1
  0040A327: 89 44 24 24        mov         dword ptr [esp+24h],eax
  0040A32B: C7 44 24 04 01 00  mov         dword ptr [esp+4],1
            00 00
  0040A333: BE 20 00 00 00     mov         esi,20h
  0040A338: 89 1C 24           mov         dword ptr [esp],ebx
  0040A33B: E8 80 28 00 00     call        0040CBC0
  0040A340: 8B 44 24 3C        mov         eax,dword ptr [esp+3Ch]
  0040A344: 83 C0 01           add         eax,1
  0040A347: 89 44 24 3C        mov         dword ptr [esp+3Ch],eax
  0040A34B: E9 62 FE FF FF     jmp         0040A1B2
  0040A350: F7 DE              neg         esi
  0040A352: 89 74 24 04        mov         dword ptr [esp+4],esi
  0040A356: 31 F6              xor         esi,esi
  0040A358: 89 1C 24           mov         dword ptr [esp],ebx
  0040A35B: E8 10 23 00 00     call        0040C670
  0040A360: C7 44 24 24 00 00  mov         dword ptr [esp+24h],0
            00 00
  0040A368: 89 C3              mov         ebx,eax
  0040A36A: 8B 44 24 3C        mov         eax,dword ptr [esp+3Ch]
  0040A36E: E9 3F FE FF FF     jmp         0040A1B2
  0040A373: 8B 44 24 3C        mov         eax,dword ptr [esp+3Ch]
  0040A377: BE 20 00 00 00     mov         esi,20h
  0040A37C: E9 31 FE FF FF     jmp         0040A1B2
  0040A381: 84 C0              test        al,al
  0040A383: 0F 84 69 FE FF FF  je          0040A1F2
  0040A389: 89 4C 24 04        mov         dword ptr [esp+4],ecx
  0040A38D: 89 1C 24           mov         dword ptr [esp],ebx
  0040A390: 89 54 24 20        mov         dword ptr [esp+20h],edx
  0040A394: 89 4C 24 1C        mov         dword ptr [esp+1Ch],ecx
  0040A398: E8 A3 2B 00 00     call        .text
  0040A39D: 8B 4C 24 1C        mov         ecx,dword ptr [esp+1Ch]
  0040A3A1: 8B 54 24 20        mov         edx,dword ptr [esp+20h]
  0040A3A5: 85 C0              test        eax,eax
  0040A3A7: 89 44 24 24        mov         dword ptr [esp+24h],eax
  0040A3AB: 0F 94 C0           sete        al
  0040A3AE: E9 31 FE FF FF     jmp         0040A1E4
  0040A3B3: 89 1C 24           mov         dword ptr [esp],ebx
  0040A3B6: BE 60 00 00 00     mov         esi,60h
  0040A3BB: E8 70 FC FF FF     call        0040A030
  0040A3C0: 89 C3              mov         ebx,eax
  0040A3C2: 8B 44 24 3C        mov         eax,dword ptr [esp+3Ch]
  0040A3C6: E9 7B FE FF FF     jmp         0040A246
  0040A3CB: 90                 nop
  0040A3CC: 8D 74 26 00        lea         esi,[esi]
  0040A3D0: 8B 54 24 04        mov         edx,dword ptr [esp+4]
  0040A3D4: 8B 4A 10           mov         ecx,dword ptr [edx+10h]
  0040A3D7: 8D 42 14           lea         eax,[edx+14h]
  0040A3DA: 8D 4C 8A 14        lea         ecx,[edx+ecx*4+14h]
  0040A3DE: EB 0D              jmp         0040A3ED
  0040A3E0: C7 00 FF FF FF FF  mov         dword ptr [eax],0FFFFFFFFh
  0040A3E6: 83 C0 04           add         eax,4
  0040A3E9: 39 C1              cmp         ecx,eax
  0040A3EB: 76 13              jbe         0040A400
  0040A3ED: 8B 10              mov         edx,dword ptr [eax]
  0040A3EF: 85 D2              test        edx,edx
  0040A3F1: 74 ED              je          0040A3E0
  0040A3F3: 83 EA 01           sub         edx,1
  0040A3F6: 89 10              mov         dword ptr [eax],edx
  0040A3F8: C3                 ret
  0040A3F9: 8D B4 26 00 00 00  lea         esi,[esi]
            00
  0040A400: F3 C3              rep ret
  0040A402: 8D B4 26 00 00 00  lea         esi,[esi]
            00
  0040A409: 8D BC 27 00 00 00  lea         edi,[edi]
            00
  0040A410: 56                 push        esi
  0040A411: 53                 push        ebx
  0040A412: 83 EC 14           sub         esp,14h
  0040A415: 8B 74 24 24        mov         esi,dword ptr [esp+24h]
  0040A419: 8B 44 24 20        mov         eax,dword ptr [esp+20h]
  0040A41D: 8D 5E 1F           lea         ebx,[esi+1Fh]
  0040A420: C1 FB 05           sar         ebx,5
  0040A423: 3B 58 04           cmp         ebx,dword ptr [eax+4]
  0040A426: 7F 49              jg          0040A471
  0040A428: 89 F1              mov         ecx,esi
  0040A42A: 83 E6 1F           and         esi,1Fh
  0040A42D: C1 F9 05           sar         ecx,5
  0040A430: 83 FE 01           cmp         esi,1
  0040A433: 83 D9 FF           sbb         ecx,0FFFFFFFFh
  0040A436: 89 48 10           mov         dword ptr [eax+10h],ecx
  0040A439: 8D 50 14           lea         edx,[eax+14h]
  0040A43C: 8D 4C 88 14        lea         ecx,[eax+ecx*4+14h]
  0040A440: 39 CA              cmp         edx,ecx
  0040A442: 73 19              jae         0040A45D
  0040A444: C7 02 FF FF FF FF  mov         dword ptr [edx],0FFFFFFFFh
  0040A44A: 83 C2 04           add         edx,4
  0040A44D: 39 D1              cmp         ecx,edx
  0040A44F: 77 F3              ja          0040A444
  0040A451: 29 C1              sub         ecx,eax
  0040A453: 8D 51 EB           lea         edx,[ecx-15h]
  0040A456: C1 EA 02           shr         edx,2
  0040A459: 8D 54 90 18        lea         edx,[eax+edx*4+18h]
  0040A45D: 85 F6              test        esi,esi
  0040A45F: 74 0A              je          0040A46B
  0040A461: B9 20 00 00 00     mov         ecx,20h
  0040A466: 29 F1              sub         ecx,esi
  0040A468: D3 6A FC           shr         dword ptr [edx-4],cl
  0040A46B: 83 C4 14           add         esp,14h
  0040A46E: 5B                 pop         ebx
  0040A46F: 5E                 pop         esi
  0040A470: C3                 ret
  0040A471: 89 04 24           mov         dword ptr [esp],eax
  0040A474: E8 07 1E 00 00     call        0040C280
  0040A479: 89 1C 24           mov         dword ptr [esp],ebx
  0040A47C: E8 3F 1D 00 00     call        0040C1C0
  0040A481: EB A5              jmp         0040A428
  0040A483: 8D B6 00 00 00 00  lea         esi,[esi]
  0040A489: 8D BC 27 00 00 00  lea         edi,[edi]
            00
  0040A490: 55                 push        ebp
  0040A491: 57                 push        edi
  0040A492: 56                 push        esi
  0040A493: 53                 push        ebx
  0040A494: 81 EC DC 00 00 00  sub         esp,0DCh
  0040A49A: E8 19 3B 00 00     call        0040DFB8
  0040A49F: 8B 00              mov         eax,dword ptr [eax]
  0040A4A1: 89 04 24           mov         dword ptr [esp],eax
  0040A4A4: 89 44 24 34        mov         dword ptr [esp+34h],eax
  0040A4A8: E8 83 3A 00 00     call        0040DF30
  0040A4AD: 8B 9C 24 F8 00 00  mov         ebx,dword ptr [esp+0F8h]
            00
  0040A4B4: 8B AC 24 F0 00 00  mov         ebp,dword ptr [esp+0F0h]
            00
  0040A4BB: C7 84 24 B4 00 00  mov         dword ptr [esp+0B4h],0
            00 00 00 00 00
  0040A4C6: C7 84 24 C4 00 00  mov         dword ptr [esp+0C4h],0
            00 00 00 00 00
  0040A4D1: 8B 1B              mov         ebx,dword ptr [ebx]
  0040A4D3: 89 AC 24 C0 00 00  mov         dword ptr [esp+0C0h],ebp
            00
  0040A4DA: D9 EE              fldz
  0040A4DC: DD 9C 24 C8 00 00  fstp        qword ptr [esp+0C8h]
            00
  0040A4E3: 89 44 24 38        mov         dword ptr [esp+38h],eax
  0040A4E7: 89 E8              mov         eax,ebp
  0040A4E9: 89 5C 24 48        mov         dword ptr [esp+48h],ebx
  0040A4ED: 0F BE 10           movsx       edx,byte ptr [eax]
  0040A4F0: 80 FA 2D           cmp         dl,2Dh
  0040A4F3: 0F 86 98 00 00 00  jbe         0040A591
  0040A4F9: 89 C3              mov         ebx,eax
  0040A4FB: C7 44 24 5C 00 00  mov         dword ptr [esp+5Ch],0
            00 00
  0040A503: 80 FA 30           cmp         dl,30h
  0040A506: C7 44 24 4C 00 00  mov         dword ptr [esp+4Ch],0
            00 00
  0040A50E: 0F 84 EC 02 00 00  je          0040A800
  0040A514: 8B AC 24 F8 00 00  mov         ebp,dword ptr [esp+0F8h]
            00
  0040A51B: 83 FA 2F           cmp         edx,2Fh
  0040A51E: 89 D7              mov         edi,edx
  0040A520: 8B 6D 10           mov         ebp,dword ptr [ebp+10h]
  0040A523: 89 AC 24 88 00 00  mov         dword ptr [esp+88h],ebp
            00
  0040A52A: 0F 8E EF 13 00 00  jle         0040B91F
  0040A530: 83 FA 39           cmp         edx,39h
  0040A533: 0F 8F E6 13 00 00  jg          0040B91F
  0040A539: 8D 6B 01           lea         ebp,[ebx+1]
  0040A53C: 31 F6              xor         esi,esi
  0040A53E: 89 5C 24 44        mov         dword ptr [esp+44h],ebx
  0040A542: 31 C0              xor         eax,eax
  0040A544: 31 DB              xor         ebx,ebx
  0040A546: C7 44 24 40 00 00  mov         dword ptr [esp+40h],0
            00 00
  0040A54E: EB 2E              jmp         0040A57E
  0040A550: 8D 0C B6           lea         ecx,[esi+esi*4]
  0040A553: 8D 74 4A D0        lea         esi,[edx+ecx*2-30h]
  0040A557: 89 AC 24 C0 00 00  mov         dword ptr [esp+0C0h],ebp
            00
  0040A55E: 0F BE 55 00        movsx       edx,byte ptr [ebp]
  0040A562: 83 C0 01           add         eax,1
  0040A565: 89 E9              mov         ecx,ebp
  0040A567: 83 FA 2F           cmp         edx,2Fh
  0040A56A: 89 D7              mov         edi,edx
  0040A56C: 0F 8E FE 00 00 00  jle         0040A670
  0040A572: 83 C5 01           add         ebp,1
  0040A575: 83 FA 39           cmp         edx,39h
  0040A578: 0F 8F F2 00 00 00  jg          0040A670
  0040A57E: 83 F8 08           cmp         eax,8
  0040A581: 7E CD              jle         0040A550
  0040A583: 83 F8 0F           cmp         eax,0Fh
  0040A586: 7F CF              jg          0040A557
  0040A588: 8D 0C 9B           lea         ecx,[ebx+ebx*4]
  0040A58B: 8D 5C 4A D0        lea         ebx,[edx+ecx*2-30h]
  0040A58F: EB C6              jmp         0040A557
  0040A591: 0F B6 CA           movzx       ecx,dl
  0040A594: FF 24 8D 2C 07 41  jmp         dword ptr [ecx*4+41072Ch]
            00
  0040A59B: 90                 nop
  0040A59C: 8D 74 26 00        lea         esi,[esi]
  0040A5A0: C7 44 24 5C 01 00  mov         dword ptr [esp+5Ch],1
            00 00
  0040A5A8: 8D 58 01           lea         ebx,[eax+1]
  0040A5AB: 89 9C 24 C0 00 00  mov         dword ptr [esp+0C0h],ebx
            00
  0040A5B2: 0F BE 50 01        movsx       edx,byte ptr [eax+1]
  0040A5B6: 84 D2              test        dl,dl
  0040A5B8: 0F 85 45 FF FF FF  jne         0040A503
  0040A5BE: 8B 94 24 F0 00 00  mov         edx,dword ptr [esp+0F0h]
            00
  0040A5C5: 31 C9              xor         ecx,ecx
  0040A5C7: C7 84 24 B4 00 00  mov         dword ptr [esp+0B4h],6
            00 06 00 00 00
  0040A5D2: C7 44 24 5C 00 00  mov         dword ptr [esp+5Ch],0
            00 00
  0040A5DA: 89 94 24 C0 00 00  mov         dword ptr [esp+0C0h],edx
            00
  0040A5E1: 8B B4 24 F4 00 00  mov         esi,dword ptr [esp+0F4h]
            00
  0040A5E8: 85 F6              test        esi,esi
  0040A5EA: 74 10              je          0040A5FC
  0040A5EC: 8B 84 24 C0 00 00  mov         eax,dword ptr [esp+0C0h]
            00
  0040A5F3: 8B 9C 24 F4 00 00  mov         ebx,dword ptr [esp+0F4h]
            00
  0040A5FA: 89 03              mov         dword ptr [ebx],eax
  0040A5FC: 8B 5C 24 5C        mov         ebx,dword ptr [esp+5Ch]
  0040A600: 85 DB              test        ebx,ebx
  0040A602: 75 40              jne         0040A644
  0040A604: 85 C9              test        ecx,ecx
  0040A606: 74 2A              je          0040A632
  0040A608: 8B 84 24 00 01 00  mov         eax,dword ptr [esp+100h]
            00
  0040A60F: 8B 6C 24 48        mov         ebp,dword ptr [esp+48h]
  0040A613: 89 4C 24 08        mov         dword ptr [esp+8],ecx
  0040A617: 89 04 24           mov         dword ptr [esp],eax
  0040A61A: 89 6C 24 04        mov         dword ptr [esp+4],ebp
  0040A61E: E8 AD 28 00 00     call        0040CED0
  0040A623: 8B 84 24 C4 00 00  mov         eax,dword ptr [esp+0C4h]
            00
  0040A62A: 89 04 24           mov         dword ptr [esp],eax
  0040A62D: E8 4E 1C 00 00     call        0040C280
  0040A632: 8B 84 24 B4 00 00  mov         eax,dword ptr [esp+0B4h]
            00
  0040A639: 81 C4 DC 00 00 00  add         esp,0DCh
  0040A63F: 5B                 pop         ebx
  0040A640: 5E                 pop         esi
  0040A641: 5F                 pop         edi
  0040A642: 5D                 pop         ebp
  0040A643: C3                 ret
  0040A644: 83 8C 24 B4 00 00  or          dword ptr [esp+0B4h],8
            00 08
  0040A64C: EB B6              jmp         0040A604
  0040A64E: 66
  0040A64F: 90                 nop
  0040A650: C7 44 24 5C 00 00  mov         dword ptr [esp+5Ch],0
            00 00
  0040A658: E9 4B FF FF FF     jmp         0040A5A8
  0040A65D: 8D 76 00           lea         esi,[esi]
  0040A660: 83 C0 01           add         eax,1
  0040A663: 89 84 24 C0 00 00  mov         dword ptr [esp+0C0h],eax
            00
  0040A66A: E9 7E FE FF FF     jmp         0040A4ED
  0040A66F: 90                 nop
  0040A670: 89 5C 24 40        mov         dword ptr [esp+40h],ebx
  0040A674: 8B 5C 24 44        mov         ebx,dword ptr [esp+44h]
  0040A678: 8B 6C 24 34        mov         ebp,dword ptr [esp+34h]
  0040A67C: 0F BE 6D 00        movsx       ebp,byte ptr [ebp]
  0040A680: 39 D5              cmp         ebp,edx
  0040A682: 89 6C 24 44        mov         dword ptr [esp+44h],ebp
  0040A686: 0F 84 45 09 00 00  je          0040AFD1
  0040A68C: 89 5C 24 50        mov         dword ptr [esp+50h],ebx
  0040A690: 89 C5              mov         ebp,eax
  0040A692: 31 DB              xor         ebx,ebx
  0040A694: C7 44 24 34 00 00  mov         dword ptr [esp+34h],0
            00 00
  0040A69C: C7 44 24 44 00 00  mov         dword ptr [esp+44h],0
            00 00
  0040A6A4: 89 FA              mov         edx,edi
  0040A6A6: 83 E2 DF           and         edx,0FFFFFFDFh
  0040A6A9: 83 FA 45           cmp         edx,45h
  0040A6AC: 0F 84 14 01 00 00  je          0040A7C6
  0040A6B2: 31 D2              xor         edx,edx
  0040A6B4: 85 ED              test        ebp,ebp
  0040A6B6: 0F 85 AC 01 00 00  jne         0040A868
  0040A6BC: 8B 4C 24 34        mov         ecx,dword ptr [esp+34h]
  0040A6C0: 0B 4C 24 4C        or          ecx,dword ptr [esp+4Ch]
  0040A6C4: 0F 85 F0 00 00 00  jne         0040A7BA
  0040A6CA: 8B 5C 24 44        mov         ebx,dword ptr [esp+44h]
  0040A6CE: 85 DB              test        ebx,ebx
  0040A6D0: 0F 85 6D 01 00 00  jne         0040A843
  0040A6D6: 83 FF 4E           cmp         edi,4Eh
  0040A6D9: 0F 84 51 15 00 00  je          0040BC30
  0040A6DF: 90                 nop
  0040A6E0: 0F 8F 38 15 00 00  jg          0040BC1E
  0040A6E6: 83 FF 49           cmp         edi,49h
  0040A6E9: 0F 85 54 01 00 00  jne         0040A843
  0040A6EF: 8D 9C 24 C0 00 00  lea         ebx,[esp+0C0h]
            00
  0040A6F6: C7 44 24 04 20 07  mov         dword ptr [esp+4],410720h
            41 00
  0040A6FE: 89 1C 24           mov         dword ptr [esp],ebx
  0040A701: E8 7A 27 00 00     call        0040CE80
  0040A706: 85 C0              test        eax,eax
  0040A708: 0F 84 35 01 00 00  je          0040A843
  0040A70E: C7 44 24 04 23 07  mov         dword ptr [esp+4],410723h
            41 00
  0040A716: 89 1C 24           mov         dword ptr [esp],ebx
  0040A719: 83 AC 24 C0 00 00  sub         dword ptr [esp+0C0h],1
            00 01
  0040A721: E8 5A 27 00 00     call        0040CE80
  0040A726: 85 C0              test        eax,eax
  0040A728: 75 08              jne         0040A732
  0040A72A: 83 84 24 C0 00 00  add         dword ptr [esp+0C0h],1
            00 01
  0040A732: 8B 9C 24 F8 00 00  mov         ebx,dword ptr [esp+0F8h]
            00
  0040A739: C7 84 24 B4 00 00  mov         dword ptr [esp+0B4h],3
            00 03 00 00 00
  0040A744: C7 44 24 4C 00 00  mov         dword ptr [esp+4Ch],0
            00 00
  0040A74C: 8B 43 08           mov         eax,dword ptr [ebx+8]
  0040A74F: 83 C0 01           add         eax,1
  0040A752: 8B AC 24 FC 00 00  mov         ebp,dword ptr [esp+0FCh]
            00
  0040A759: 89 45 00           mov         dword ptr [ebp],eax
  0040A75C: 8B 8C 24 C4 00 00  mov         ecx,dword ptr [esp+0C4h]
            00
  0040A763: 8B 44 24 4C        mov         eax,dword ptr [esp+4Ch]
  0040A767: 85 C0              test        eax,eax
  0040A769: 0F 84 72 FE FF FF  je          0040A5E1
  0040A76F: 8B AC 24 88 00 00  mov         ebp,dword ptr [esp+88h]
            00
  0040A776: 85 ED              test        ebp,ebp
  0040A778: 0F 85 E4 0F 00 00  jne         0040B762
  0040A77E: 8B 94 24 B4 00 00  mov         edx,dword ptr [esp+0B4h]
            00
  0040A785: 31 C0              xor         eax,eax
  0040A787: 8B 79 10           mov         edi,dword ptr [ecx+10h]
  0040A78A: 83 E2 F8           and         edx,0FFFFFFF8h
  0040A78D: 85 FF              test        edi,edi
  0040A78F: 0F 9F C0           setg        al
  0040A792: 01 C0              add         eax,eax
  0040A794: 09 D0              or          eax,edx
  0040A796: A8 30              test        al,30h
  0040A798: 89 84 24 B4 00 00  mov         dword ptr [esp+0B4h],eax
            00
  0040A79F: 0F 84 3C FE FF FF  je          0040A5E1
  0040A7A5: 83 C8 40           or          eax,40h
  0040A7A8: 89 84 24 B4 00 00  mov         dword ptr [esp+0B4h],eax
            00
  0040A7AF: E8 14 38 00 00     call        0040DFC8
  0040A7B4: C7 00 22 00 00 00  mov         dword ptr [eax],22h
  0040A7BA: 8B 8C 24 C4 00 00  mov         ecx,dword ptr [esp+0C4h]
            00
  0040A7C1: E9 1B FE FF FF     jmp         0040A5E1
  0040A7C6: 8B 54 24 34        mov         edx,dword ptr [esp+34h]
  0040A7CA: 09 EA              or          edx,ebp
  0040A7CC: 0B 54 24 4C        or          edx,dword ptr [esp+4Ch]
  0040A7D0: 0F 85 DB 08 00 00  jne         0040B0B1
  0040A7D6: 8B 8C 24 F0 00 00  mov         ecx,dword ptr [esp+0F0h]
            00
  0040A7DD: C7 84 24 B4 00 00  mov         dword ptr [esp+0B4h],6
            00 06 00 00 00
  0040A7E8: 89 8C 24 C0 00 00  mov         dword ptr [esp+0C0h],ecx
            00
  0040A7EF: 8B 8C 24 C4 00 00  mov         ecx,dword ptr [esp+0C4h]
            00
  0040A7F6: E9 E6 FD FF FF     jmp         0040A5E1
  0040A7FB: 90                 nop
  0040A7FC: 8D 74 26 00        lea         esi,[esi]
  0040A800: 0F B6 43 01        movzx       eax,byte ptr [ebx+1]
  0040A804: 3C 58              cmp         al,58h
  0040A806: 0F 84 A9 10 00 00  je          0040B8B5
  0040A80C: 3C 78              cmp         al,78h
  0040A80E: 0F 84 A1 10 00 00  je          0040B8B5
  0040A814: 8D 43 01           lea         eax,[ebx+1]
  0040A817: 89 84 24 C0 00 00  mov         dword ptr [esp+0C0h],eax
            00
  0040A81E: 89 C3              mov         ebx,eax
  0040A820: 8D 40 01           lea         eax,[eax+1]
  0040A823: 0F BE 50 FF        movsx       edx,byte ptr [eax-1]
  0040A827: 80 FA 30           cmp         dl,30h
  0040A82A: 74 EB              je          0040A817
  0040A82C: 31 C9              xor         ecx,ecx
  0040A82E: 84 D2              test        dl,dl
  0040A830: 0F 84 AB FD FF FF  je          0040A5E1
  0040A836: C7 44 24 4C 01 00  mov         dword ptr [esp+4Ch],1
            00 00
  0040A83E: E9 D1 FC FF FF     jmp         0040A514
  0040A843: 8B 94 24 F0 00 00  mov         edx,dword ptr [esp+0F0h]
            00
  0040A84A: C7 84 24 B4 00 00  mov         dword ptr [esp+0B4h],6
            00 06 00 00 00
  0040A855: 8B 8C 24 C4 00 00  mov         ecx,dword ptr [esp+0C4h]
            00
  0040A85C: 89 94 24 C0 00 00  mov         dword ptr [esp+0C0h],edx
            00
  0040A863: E9 79 FD FF FF     jmp         0040A5E1
  0040A868: 29 DA              sub         edx,ebx
  0040A86A: 8B 9C 24 F8 00 00  mov         ebx,dword ptr [esp+0F8h]
            00
  0040A871: 89 54 24 58        mov         dword ptr [esp+58h],edx
  0040A875: C7 84 24 B4 00 00  mov         dword ptr [esp+0B4h],1
            00 01 00 00 00
  0040A880: 8B 53 0C           mov         edx,dword ptr [ebx+0Ch]
  0040A883: 83 E2 03           and         edx,3
  0040A886: 89 D3              mov         ebx,edx
  0040A888: 2B 5C 24 5C        sub         ebx,dword ptr [esp+5Ch]
  0040A88C: 83 FA 02           cmp         edx,2
  0040A88F: 89 5C 24 78        mov         dword ptr [esp+78h],ebx
  0040A893: 74 1B              je          0040A8B0
  0040A895: 8B 5C 24 5C        mov         ebx,dword ptr [esp+5Ch]
  0040A899: 83 C3 01           add         ebx,1
  0040A89C: 83 FA 03           cmp         edx,3
  0040A89F: 89 5C 24 78        mov         dword ptr [esp+78h],ebx
  0040A8A3: 74 0B              je          0040A8B0
  0040A8A5: 31 DB              xor         ebx,ebx
  0040A8A7: 85 D2              test        edx,edx
  0040A8A9: 0F 94 C3           sete        bl
  0040A8AC: 89 5C 24 78        mov         dword ptr [esp+78h],ebx
  0040A8B0: 85 C0              test        eax,eax
  0040A8B2: BB 10 00 00 00     mov         ebx,10h
  0040A8B7: 0F 44 C5           cmove       eax,ebp
  0040A8BA: 83 FD 10           cmp         ebp,10h
  0040A8BD: 0F 4E DD           cmovle      ebx,ebp
  0040A8C0: 31 D2              xor         edx,edx
  0040A8C2: 89 B4 24 90 00 00  mov         dword ptr [esp+90h],esi
            00
  0040A8C9: 83 FB 09           cmp         ebx,9
  0040A8CC: 89 94 24 94 00 00  mov         dword ptr [esp+94h],edx
            00
  0040A8D3: DF AC 24 90 00 00  fild        qword ptr [esp+90h]
            00
  0040A8DA: 89 44 24 34        mov         dword ptr [esp+34h],eax
  0040A8DE: DD 94 24 C8 00 00  fst         qword ptr [esp+0C8h]
            00
  0040A8E5: 7E 2D              jle         0040A914
  0040A8E7: DC 0C DD 38 08 41  fmul        qword ptr [ebx*8+410838h]
            00
  0040A8EE: 31 D2              xor         edx,edx
  0040A8F0: 8B 44 24 40        mov         eax,dword ptr [esp+40h]
  0040A8F4: 89 94 24 94 00 00  mov         dword ptr [esp+94h],edx
            00
  0040A8FB: 89 84 24 90 00 00  mov         dword ptr [esp+90h],eax
            00
  0040A902: DF AC 24 90 00 00  fild        qword ptr [esp+90h]
            00
  0040A909: DE C1              faddp       st(1),st
  0040A90B: DD 9C 24 C8 00 00  fstp        qword ptr [esp+0C8h]
            00
  0040A912: EB 02              jmp         0040A916
  0040A914: DD D8              fstp        st(0)
  0040A916: 83 FD 0F           cmp         ebp,0Fh
  0040A919: 7F 0B              jg          0040A926
  0040A91B: 83 7C 24 48 35     cmp         dword ptr [esp+48h],35h
  0040A920: 0F 8E FD 05 00 00  jle         0040AF23
  0040A926: 8B 44 24 58        mov         eax,dword ptr [esp+58h]
  0040A92A: 89 EA              mov         edx,ebp
  0040A92C: 29 DA              sub         edx,ebx
  0040A92E: 01 D0              add         eax,edx
  0040A930: 83 F8 00           cmp         eax,0
  0040A933: 0F 8E 23 10 00 00  jle         0040B95C
  0040A939: 89 C2              mov         edx,eax
  0040A93B: 83 E2 0F           and         edx,0Fh
  0040A93E: 74 15              je          0040A955
  0040A940: DD 84 24 C8 00 00  fld         qword ptr [esp+0C8h]
            00
  0040A947: DC 0C D5 80 08 41  fmul        qword ptr [edx*8+410880h]
            00
  0040A94E: DD 9C 24 C8 00 00  fstp        qword ptr [esp+0C8h]
            00
  0040A955: 83 E0 F0           and         eax,0FFFFFFF0h
  0040A958: 0F 85 92 08 00 00  jne         0040B1F0
  0040A95E: DD 84 24 C8 00 00  fld         qword ptr [esp+0C8h]
            00
  0040A965: 31 DB              xor         ebx,ebx
  0040A967: 8D 84 24 B8 00 00  lea         eax,[esp+0B8h]
            00
  0040A96E: 89 44 24 0C        mov         dword ptr [esp+0Ch],eax
  0040A972: 8D 84 24 BC 00 00  lea         eax,[esp+0BCh]
            00
  0040A979: 89 44 24 08        mov         dword ptr [esp+8],eax
  0040A97D: DD 1C 24           fstp        qword ptr [esp]
  0040A980: E8 FB 20 00 00     call        0040CA80
  0040A985: 8B 8C 24 BC 00 00  mov         ecx,dword ptr [esp+0BCh]
            00
  0040A98C: 8B 94 24 B8 00 00  mov         edx,dword ptr [esp+0B8h]
            00
  0040A993: 01 D9              add         ecx,ebx
  0040A995: 89 D3              mov         ebx,edx
  0040A997: 2B 5C 24 48        sub         ebx,dword ptr [esp+48h]
  0040A99B: 89 84 24 C4 00 00  mov         dword ptr [esp+0C4h],eax
            00
  0040A9A2: 89 8C 24 BC 00 00  mov         dword ptr [esp+0BCh],ecx
            00
  0040A9A9: 85 DB              test        ebx,ebx
  0040A9AB: 7E 29              jle         0040A9D6
  0040A9AD: 89 04 24           mov         dword ptr [esp],eax
  0040A9B0: 89 5C 24 04        mov         dword ptr [esp+4],ebx
  0040A9B4: E8 07 22 00 00     call        0040CBC0
  0040A9B9: 8B 8C 24 BC 00 00  mov         ecx,dword ptr [esp+0BCh]
            00
  0040A9C0: 8B 44 24 48        mov         eax,dword ptr [esp+48h]
  0040A9C4: 01 D9              add         ecx,ebx
  0040A9C6: 89 84 24 B8 00 00  mov         dword ptr [esp+0B8h],eax
            00
  0040A9CD: 89 C2              mov         edx,eax
  0040A9CF: 89 8C 24 BC 00 00  mov         dword ptr [esp+0BCh],ecx
            00
  0040A9D6: 8B 84 24 F8 00 00  mov         eax,dword ptr [esp+0F8h]
            00
  0040A9DD: 8D 1C 11           lea         ebx,[ecx+edx]
  0040A9E0: 2B 5C 24 48        sub         ebx,dword ptr [esp+48h]
  0040A9E4: 8B 40 08           mov         eax,dword ptr [eax+8]
  0040A9E7: 89 44 24 28        mov         dword ptr [esp+28h],eax
  0040A9EB: 83 C0 01           add         eax,1
  0040A9EE: 39 C3              cmp         ebx,eax
  0040A9F0: 0F 8F 67 0E 00 00  jg          0040B85D
  0040A9F6: 8B 84 24 F8 00 00  mov         eax,dword ptr [esp+0F8h]
            00
  0040A9FD: 8B 40 04           mov         eax,dword ptr [eax+4]
  0040AA00: 39 C3              cmp         ebx,eax
  0040AA02: 89 44 24 60        mov         dword ptr [esp+60h],eax
  0040AA06: 0F 8D A1 10 00 00  jge         0040BAAD
  0040AA0C: 89 CF              mov         edi,ecx
  0040AA0E: 29 C7              sub         edi,eax
  0040AA10: 83 FF 00           cmp         edi,0
  0040AA13: 0F 8E F6 08 00 00  jle         0040B30F
  0040AA19: 8B 84 24 C4 00 00  mov         eax,dword ptr [esp+0C4h]
            00
  0040AA20: 89 7C 24 04        mov         dword ptr [esp+4],edi
  0040AA24: 89 04 24           mov         dword ptr [esp],eax
  0040AA27: E8 44 1C 00 00     call        0040C670
  0040AA2C: 01 BC 24 B8 00 00  add         dword ptr [esp+0B8h],edi
            00
  0040AA33: 89 84 24 C4 00 00  mov         dword ptr [esp+0C4h],eax
            00
  0040AA3A: 8B 8C 24 88 00 00  mov         ecx,dword ptr [esp+88h]
            00
  0040AA41: 8B 54 24 60        mov         edx,dword ptr [esp+60h]
  0040AA45: 85 C9              test        ecx,ecx
  0040AA47: 89 94 24 BC 00 00  mov         dword ptr [esp+0BCh],edx
            00
  0040AA4E: 0F 84 FF 0F 00 00  je          0040BA53
  0040AA54: 83 C3 01           add         ebx,1
  0040AA57: 39 DA              cmp         edx,ebx
  0040AA59: 0F 8F 2F 11 00 00  jg          0040BB8E
  0040AA5F: 89 94 24 8C 00 00  mov         dword ptr [esp+8Ch],edx
            00
  0040AA66: C7 44 24 4C 01 00  mov         dword ptr [esp+4Ch],1
            00 00
  0040AA6E: 8B 5C 24 34        mov         ebx,dword ptr [esp+34h]
  0040AA72: 8B 44 24 38        mov         eax,dword ptr [esp+38h]
  0040AA76: 89 6C 24 08        mov         dword ptr [esp+8],ebp
  0040AA7A: 8B 6C 24 50        mov         ebp,dword ptr [esp+50h]
  0040AA7E: 89 74 24 0C        mov         dword ptr [esp+0Ch],esi
  0040AA82: 89 5C 24 04        mov         dword ptr [esp+4],ebx
  0040AA86: 89 44 24 10        mov         dword ptr [esp+10h],eax
  0040AA8A: 89 2C 24           mov         dword ptr [esp],ebp
  0040AA8D: E8 7E 22 00 00     call        0040CD10
  0040AA92: 8B 5C 24 48        mov         ebx,dword ptr [esp+48h]
  0040AA96: 8B 54 24 58        mov         edx,dword ptr [esp+58h]
  0040AA9A: C7 44 24 44 00 00  mov         dword ptr [esp+44h],0
            00 00
  0040AAA2: C7 44 24 38 00 00  mov         dword ptr [esp+38h],0
            00 00
  0040AAAA: 83 C3 01           add         ebx,1
  0040AAAD: 89 5C 24 7C        mov         dword ptr [esp+7Ch],ebx
  0040AAB1: 8B 5C 24 78        mov         ebx,dword ptr [esp+78h]
  0040AAB5: 89 44 24 64        mov         dword ptr [esp+64h],eax
  0040AAB9: 8B 44 24 58        mov         eax,dword ptr [esp+58h]
  0040AABD: F7 D8              neg         eax
  0040AABF: 85 D2              test        edx,edx
  0040AAC1: 0F 49 44 24 44     cmovns      eax,dword ptr [esp+44h]
  0040AAC6: 83 E3 01           and         ebx,1
  0040AAC9: 89 9C 24 84 00 00  mov         dword ptr [esp+84h],ebx
            00
  0040AAD0: 89 44 24 44        mov         dword ptr [esp+44h],eax
  0040AAD4: 8B 44 24 64        mov         eax,dword ptr [esp+64h]
  0040AAD8: 83 C0 0C           add         eax,0Ch
  0040AADB: 89 84 24 80 00 00  mov         dword ptr [esp+80h],eax
            00
  0040AAE2: E9 DB 01 00 00     jmp         0040ACC2
  0040AAE7: 8B 74 24 78        mov         esi,dword ptr [esp+78h]
  0040AAEB: 85 F6              test        esi,esi
  0040AAED: 0F 84 BE 03 00 00  je          0040AEB1
  0040AAF3: 8B 94 24 84 00 00  mov         edx,dword ptr [esp+84h]
            00
  0040AAFA: 31 DA              xor         edx,ebx
  0040AAFC: 89 54 24 70        mov         dword ptr [esp+70h],edx
  0040AB00: 0F 84 87 12 00 00  je          0040BD8D
  0040AB06: 85 DB              test        ebx,ebx
  0040AB08: 0F 84 B2 0A 00 00  je          0040B5C0
  0040AB0E: D9 E8              fld1
  0040AB10: 31 F6              xor         esi,esi
  0040AB12: DD 54 24 50        fst         qword ptr [esp+50h]
  0040AB16: C7 84 24 B4 00 00  mov         dword ptr [esp+0B4h],21h
            00 21 00 00 00
  0040AB21: DD 5C 24 38        fstp        qword ptr [esp+38h]
  0040AB25: C7 44 24 68 00 00  mov         dword ptr [esp+68h],0
            00 00
  0040AB2D: C7 44 24 6C 20 00  mov         dword ptr [esp+6Ch],20h
            00 00
  0040AB35: 8B 84 24 B8 00 00  mov         eax,dword ptr [esp+0B8h]
            00
  0040AB3C: 8B 94 24 BC 00 00  mov         edx,dword ptr [esp+0BCh]
            00
  0040AB43: 8B 7C 24 4C        mov         edi,dword ptr [esp+4Ch]
  0040AB47: 01 C2              add         edx,eax
  0040AB49: 85 FF              test        edi,edi
  0040AB4B: 89 54 24 74        mov         dword ptr [esp+74h],edx
  0040AB4F: 75 0A              jne         0040AB5B
  0040AB51: 39 44 24 48        cmp         dword ptr [esp+48h],eax
  0040AB55: 0F 8F 35 0C 00 00  jg          0040B790
  0040AB5B: 8D 84 24 B0 00 00  lea         eax,[esp+0B0h]
            00
  0040AB62: DD 44 24 50        fld         qword ptr [esp+50h]
  0040AB66: 89 44 24 0C        mov         dword ptr [esp+0Ch],eax
  0040AB6A: 8D 84 24 AC 00 00  lea         eax,[esp+0ACh]
            00
  0040AB71: 89 44 24 08        mov         dword ptr [esp+8],eax
  0040AB75: DD 1C 24           fstp        qword ptr [esp]
  0040AB78: E8 03 1F 00 00     call        0040CA80
  0040AB7D: 89 C7              mov         edi,eax
  0040AB7F: 8B 84 24 AC 00 00  mov         eax,dword ptr [esp+0ACh]
            00
  0040AB86: 83 F8 00           cmp         eax,0
  0040AB89: 0F 8C 38 0C 00 00  jl          0040B7C7
  0040AB8F: 74 0E              je          0040AB9F
  0040AB91: 89 3C 24           mov         dword ptr [esp],edi
  0040AB94: 89 44 24 04        mov         dword ptr [esp+4],eax
  0040AB98: E8 D3 1A 00 00     call        0040C670
  0040AB9D: 89 C7              mov         edi,eax
  0040AB9F: 8B 9C 24 C4 00 00  mov         ebx,dword ptr [esp+0C4h]
            00
  0040ABA6: 85 F6              test        esi,esi
  0040ABA8: 89 7C 24 04        mov         dword ptr [esp+4],edi
  0040ABAC: 89 1C 24           mov         dword ptr [esp],ebx
  0040ABAF: 0F 84 40 09 00 00  je          0040B4F5
  0040ABB5: E8 36 1C 00 00     call        0040C7F0
  0040ABBA: 8B 74 24 4C        mov         esi,dword ptr [esp+4Ch]
  0040ABBE: 8B 53 10           mov         edx,dword ptr [ebx+10h]
  0040ABC1: 85 F6              test        esi,esi
  0040ABC3: 89 84 24 C4 00 00  mov         dword ptr [esp+0C4h],eax
            00
  0040ABCA: 75 44              jne         0040AC10
  0040ABCC: 8D 4A FF           lea         ecx,[edx-1]
  0040ABCF: 3B 48 10           cmp         ecx,dword ptr [eax+10h]
  0040ABD2: 7D 17              jge         0040ABEB
  0040ABD4: 83 C2 03           add         edx,3
  0040ABD7: 0F BD 4C 90 04     bsr         ecx,dword ptr [eax+edx*4+4]
  0040ABDC: 0F BD 54 93 04     bsr         edx,dword ptr [ebx+edx*4+4]
  0040ABE1: 83 F1 1F           xor         ecx,1Fh
  0040ABE4: 83 F2 1F           xor         edx,1Fh
  0040ABE7: 39 D1              cmp         ecx,edx
  0040ABE9: 7E 25              jle         0040AC10
  0040ABEB: 8B 54 24 60        mov         edx,dword ptr [esp+60h]
  0040ABEF: 39 94 24 8C 00 00  cmp         dword ptr [esp+8Ch],edx
            00
  0040ABF6: 0F 85 74 09 00 00  jne         0040B570
  0040ABFC: 83 AC 24 B8 00 00  sub         dword ptr [esp+0B8h],1
            00 01
  0040AC04: C7 44 24 4C 01 00  mov         dword ptr [esp+4Ch],1
            00 00
  0040AC0C: 8D 74 26 00        lea         esi,[esi]
  0040AC10: 89 3C 24           mov         dword ptr [esp],edi
  0040AC13: E8 68 16 00 00     call        0040C280
  0040AC18: 89 1C 24           mov         dword ptr [esp],ebx
  0040AC1B: E8 60 16 00 00     call        0040C280
  0040AC20: 8B 54 24 70        mov         edx,dword ptr [esp+70h]
  0040AC24: 85 D2              test        edx,edx
  0040AC26: 0F 85 BF 07 00 00  jne         0040B3EB
  0040AC2C: 8B 44 24 68        mov         eax,dword ptr [esp+68h]
  0040AC30: 85 C0              test        eax,eax
  0040AC32: 74 4E              je          0040AC82
  0040AC34: 8B 84 24 BC 00 00  mov         eax,dword ptr [esp+0BCh]
            00
  0040AC3B: 03 84 24 B8 00 00  add         eax,dword ptr [esp+0B8h]
            00
  0040AC42: 39 44 24 74        cmp         dword ptr [esp+74h],eax
  0040AC46: 75 3A              jne         0040AC82
  0040AC48: DD 44 24 50        fld         qword ptr [esp+50h]
  0040AC4C: DC 0D 70 08 41 00  fmul        qword ptr ds:[410870h]
  0040AC52: DD 44 24 38        fld         qword ptr [esp+38h]
  0040AC56: D8 25 64 08 41 00  fsub        dword ptr ds:[410864h]
  0040AC5C: D9 C1              fld         st(1)
  0040AC5E: D9 E0              fchs
  0040AC60: DF E9              fucomip     st,st(1)
  0040AC62: 0F 86 C8 0A 00 00  jbe         0040B730
  0040AC68: DD D8              fstp        st(0)
  0040AC6A: DD 44 24 38        fld         qword ptr [esp+38h]
  0040AC6E: DF E9              fucomip     st,st(1)
  0040AC70: DD D8              fstp        st(0)
  0040AC72: 76 0E              jbe         0040AC82
  0040AC74: E9 D5 0A 00 00     jmp         0040B74E
  0040AC79: 8D B4 26 00 00 00  lea         esi,[esi]
            00
  0040AC80: DD D8              fstp        st(0)
  0040AC82: 8B 44 24 4C        mov         eax,dword ptr [esp+4Ch]
  0040AC86: C7 44 24 38 00 00  mov         dword ptr [esp+38h],0
            00 00
  0040AC8E: 85 C0              test        eax,eax
  0040AC90: 0F 84 11 09 00 00  je          0040B5A7
  0040AC96: 8B 44 24 30        mov         eax,dword ptr [esp+30h]
  0040AC9A: 89 04 24           mov         dword ptr [esp],eax
  0040AC9D: E8 DE 15 00 00     call        0040C280
  0040ACA2: 8B 44 24 34        mov         eax,dword ptr [esp+34h]
  0040ACA6: 89 04 24           mov         dword ptr [esp],eax
  0040ACA9: E8 D2 15 00 00     call        0040C280
  0040ACAE: 8B 44 24 40        mov         eax,dword ptr [esp+40h]
  0040ACB2: 89 04 24           mov         dword ptr [esp],eax
  0040ACB5: E8 C6 15 00 00     call        0040C280
  0040ACBA: 89 2C 24           mov         dword ptr [esp],ebp
  0040ACBD: E8 BE 15 00 00     call        0040C280
  0040ACC2: 8B 6C 24 64        mov         ebp,dword ptr [esp+64h]
  0040ACC6: 31 F6              xor         esi,esi
  0040ACC8: 8B 45 04           mov         eax,dword ptr [ebp+4]
  0040ACCB: 89 04 24           mov         dword ptr [esp],eax
  0040ACCE: E8 ED 14 00 00     call        0040C1C0
  0040ACD3: 8B 55 10           mov         edx,dword ptr [ebp+10h]
  0040ACD6: 8D 14 95 08 00 00  lea         edx,[edx*4+8]
            00
  0040ACDD: 89 54 24 08        mov         dword ptr [esp+8],edx
  0040ACE1: 8B 94 24 80 00 00  mov         edx,dword ptr [esp+80h]
            00
  0040ACE8: 89 44 24 34        mov         dword ptr [esp+34h],eax
  0040ACEC: 83 C0 0C           add         eax,0Ch
  0040ACEF: 89 04 24           mov         dword ptr [esp],eax
  0040ACF2: 89 54 24 04        mov         dword ptr [esp+4],edx
  0040ACF6: E8 25 32 00 00     call        0040DF20
  0040ACFB: 8B 84 24 C4 00 00  mov         eax,dword ptr [esp+0C4h]
            00
  0040AD02: 8B 40 04           mov         eax,dword ptr [eax+4]
  0040AD05: 89 04 24           mov         dword ptr [esp],eax
  0040AD08: E8 B3 14 00 00     call        0040C1C0
  0040AD0D: 89 44 24 30        mov         dword ptr [esp+30h],eax
  0040AD11: 8B 84 24 C4 00 00  mov         eax,dword ptr [esp+0C4h]
            00
  0040AD18: 8B 54 24 30        mov         edx,dword ptr [esp+30h]
  0040AD1C: 8B 48 10           mov         ecx,dword ptr [eax+10h]
  0040AD1F: 83 C0 0C           add         eax,0Ch
  0040AD22: 83 C2 0C           add         edx,0Ch
  0040AD25: 89 14 24           mov         dword ptr [esp],edx
  0040AD28: 89 44 24 04        mov         dword ptr [esp+4],eax
  0040AD2C: 8D 0C 8D 08 00 00  lea         ecx,[ecx*4+8]
            00
  0040AD33: 89 4C 24 08        mov         dword ptr [esp+8],ecx
  0040AD37: E8 E4 31 00 00     call        0040DF20
  0040AD3C: 8B BC 24 B8 00 00  mov         edi,dword ptr [esp+0B8h]
            00
  0040AD43: 8B 5C 24 38        mov         ebx,dword ptr [esp+38h]
  0040AD47: C7 04 24 01 00 00  mov         dword ptr [esp],1
            00
  0040AD4E: 03 9C 24 BC 00 00  add         ebx,dword ptr [esp+0BCh]
            00
  0040AD55: 2B 7C 24 38        sub         edi,dword ptr [esp+38h]
  0040AD59: E8 62 16 00 00     call        0040C3C0
  0040AD5E: 89 44 24 40        mov         dword ptr [esp+40h],eax
  0040AD62: 8B 44 24 58        mov         eax,dword ptr [esp+58h]
  0040AD66: 85 C0              test        eax,eax
  0040AD68: 0F 49 74 24 58     cmovns      esi,dword ptr [esp+58h]
  0040AD6D: 85 DB              test        ebx,ebx
  0040AD6F: 0F 88 EB 07 00 00  js          0040B560
  0040AD75: 8B 6C 24 44        mov         ebp,dword ptr [esp+44h]
  0040AD79: 89 F1              mov         ecx,esi
  0040AD7B: 01 DD              add         ebp,ebx
  0040AD7D: 8B 44 24 7C        mov         eax,dword ptr [esp+7Ch]
  0040AD81: 01 FB              add         ebx,edi
  0040AD83: 2B 5C 24 48        sub         ebx,dword ptr [esp+48h]
  0040AD87: 29 F8              sub         eax,edi
  0040AD89: 39 5C 24 60        cmp         dword ptr [esp+60h],ebx
  0040AD8D: 7E 06              jle         0040AD95
  0040AD8F: 2B 5C 24 60        sub         ebx,dword ptr [esp+60h]
  0040AD93: 01 D8              add         eax,ebx
  0040AD95: 8D 54 05 00        lea         edx,[ebp+eax]
  0040AD99: 8D 1C 01           lea         ebx,[ecx+eax]
  0040AD9C: 39 DA              cmp         edx,ebx
  0040AD9E: 89 D8              mov         eax,ebx
  0040ADA0: 0F 4E C2           cmovle      eax,edx
  0040ADA3: 39 E8              cmp         eax,ebp
  0040ADA5: 0F 4F C5           cmovg       eax,ebp
  0040ADA8: 85 C0              test        eax,eax
  0040ADAA: 7E 06              jle         0040ADB2
  0040ADAC: 29 C2              sub         edx,eax
  0040ADAE: 29 C3              sub         ebx,eax
  0040ADB0: 29 C5              sub         ebp,eax
  0040ADB2: 8B 44 24 44        mov         eax,dword ptr [esp+44h]
  0040ADB6: 85 C0              test        eax,eax
  0040ADB8: 74 4C              je          0040AE06
  0040ADBA: 8B 4C 24 44        mov         ecx,dword ptr [esp+44h]
  0040ADBE: 8B 44 24 40        mov         eax,dword ptr [esp+40h]
  0040ADC2: 89 54 24 20        mov         dword ptr [esp+20h],edx
  0040ADC6: 89 4C 24 04        mov         dword ptr [esp+4],ecx
  0040ADCA: 89 04 24           mov         dword ptr [esp],eax
  0040ADCD: E8 7E 17 00 00     call        0040C550
  0040ADD2: 89 44 24 40        mov         dword ptr [esp+40h],eax
  0040ADD6: 8B 44 24 30        mov         eax,dword ptr [esp+30h]
  0040ADDA: 89 44 24 04        mov         dword ptr [esp+4],eax
  0040ADDE: 8B 44 24 40        mov         eax,dword ptr [esp+40h]
  0040ADE2: 89 04 24           mov         dword ptr [esp],eax
  0040ADE5: E8 06 16 00 00     call        0040C3F0
  0040ADEA: 8B 4C 24 30        mov         ecx,dword ptr [esp+30h]
  0040ADEE: 89 0C 24           mov         dword ptr [esp],ecx
  0040ADF1: 89 44 24 24        mov         dword ptr [esp+24h],eax
  0040ADF5: E8 86 14 00 00     call        0040C280
  0040ADFA: 8B 44 24 24        mov         eax,dword ptr [esp+24h]
  0040ADFE: 8B 54 24 20        mov         edx,dword ptr [esp+20h]
  0040AE02: 89 44 24 30        mov         dword ptr [esp+30h],eax
  0040AE06: 2B 54 24 38        sub         edx,dword ptr [esp+38h]
  0040AE0A: 83 FA 00           cmp         edx,0
  0040AE0D: 0F 8E AD 05 00 00  jle         ___i2b_D2A
  0040AE13: 8B 44 24 30        mov         eax,dword ptr [esp+30h]
  0040AE17: 89 54 24 04        mov         dword ptr [esp+4],edx
  0040AE1B: 89 04 24           mov         dword ptr [esp],eax
  0040AE1E: E8 4D 18 00 00     call        0040C670
  0040AE23: 89 44 24 30        mov         dword ptr [esp+30h],eax
  0040AE27: 85 F6              test        esi,esi
  0040AE29: 74 14              je          0040AE3F
  0040AE2B: 8B 44 24 34        mov         eax,dword ptr [esp+34h]
  0040AE2F: 89 74 24 04        mov         dword ptr [esp+4],esi
  0040AE33: 89 04 24           mov         dword ptr [esp],eax
  0040AE36: E8 15 17 00 00     call        0040C550
  0040AE3B: 89 44 24 34        mov         dword ptr [esp+34h],eax
  0040AE3F: 85 DB              test        ebx,ebx
  0040AE41: 7E 14              jle         0040AE57
  0040AE43: 8B 44 24 34        mov         eax,dword ptr [esp+34h]
  0040AE47: 89 5C 24 04        mov         dword ptr [esp+4],ebx
  0040AE4B: 89 04 24           mov         dword ptr [esp],eax
  0040AE4E: E8 1D 18 00 00     call        0040C670
  0040AE53: 89 44 24 34        mov         dword ptr [esp+34h],eax
  0040AE57: 85 ED              test        ebp,ebp
  0040AE59: 7E 14              jle         0040AE6F
  0040AE5B: 8B 44 24 40        mov         eax,dword ptr [esp+40h]
  0040AE5F: 89 6C 24 04        mov         dword ptr [esp+4],ebp
  0040AE63: 89 04 24           mov         dword ptr [esp],eax
  0040AE66: E8 05 18 00 00     call        0040C670
  0040AE6B: 89 44 24 40        mov         dword ptr [esp+40h],eax
  0040AE6F: 8B 44 24 34        mov         eax,dword ptr [esp+34h]
  0040AE73: 89 44 24 04        mov         dword ptr [esp+4],eax
  0040AE77: 8B 44 24 30        mov         eax,dword ptr [esp+30h]
  0040AE7B: 89 04 24           mov         dword ptr [esp],eax
  0040AE7E: E8 6D 19 00 00     call        0040C7F0
  0040AE83: 83 78 10 01        cmp         dword ptr [eax+10h],1
  0040AE87: 89 C5              mov         ebp,eax
  0040AE89: 0F 8E 51 05 00 00  jle         0040B3E0
  0040AE8F: 8B 44 24 40        mov         eax,dword ptr [esp+40h]
  0040AE93: 8B 5D 0C           mov         ebx,dword ptr [ebp+0Ch]
  0040AE96: C7 45 0C 00 00 00  mov         dword ptr [ebp+0Ch],0
            00
  0040AE9D: 89 2C 24           mov         dword ptr [esp],ebp
  0040AEA0: 89 44 24 04        mov         dword ptr [esp+4],eax
  0040AEA4: E8 D7 18 00 00     call        0040C780
  0040AEA9: 85 C0              test        eax,eax
  0040AEAB: 0F 8E 36 FC FF FF  jle         0040AAE7
  0040AEB1: 83 F8 00           cmp         eax,0
  0040AEB4: 0F 8C 00 0E 00 00  jl          0040BCBA
  0040AEBA: 8D B6 00 00 00 00  lea         esi,[esi]
  0040AEC0: 0F 84 E2 0E 00 00  je          0040BDA8
  0040AEC6: 8B 44 24 40        mov         eax,dword ptr [esp+40h]
  0040AECA: 89 2C 24           mov         dword ptr [esp],ebp
  0040AECD: 89 44 24 04        mov         dword ptr [esp+4],eax
  0040AED1: E8 1A 1F 00 00     call        0040CDF0
  0040AED6: D9 05 60 08 41 00  fld         dword ptr ds:[410860h]
  0040AEDC: DF E9              fucomip     st,st(1)
  0040AEDE: 0F 82 8C 07 00 00  jb          ___lshift_D2A
  0040AEE4: DD D8              fstp        st(0)
  0040AEE6: 85 DB              test        ebx,ebx
  0040AEE8: 0F 85 12 09 00 00  jne         0040B800
  0040AEEE: C7 44 24 70 00 00  mov         dword ptr [esp+70h],0
            00 00
  0040AEF6: 83 FF 01           cmp         edi,1
  0040AEF9: 0F 8E 98 0F 00 00  jle         0040BE97
  0040AEFF: D9 E8              fld1
  0040AF01: BE 01 00 00 00     mov         esi,1
  0040AF06: DD 54 24 50        fst         qword ptr [esp+50h]
  0040AF0A: C7 44 24 68 00 00  mov         dword ptr [esp+68h],0
            00 00
  0040AF12: DD 5C 24 38        fstp        qword ptr [esp+38h]
  0040AF16: C7 44 24 6C 10 00  mov         dword ptr [esp+6Ch],10h
            00 00
  0040AF1E: E9 12 FC FF FF     jmp         0040AB35
  0040AF23: 83 7C 24 58 00     cmp         dword ptr [esp+58h],0
  0040AF28: 0F 84 93 0B 00 00  je          0040BAC1
  0040AF2E: 0F 8E 37 04 00 00  jle         0040B36B
  0040AF34: 83 7C 24 58 16     cmp         dword ptr [esp+58h],16h
  0040AF39: 0F 8F AC 0B 00 00  jg          0040BAEB
  0040AF3F: 8B 84 24 C8 00 00  mov         eax,dword ptr [esp+0C8h]
            00
  0040AF46: 8B 4C 24 58        mov         ecx,dword ptr [esp+58h]
  0040AF4A: 85 C0              test        eax,eax
  0040AF4C: 8B 14 8D 00 08 41  mov         edx,dword ptr [ecx*4+410800h]
            00
  0040AF53: 0F 84 19 0E 00 00  je          0040BD72
  0040AF59: 0F BC C8           bsf         ecx,eax
  0040AF5C: B8 35 00 00 00     mov         eax,35h
  0040AF61: 29 C8              sub         eax,ecx
  0040AF63: 8B 4C 24 58        mov         ecx,dword ptr [esp+58h]
  0040AF67: 01 D0              add         eax,edx
  0040AF69: DD 84 24 C8 00 00  fld         qword ptr [esp+0C8h]
            00
  0040AF70: 83 F8 35           cmp         eax,35h
  0040AF73: 0F 9E C0           setle       al
  0040AF76: 0F B6 C0           movzx       eax,al
  0040AF79: DC 0C CD 80 08 41  fmul        qword ptr [ecx*8+410880h]
            00
  0040AF80: 89 44 24 04        mov         dword ptr [esp+4],eax
  0040AF84: 8B 84 24 00 01 00  mov         eax,dword ptr [esp+100h]
            00
  0040AF8B: 8D 8C 24 B4 00 00  lea         ecx,[esp+0B4h]
            00
  0040AF92: 89 4C 24 0C        mov         dword ptr [esp+0Ch],ecx
  0040AF96: 8B 4C 24 78        mov         ecx,dword ptr [esp+78h]
  0040AF9A: 89 04 24           mov         dword ptr [esp],eax
  0040AF9D: DD 9C 24 C8 00 00  fstp        qword ptr [esp+0C8h]
            00
  0040AFA4: 89 4C 24 08        mov         dword ptr [esp+8],ecx
  0040AFA8: 8B 8C 24 FC 00 00  mov         ecx,dword ptr [esp+0FCh]
            00
  0040AFAF: 8D 84 24 C8 00 00  lea         eax,[esp+0C8h]
            00
  0040AFB6: 8B 94 24 F8 00 00  mov         edx,dword ptr [esp+0F8h]
            00
  0040AFBD: E8 0E F1 FF FF     call        0040A0D0
  0040AFC2: 85 C0              test        eax,eax
  0040AFC4: 0F 85 F0 F7 FF FF  jne         0040A7BA
  0040AFCA: 31 C0              xor         eax,eax
  0040AFCC: E9 59 F9 FF FF     jmp         0040A92A
  0040AFD1: 8B 6C 24 34        mov         ebp,dword ptr [esp+34h]
  0040AFD5: 0F B6 55 01        movzx       edx,byte ptr [ebp+1]
  0040AFD9: 84 D2              test        dl,dl
  0040AFDB: 0F 84 EF 0E 00 00  je          ___copybits_D2A
  0040AFE1: 3A 51 01           cmp         dl,byte ptr [ecx+1]
  0040AFE4: 0F 85 A2 F6 FF FF  jne         0040A68C
  0040AFEA: BA 01 00 00 00     mov         edx,1
  0040AFEF: 89 EF              mov         edi,ebp
  0040AFF1: 89 5C 24 58        mov         dword ptr [esp+58h],ebx
  0040AFF5: EB 09              jmp         0040B000
  0040AFF7: 3A 1C 11           cmp         bl,byte ptr [ecx+edx]
  0040AFFA: 0F 85 C8 01 00 00  jne         0040B1C8
  0040B000: 83 C2 01           add         edx,1
  0040B003: 0F B6 1C 17        movzx       ebx,byte ptr [edi+edx]
  0040B007: 89 D5              mov         ebp,edx
  0040B009: 84 DB              test        bl,bl
  0040B00B: 75 EA              jne         0040AFF7
  0040B00D: 8B 5C 24 58        mov         ebx,dword ptr [esp+58h]
  0040B011: 01 E9              add         ecx,ebp
  0040B013: 85 C0              test        eax,eax
  0040B015: 89 8C 24 C0 00 00  mov         dword ptr [esp+0C0h],ecx
            00
  0040B01C: 0F BE 39           movsx       edi,byte ptr [ecx]
  0040B01F: 0F 84 8F 02 00 00  je          0040B2B4
  0040B025: 89 5C 24 50        mov         dword ptr [esp+50h],ebx
  0040B029: 89 C5              mov         ebp,eax
  0040B02B: 31 DB              xor         ebx,ebx
  0040B02D: C7 44 24 34 00 00  mov         dword ptr [esp+34h],0
            00 00
  0040B035: 8D 4F D0           lea         ecx,[edi-30h]
  0040B038: 83 F9 09           cmp         ecx,9
  0040B03B: 89 4C 24 58        mov         dword ptr [esp+58h],ecx
  0040B03F: C7 44 24 44 01 00  mov         dword ptr [esp+44h],1
            00 00
  0040B047: 0F 87 57 F6 FF FF  ja          0040A6A4
  0040B04D: 8B 94 24 C0 00 00  mov         edx,dword ptr [esp+0C0h]
            00
  0040B054: 83 44 24 34 01     add         dword ptr [esp+34h],1
  0040B059: 89 54 24 44        mov         dword ptr [esp+44h],edx
  0040B05D: 8B 54 24 58        mov         edx,dword ptr [esp+58h]
  0040B061: 85 D2              test        edx,edx
  0040B063: 0F 84 9A 0B 00 00  je          0040BC03
  0040B069: 03 5C 24 34        add         ebx,dword ptr [esp+34h]
  0040B06D: 83 7C 24 34 01     cmp         dword ptr [esp+34h],1
  0040B072: 0F 84 BF 0F 00 00  je          0040C037
  0040B078: 8B 54 24 34        mov         edx,dword ptr [esp+34h]
  0040B07C: 89 6C 24 60        mov         dword ptr [esp+60h],ebp
  0040B080: 8D 7C 15 FF        lea         edi,[ebp+edx-1]
  0040B084: 89 EA              mov         edx,ebp
  0040B086: 8B 6C 24 40        mov         ebp,dword ptr [esp+40h]
  0040B08A: EB 0D              jmp         0040B099
  0040B08C: 8D 34 B6           lea         esi,[esi+esi*4]
  0040B08F: 01 F6              add         esi,esi
  0040B091: 39 FA              cmp         edx,edi
  0040B093: 0F 84 3C 0B 00 00  je          0040BBD5
  0040B099: 83 C2 01           add         edx,1
  0040B09C: 8D 4A FF           lea         ecx,[edx-1]
  0040B09F: 83 F9 08           cmp         ecx,8
  0040B0A2: 7E E8              jle         0040B08C
  0040B0A4: 83 FA 10           cmp         edx,10h
  0040B0A7: 7F E8              jg          0040B091
  0040B0A9: 8D 6C AD 00        lea         ebp,[ebp+ebp*4]
  0040B0AD: 01 ED              add         ebp,ebp
  0040B0AF: EB E0              jmp         0040B091
  0040B0B1: 8B 94 24 C0 00 00  mov         edx,dword ptr [esp+0C0h]
            00
  0040B0B8: 89 94 24 F0 00 00  mov         dword ptr [esp+0F0h],edx
            00
  0040B0BF: 8B 8C 24 F0 00 00  mov         ecx,dword ptr [esp+0F0h]
            00
  0040B0C6: 83 C2 01           add         edx,1
  0040B0C9: 89 94 24 C0 00 00  mov         dword ptr [esp+0C0h],edx
            00
  0040B0D0: 0F B6 51 01        movzx       edx,byte ptr [ecx+1]
  0040B0D4: 80 FA 2B           cmp         dl,2Bh
  0040B0D7: 0F BE FA           movsx       edi,dl
  0040B0DA: 0F 84 66 09 00 00  je          0040BA46
  0040B0E0: 80 FA 2D           cmp         dl,2Dh
  0040B0E3: 0F 84 59 02 00 00  je          0040B342
  0040B0E9: C7 44 24 60 00 00  mov         dword ptr [esp+60h],0
            00 00
  0040B0F1: 8D 57 D0           lea         edx,[edi-30h]
  0040B0F4: 83 FA 09           cmp         edx,9
  0040B0F7: 0F 87 A3 07 00 00  ja          0040B8A0
  0040B0FD: 83 FF 30           cmp         edi,30h
  0040B100: 75 20              jne         0040B122
  0040B102: 8B 94 24 C0 00 00  mov         edx,dword ptr [esp+0C0h]
            00
  0040B109: 83 C2 01           add         edx,1
  0040B10C: 8D 74 26 00        lea         esi,[esi]
  0040B110: 89 94 24 C0 00 00  mov         dword ptr [esp+0C0h],edx
            00
  0040B117: 0F BE 3A           movsx       edi,byte ptr [edx]
  0040B11A: 83 C2 01           add         edx,1
  0040B11D: 83 FF 30           cmp         edi,30h
  0040B120: 74 EE              je          0040B110
  0040B122: 8D 4F CF           lea         ecx,[edi-31h]
  0040B125: 31 D2              xor         edx,edx
  0040B127: 83 F9 08           cmp         ecx,8
  0040B12A: 0F 87 84 F5 FF FF  ja          0040A6B4
  0040B130: 8B 8C 24 C0 00 00  mov         ecx,dword ptr [esp+0C0h]
            00
  0040B137: 83 EF 30           sub         edi,30h
  0040B13A: 89 7C 24 30        mov         dword ptr [esp+30h],edi
  0040B13E: 89 CA              mov         edx,ecx
  0040B140: 83 C2 01           add         edx,1
  0040B143: 89 94 24 C0 00 00  mov         dword ptr [esp+0C0h],edx
            00
  0040B14A: 0F BE 79 01        movsx       edi,byte ptr [ecx+1]
  0040B14E: 89 4C 24 58        mov         dword ptr [esp+58h],ecx
  0040B152: 83 FF 2F           cmp         edi,2Fh
  0040B155: 7E 43              jle         0040B19A
  0040B157: 83 FF 39           cmp         edi,39h
  0040B15A: 7F 3E              jg          0040B19A
  0040B15C: 83 C2 01           add         edx,1
  0040B15F: 8B 4C 24 30        mov         ecx,dword ptr [esp+30h]
  0040B163: 89 6C 24 64        mov         dword ptr [esp+64h],ebp
  0040B167: EB 0F              jmp         0040B178
  0040B169: 8D B4 26 00 00 00  lea         esi,[esi]
            00
  0040B170: 83 C2 01           add         edx,1
  0040B173: 83 FF 39           cmp         edi,39h
  0040B176: 7F 18              jg          0040B190
  0040B178: 8D 0C 89           lea         ecx,[ecx+ecx*4]
  0040B17B: 89 D5              mov         ebp,edx
  0040B17D: 8D 4C 4F D0        lea         ecx,[edi+ecx*2-30h]
  0040B181: 89 94 24 C0 00 00  mov         dword ptr [esp+0C0h],edx
            00
  0040B188: 0F BE 3A           movsx       edi,byte ptr [edx]
  0040B18B: 83 FF 2F           cmp         edi,2Fh
  0040B18E: 7F E0              jg          0040B170
  0040B190: 89 EA              mov         edx,ebp
  0040B192: 8B 6C 24 64        mov         ebp,dword ptr [esp+64h]
  0040B196: 89 4C 24 30        mov         dword ptr [esp+30h],ecx
  0040B19A: 89 D1              mov         ecx,edx
  0040B19C: BA 1F 4E 00 00     mov         edx,4E1Fh
  0040B1A1: 2B 4C 24 58        sub         ecx,dword ptr [esp+58h]
  0040B1A5: 83 F9 08           cmp         ecx,8
  0040B1A8: 7F 0D              jg          0040B1B7
  0040B1AA: 81 7C 24 30 1F 4E  cmp         dword ptr [esp+30h],4E1Fh
            00 00
  0040B1B2: 0F 4E 54 24 30     cmovle      edx,dword ptr [esp+30h]
  0040B1B7: 89 D1              mov         ecx,edx
  0040B1B9: F7 D9              neg         ecx
  0040B1BB: 83 7C 24 60 00     cmp         dword ptr [esp+60h],0
___Balloc_D2A:
  0040B1C0: 0F 45 D1           cmovne      edx,ecx
  0040B1C3: E9 EC F4 FF FF     jmp         0040A6B4
  0040B1C8: 8B 5C 24 58        mov         ebx,dword ptr [esp+58h]
  0040B1CC: 89 C5              mov         ebp,eax
  0040B1CE: 8B 7C 24 44        mov         edi,dword ptr [esp+44h]
  0040B1D2: C7 44 24 34 00 00  mov         dword ptr [esp+34h],0
            00 00
  0040B1DA: C7 44 24 44 00 00  mov         dword ptr [esp+44h],0
            00 00
  0040B1E2: 89 5C 24 50        mov         dword ptr [esp+50h],ebx
  0040B1E6: 31 DB              xor         ebx,ebx
  0040B1E8: E9 B7 F4 FF FF     jmp         0040A6A4
  0040B1ED: 8D 76 00           lea         esi,[esi]
  0040B1F0: C1 F8 04           sar         eax,4
  0040B1F3: 83 F8 0F           cmp         eax,0Fh
  0040B1F6: 0F 8E 6D 0D 00 00  jle         0040BF69
  0040B1FC: DD 05 A0 09 41 00  fld         qword ptr ds:[4109A0h]
  0040B202: 89 C1              mov         ecx,eax
  0040B204: 31 FF              xor         edi,edi
  0040B206: 8B 94 24 CC 00 00  mov         edx,dword ptr [esp+0CCh]
            00
  0040B20D: 83 E9 10           sub         ecx,10h
  0040B210: 89 D3              mov         ebx,edx
  0040B212: 81 E2 FF FF 0F 80  and         edx,800FFFFFh
  0040B218: 81 CA 00 00 F0 3F  or          edx,3FF00000h
  0040B21E: 81 E3 00 00 F0 7F  and         ebx,7FF00000h
  0040B224: 89 94 24 CC 00 00  mov         dword ptr [esp+0CCh],edx
            00
  0040B22B: C1 EB 14           shr         ebx,14h
  0040B22E: 83 F9 0F           cmp         ecx,0Fh
  0040B231: DD 84 24 C8 00 00  fld         qword ptr [esp+0C8h]
            00
  0040B238: 8D BC 1F 01 FC FF  lea         edi,[edi+ebx-3FFh]
            FF
  0040B23F: D8 C9              fmul        st,st(1)
  0040B241: DD 9C 24 C8 00 00  fstp        qword ptr [esp+0C8h]
            00
  0040B248: 7F BC              jg          0040B206
  0040B24A: DD D8              fstp        st(0)
  0040B24C: 83 E0 0F           and         eax,0Fh
  0040B24F: 89 FB              mov         ebx,edi
  0040B251: 8B 8C 24 CC 00 00  mov         ecx,dword ptr [esp+0CCh]
            00
  0040B258: 89 CA              mov         edx,ecx
  0040B25A: 81 E1 FF FF 0F 80  and         ecx,800FFFFFh
  0040B260: 81 E2 00 00 F0 7F  and         edx,7FF00000h
  0040B266: 81 C9 00 00 F0 3F  or          ecx,3FF00000h
  0040B26C: C1 EA 14           shr         edx,14h
  0040B26F: 85 C0              test        eax,eax
  0040B271: 8D 9C 13 01 FC FF  lea         ebx,[ebx+edx-3FFh]
            FF
  0040B278: 89 8C 24 CC 00 00  mov         dword ptr [esp+0CCh],ecx
            00
  0040B27F: 0F 84 D8 0C 00 00  je          0040BF5D
  0040B285: DD 84 24 C8 00 00  fld         qword ptr [esp+0C8h]
            00
  0040B28C: 31 D2              xor         edx,edx
  0040B28E: D9 C0              fld         st(0)
  0040B290: A8 01              test        al,1
  0040B292: 74 0B              je          0040B29F
  0040B294: DD D9              fstp        st(1)
  0040B296: DC 0C D5 80 09 41  fmul        qword ptr [edx*8+410980h]
            00
  0040B29D: D9 C0              fld         st(0)
  0040B29F: 83 C2 01           add         edx,1
  0040B2A2: D1 F8              sar         eax,1
  0040B2A4: 75 EA              jne         0040B290
  0040B2A6: D9 C9              fxch        st(1)
  0040B2A8: DD 9C 24 C8 00 00  fstp        qword ptr [esp+0C8h]
            00
  0040B2AF: E9 B3 F6 FF FF     jmp         0040A967
  0040B2B4: 83 FF 30           cmp         edi,30h
  0040B2B7: 0F 85 19 0D 00 00  jne         0040BFD6
  0040B2BD: 8D 51 01           lea         edx,[ecx+1]
  0040B2C0: 89 94 24 C0 00 00  mov         dword ptr [esp+0C0h],edx
            00
  0040B2C7: 0F BE 3A           movsx       edi,byte ptr [edx]
  0040B2CA: 89 D5              mov         ebp,edx
  0040B2CC: 29 CD              sub         ebp,ecx
  0040B2CE: 83 C2 01           add         edx,1
  0040B2D1: 83 FF 30           cmp         edi,30h
  0040B2D4: 74 EA              je          0040B2C0
  0040B2D6: 89 6C 24 34        mov         dword ptr [esp+34h],ebp
  0040B2DA: 8D 57 CF           lea         edx,[edi-31h]
  0040B2DD: 83 FA 08           cmp         edx,8
  0040B2E0: 0F 87 DA 08 00 00  ja          ___rshift_D2A
  0040B2E6: 8B 9C 24 C0 00 00  mov         ebx,dword ptr [esp+0C0h]
            00
  0040B2ED: 83 EF 30           sub         edi,30h
  0040B2F0: 31 ED              xor         ebp,ebp
  0040B2F2: 89 7C 24 58        mov         dword ptr [esp+58h],edi
  0040B2F6: 89 5C 24 50        mov         dword ptr [esp+50h],ebx
  0040B2FA: 89 5C 24 44        mov         dword ptr [esp+44h],ebx
  0040B2FE: 8B 5C 24 34        mov         ebx,dword ptr [esp+34h]
  0040B302: C7 44 24 34 01 00  mov         dword ptr [esp+34h],1
            00 00
  0040B30A: E9 4E FD FF FF     jmp         0040B05D
  0040B30F: 0F 84 25 F7 FF FF  je          0040AA3A
  0040B315: 01 FA              add         edx,edi
  0040B317: 85 D2              test        edx,edx
  0040B319: 89 94 24 B8 00 00  mov         dword ptr [esp+0B8h],edx
            00
  0040B320: 0F 8E 72 0C 00 00  jle         0040BF98
  0040B326: 89 F8              mov         eax,edi
  0040B328: F7 D8              neg         eax
  0040B32A: 89 44 24 04        mov         dword ptr [esp+4],eax
  0040B32E: 8B 84 24 C4 00 00  mov         eax,dword ptr [esp+0C4h]
            00
  0040B335: 89 04 24           mov         dword ptr [esp],eax
  0040B338: E8 83 18 00 00     call        0040CBC0
  0040B33D: E9 F8 F6 FF FF     jmp         0040AA3A
  0040B342: C7 44 24 60 01 00  mov         dword ptr [esp+60h],1
            00 00
  0040B34A: 8B 94 24 F0 00 00  mov         edx,dword ptr [esp+0F0h]
            00
  0040B351: 83 C2 02           add         edx,2
  0040B354: 89 94 24 C0 00 00  mov         dword ptr [esp+0C0h],edx
            00
  0040B35B: 8B 94 24 F0 00 00  mov         edx,dword ptr [esp+0F0h]
            00
  0040B362: 0F BE 7A 02        movsx       edi,byte ptr [edx+2]
  0040B366: E9 86 FD FF FF     jmp         0040B0F1
  0040B36B: 8B 44 24 58        mov         eax,dword ptr [esp+58h]
  0040B36F: 83 F8 EA           cmp         eax,0FFFFFFEAh
  0040B372: 0F 8C B2 F5 FF FF  jl          0040A92A
  0040B378: F7 D8              neg         eax
  0040B37A: DD 84 24 C8 00 00  fld         qword ptr [esp+0C8h]
            00
  0040B381: DC 34 C5 80 08 41  fdiv        qword ptr [eax*8+410880h]
            00
  0040B388: 8B 54 24 78        mov         edx,dword ptr [esp+78h]
  0040B38C: 8D 84 24 B4 00 00  lea         eax,[esp+0B4h]
            00
  0040B393: 8B 8C 24 00 01 00  mov         ecx,dword ptr [esp+100h]
            00
  0040B39A: 89 44 24 0C        mov         dword ptr [esp+0Ch],eax
  0040B39E: C7 44 24 04 00 00  mov         dword ptr [esp+4],0
            00 00
  0040B3A6: 89 54 24 08        mov         dword ptr [esp+8],edx
  0040B3AA: 89 0C 24           mov         dword ptr [esp],ecx
  0040B3AD: DD 9C 24 C8 00 00  fstp        qword ptr [esp+0C8h]
            00
  0040B3B4: E9 EF FB FF FF     jmp         0040AFA8
  0040B3B9: 8D B4 26 00 00 00  lea         esi,[esi]
            00
___i2b_D2A:
  0040B3C0: 0F 84 61 FA FF FF  je          0040AE27
  0040B3C6: 8B 44 24 30        mov         eax,dword ptr [esp+30h]
  0040B3CA: F7 DA              neg         edx
  0040B3CC: 89 54 24 04        mov         dword ptr [esp+4],edx
  0040B3D0: 89 04 24           mov         dword ptr [esp],eax
  0040B3D3: E8 E8 17 00 00     call        0040CBC0
  0040B3D8: E9 4A FA FF FF     jmp         0040AE27
  0040B3DD: 8D 76 00           lea         esi,[esi]
  0040B3E0: 8B 40 14           mov         eax,dword ptr [eax+14h]
  0040B3E3: 85 C0              test        eax,eax
  0040B3E5: 0F 85 A4 FA FF FF  jne         0040AE8F
  0040B3EB: 8B 7C 24 30        mov         edi,dword ptr [esp+30h]
  0040B3EF: 8B 44 24 4C        mov         eax,dword ptr [esp+4Ch]
  0040B3F3: 85 C0              test        eax,eax
  0040B3F5: 0F 84 37 05 00 00  je          0040B932
  0040B3FB: 8B 84 24 BC 00 00  mov         eax,dword ptr [esp+0BCh]
            00
  0040B402: 8B 94 24 FC 00 00  mov         edx,dword ptr [esp+0FCh]
            00
  0040B409: 89 02              mov         dword ptr [edx],eax
  0040B40B: 89 3C 24           mov         dword ptr [esp],edi
  0040B40E: E8 6D 0E 00 00     call        0040C280
  0040B413: 8B 44 24 34        mov         eax,dword ptr [esp+34h]
  0040B417: 89 04 24           mov         dword ptr [esp],eax
  0040B41A: E8 61 0E 00 00     call        0040C280
  0040B41F: 8B 44 24 40        mov         eax,dword ptr [esp+40h]
  0040B423: 89 04 24           mov         dword ptr [esp],eax
  0040B426: E8 55 0E 00 00     call        0040C280
  0040B42B: 8B 44 24 64        mov         eax,dword ptr [esp+64h]
  0040B42F: 89 04 24           mov         dword ptr [esp],eax
  0040B432: E8 49 0E 00 00     call        0040C280
  0040B437: 89 2C 24           mov         dword ptr [esp],ebp
  0040B43A: E8 41 0E 00 00     call        0040C280
  0040B43F: 8B 9C 24 F8 00 00  mov         ebx,dword ptr [esp+0F8h]
            00
  0040B446: 8B AC 24 BC 00 00  mov         ebp,dword ptr [esp+0BCh]
            00
  0040B44D: 39 6B 08           cmp         dword ptr [ebx+8],ebp
  0040B450: 0F 8D 06 F3 FF FF  jge         0040A75C
  0040B456: 8B 9C 24 F8 00 00  mov         ebx,dword ptr [esp+0F8h]
            00
  0040B45D: 8B 43 0C           mov         eax,dword ptr [ebx+0Ch]
  0040B460: 83 E0 03           and         eax,3
  0040B463: 83 F8 02           cmp         eax,2
  0040B466: 0F 84 03 0A 00 00  je          0040BE6F
  0040B46C: 83 F8 03           cmp         eax,3
  0040B46F: 0F 84 E9 09 00 00  je          0040BE5E
  0040B475: 83 F8 01           cmp         eax,1
  0040B478: 0F 84 E7 03 00 00  je          0040B865
  0040B47E: 8B 84 24 C4 00 00  mov         eax,dword ptr [esp+0C4h]
            00
  0040B485: 89 04 24           mov         dword ptr [esp],eax
  0040B488: E8 F3 0D 00 00     call        0040C280
  0040B48D: 8B AC 24 F8 00 00  mov         ebp,dword ptr [esp+0F8h]
            00
  0040B494: 8B 94 24 FC 00 00  mov         edx,dword ptr [esp+0FCh]
            00
  0040B49B: 8B 9C 24 00 01 00  mov         ebx,dword ptr [esp+100h]
            00
  0040B4A2: C7 84 24 C4 00 00  mov         dword ptr [esp+0C4h],0
            00 00 00 00 00
  0040B4AD: 8B 45 08           mov         eax,dword ptr [ebp+8]
  0040B4B0: 8B 4D 00           mov         ecx,dword ptr [ebp]
  0040B4B3: C7 84 24 B4 00 00  mov         dword ptr [esp+0B4h],11h
            00 11 00 00 00
  0040B4BE: 89 02              mov         dword ptr [edx],eax
  0040B4C0: 8D 41 1F           lea         eax,[ecx+1Fh]
  0040B4C3: C1 F8 05           sar         eax,5
  0040B4C6: 8D 14 83           lea         edx,[ebx+eax*4]
  0040B4C9: 89 D8              mov         eax,ebx
  0040B4CB: 39 D3              cmp         ebx,edx
  0040B4CD: 73 0E              jae         0040B4DD
  0040B4CF: 90                 nop
  0040B4D0: C7 00 FF FF FF FF  mov         dword ptr [eax],0FFFFFFFFh
  0040B4D6: 83 C0 04           add         eax,4
  0040B4D9: 39 C2              cmp         edx,eax
  0040B4DB: 77 F3              ja          0040B4D0
  0040B4DD: 83 E1 1F           and         ecx,1Fh
  0040B4E0: 74 0C              je          0040B4EE
  0040B4E2: B8 20 00 00 00     mov         eax,20h
  0040B4E7: 29 C8              sub         eax,ecx
  0040B4E9: 89 C1              mov         ecx,eax
  0040B4EB: D3 6A FC           shr         dword ptr [edx-4],cl
  0040B4EE: 31 C9              xor         ecx,ecx
  0040B4F0: E9 6E F2 FF FF     jmp         0040A763
  0040B4F5: E8 D6 1A 00 00     call        _tolower
  0040B4FA: 8B 50 10           mov         edx,dword ptr [eax+10h]
  0040B4FD: 89 84 24 C4 00 00  mov         dword ptr [esp+0C4h],eax
            00
  0040B504: 8D 4A FF           lea         ecx,[edx-1]
  0040B507: 3B 4B 10           cmp         ecx,dword ptr [ebx+10h]
  0040B50A: 7D 1B              jge         0040B527
  0040B50C: 83 C2 03           add         edx,3
  0040B50F: 0F BD 4C 90 04     bsr         ecx,dword ptr [eax+edx*4+4]
  0040B514: 0F BD 54 93 04     bsr         edx,dword ptr [ebx+edx*4+4]
  0040B519: 83 F1 1F           xor         ecx,1Fh
  0040B51C: 83 F2 1F           xor         edx,1Fh
  0040B51F: 39 D1              cmp         ecx,edx
  0040B521: 0F 8D E9 F6 FF FF  jge         0040AC10
  0040B527: 8B 4C 24 4C        mov         ecx,dword ptr [esp+4Ch]
  0040B52B: 85 C9              test        ecx,ecx
  0040B52D: 0F 84 FD 02 00 00  je          0040B830
  0040B533: 8B 84 24 B8 00 00  mov         eax,dword ptr [esp+0B8h]
            00
  0040B53A: 83 C0 01           add         eax,1
  0040B53D: 89 84 24 B8 00 00  mov         dword ptr [esp+0B8h],eax
            00
  0040B544: 39 44 24 48        cmp         dword ptr [esp+48h],eax
  0040B548: B8 00 00 00 00     mov         eax,0
  0040B54D: 0F 45 44 24 4C     cmovne      eax,dword ptr [esp+4Ch]
  0040B552: 89 44 24 4C        mov         dword ptr [esp+4Ch],eax
  0040B556: E9 B5 F6 FF FF     jmp         0040AC10
  0040B55B: 90                 nop
  0040B55C: 8D 74 26 00        lea         esi,[esi]
  0040B560: 89 F1              mov         ecx,esi
  0040B562: 8B 6C 24 44        mov         ebp,dword ptr [esp+44h]
  0040B566: 29 D9              sub         ecx,ebx
  0040B568: E9 10 F8 FF FF     jmp         0040AD7D
  0040B56D: 8D 76 00           lea         esi,[esi]
  0040B570: C7 44 24 04 01 00  mov         dword ptr [esp+4],1
            00 00
  0040B578: 89 04 24           mov         dword ptr [esp],eax
  0040B57B: E8 F0 10 00 00     call        0040C670
  0040B580: 89 3C 24           mov         dword ptr [esp],edi
  0040B583: 83 AC 24 BC 00 00  sub         dword ptr [esp+0BCh],1
            00 01
  0040B58B: 83 AC 24 8C 00 00  sub         dword ptr [esp+8Ch],1
            00 01
  0040B593: 89 84 24 C4 00 00  mov         dword ptr [esp+0C4h],eax
            00
  0040B59A: E8 E1 0C 00 00     call        0040C280
  0040B59F: 89 1C 24           mov         dword ptr [esp],ebx
  0040B5A2: E8 D9 0C 00 00     call        0040C280
  0040B5A7: 8B 84 24 C4 00 00  mov         eax,dword ptr [esp+0C4h]
            00
  0040B5AE: 89 04 24           mov         dword ptr [esp],eax
  0040B5B1: E8 1A 17 00 00     call        0040CCD0
  0040B5B6: 89 44 24 38        mov         dword ptr [esp+38h],eax
  0040B5BA: E9 D7 F6 FF FF     jmp         0040AC96
  0040B5BF: 90                 nop
  0040B5C0: 8B 5C 24 60        mov         ebx,dword ptr [esp+60h]
  0040B5C4: 39 9C 24 8C 00 00  cmp         dword ptr [esp+8Ch],ebx
            00
  0040B5CB: C7 84 24 B4 00 00  mov         dword ptr [esp+0B4h],11h
            00 11 00 00 00
  0040B5D6: 0F 84 1A F9 FF FF  je          0040AEF6
  0040B5DC: 83 7C 24 48 1F     cmp         dword ptr [esp+48h],1Fh
  0040B5E1: 0F 8E 9E 08 00 00  jle         0040BE85
  0040B5E7: 8B 94 24 C4 00 00  mov         edx,dword ptr [esp+0C4h]
            00
  0040B5EE: 8B 5A 14           mov         ebx,dword ptr [edx+14h]
  0040B5F1: 85 DB              test        ebx,ebx
  0040B5F3: 0F 85 FD F8 FF FF  jne         0040AEF6
  0040B5F9: 8B 44 24 48        mov         eax,dword ptr [esp+48h]
  0040B5FD: 31 DB              xor         ebx,ebx
  0040B5FF: EB 0C              jmp         0040B60D
  0040B601: 8B 4C 9A 14        mov         ecx,dword ptr [edx+ebx*4+14h]
  0040B605: 85 C9              test        ecx,ecx
  0040B607: 0F 85 E9 F8 FF FF  jne         0040AEF6
  0040B60D: 83 E8 20           sub         eax,20h
  0040B610: 83 C3 01           add         ebx,1
  0040B613: 83 F8 1F           cmp         eax,1Fh
  0040B616: 7F E9              jg          0040B601
  0040B618: 83 F8 01           cmp         eax,1
  0040B61B: 7E 1B              jle         0040B638
  0040B61D: 83 C3 04           add         ebx,4
  0040B620: 83 E8 01           sub         eax,1
  0040B623: 8B 74 9A 04        mov         esi,dword ptr [edx+ebx*4+4]
  0040B627: 0F BC CE           bsf         ecx,esi
  0040B62A: D3 EE              shr         esi,cl
  0040B62C: 39 C8              cmp         eax,ecx
  0040B62E: 89 74 9A 04        mov         dword ptr [edx+ebx*4+4],esi
  0040B632: 0F 8F BE F8 FF FF  jg          0040AEF6
  0040B638: 8B 5C 24 48        mov         ebx,dword ptr [esp+48h]
  0040B63C: 8B 84 24 8C 00 00  mov         eax,dword ptr [esp+8Ch]
            00
  0040B643: 89 14 24           mov         dword ptr [esp],edx
  0040B646: 8B 7C 24 30        mov         edi,dword ptr [esp+30h]
  0040B64A: 89 5C 24 04        mov         dword ptr [esp+4],ebx
  0040B64E: 83 E8 01           sub         eax,1
  0040B651: 89 84 24 BC 00 00  mov         dword ptr [esp+0BCh],eax
            00
  0040B658: 89 9C 24 B8 00 00  mov         dword ptr [esp+0B8h],ebx
            00
  0040B65F: E8 AC ED FF FF     call        0040A410
  0040B664: 89 84 24 C4 00 00  mov         dword ptr [esp+0C4h],eax
            00
  0040B66B: E9 7F FD FF FF     jmp         0040B3EF
___lshift_D2A:
  0040B670: D9 05 64 08 41 00  fld         dword ptr ds:[410864h]
  0040B676: 83 FB 01           cmp         ebx,1
  0040B679: DC C9              fmul        st(1),st
  0040B67B: D9 C9              fxch        st(1)
  0040B67D: 19 D2              sbb         edx,edx
  0040B67F: 83 E2 10           and         edx,10h
  0040B682: 83 C2 10           add         edx,10h
  0040B685: 83 FB 01           cmp         ebx,1
  0040B688: 19 F6              sbb         esi,esi
  0040B68A: 83 E6 01           and         esi,1
  0040B68D: DD 5C 24 38        fstp        qword ptr [esp+38h]
  0040B691: DD 05 68 08 41 00  fld         qword ptr ds:[410868h]
  0040B697: DD 44 24 38        fld         qword ptr [esp+38h]
  0040B69B: D9 C9              fxch        st(1)
  0040B69D: DF E9              fucomip     st,st(1)
  0040B69F: 89 54 24 6C        mov         dword ptr [esp+6Ch],edx
  0040B6A3: 0F 86 37 01 00 00  jbe         0040B7E0
  0040B6A9: D9 BC 24 9A 00 00  fnstcw      word ptr [esp+9Ah]
            00
  0040B6B0: D9 C0              fld         st(0)
  0040B6B2: 83 7C 24 78 01     cmp         dword ptr [esp+78h],1
  0040B6B7: 0F B7 84 24 9A 00  movzx       eax,word ptr [esp+9Ah]
            00 00
  0040B6BF: B4 0C              mov         ah,0Ch
  0040B6C1: 66 89 84 24 98 00  mov         word ptr [esp+98h],ax
            00 00
  0040B6C9: D9 AC 24 98 00 00  fldcw       word ptr [esp+98h]
            00
  0040B6D0: DB 5C 24 68        fistp       dword ptr [esp+68h]
  0040B6D4: D9 AC 24 9A 00 00  fldcw       word ptr [esp+9Ah]
            00
  0040B6DB: DB 44 24 68        fild        dword ptr [esp+68h]
  0040B6DF: DD 54 24 50        fst         qword ptr [esp+50h]
  0040B6E3: DE E9              fsubp       st(1),st
  0040B6E5: DD 54 24 38        fst         qword ptr [esp+38h]
  0040B6E9: 0F 84 7C 03 00 00  je          0040BA6B
  0040B6EF: 83 7C 24 78 02     cmp         dword ptr [esp+78h],2
  0040B6F4: 0F 84 92 03 00 00  je          0040BA8C
  0040B6FA: DF E9              fucomip     st,st(1)
  0040B6FC: DD D8              fstp        st(0)
  0040B6FE: 72 20              jb          0040B720
  0040B700: 83 44 24 68 01     add         dword ptr [esp+68h],1
  0040B705: B8 30 00 00 00     mov         eax,30h
  0040B70A: 2B 44 24 6C        sub         eax,dword ptr [esp+6Ch]
  0040B70E: DB 44 24 68        fild        dword ptr [esp+68h]
  0040B712: 89 44 24 6C        mov         dword ptr [esp+6Ch],eax
  0040B716: DD 5C 24 50        fstp        qword ptr [esp+50h]
  0040B71A: 8D B6 00 00 00 00  lea         esi,[esi]
  0040B720: C7 44 24 70 00 00  mov         dword ptr [esp+70h],0
            00 00
  0040B728: E9 08 F4 FF FF     jmp         0040AB35
  0040B72D: 8D 76 00           lea         esi,[esi]
  0040B730: DF E9              fucomip     st,st(1)
  0040B732: 0F 86 48 F5 FF FF  jbe         0040AC80
  0040B738: D8 2D 5C 08 41 00  fsubr       dword ptr ds:[41085Ch]
  0040B73E: DD 44 24 38        fld         qword ptr [esp+38h]
  0040B742: D9 C9              fxch        st(1)
  0040B744: DF E9              fucomip     st,st(1)
  0040B746: DD D8              fstp        st(0)
  0040B748: 0F 86 34 F5 FF FF  jbe         0040AC82
  0040B74E: 8B 54 24 6C        mov         edx,dword ptr [esp+6Ch]
  0040B752: 8B 7C 24 30        mov         edi,dword ptr [esp+30h]
  0040B756: 09 94 24 B4 00 00  or          dword ptr [esp+0B4h],edx
            00
  0040B75D: E9 8D FC FF FF     jmp         0040B3EF
  0040B762: C7 41 10 00 00 00  mov         dword ptr [ecx+10h],0
            00
  0040B769: C7 84 24 B4 00 00  mov         dword ptr [esp+0B4h],50h
            00 50 00 00 00
  0040B774: E8 4F 28 00 00     call        0040DFC8
  0040B779: 8B 8C 24 C4 00 00  mov         ecx,dword ptr [esp+0C4h]
            00
___cmp_D2A:
  0040B780: C7 00 22 00 00 00  mov         dword ptr [eax],22h
  0040B786: E9 56 EE FF FF     jmp         0040A5E1
  0040B78B: 90                 nop
  0040B78C: 8D 74 26 00        lea         esi,[esi]
  0040B790: 8B 5C 24 48        mov         ebx,dword ptr [esp+48h]
  0040B794: 29 C3              sub         ebx,eax
  0040B796: 8B 84 24 C4 00 00  mov         eax,dword ptr [esp+0C4h]
            00
  0040B79D: 89 5C 24 04        mov         dword ptr [esp+4],ebx
  0040B7A1: 89 04 24           mov         dword ptr [esp],eax
  0040B7A4: E8 C7 0E 00 00     call        0040C670
  0040B7A9: 29 9C 24 BC 00 00  sub         dword ptr [esp+0BCh],ebx
            00
  0040B7B0: 8B 5C 24 48        mov         ebx,dword ptr [esp+48h]
  0040B7B4: 89 84 24 C4 00 00  mov         dword ptr [esp+0C4h],eax
            00
  0040B7BB: 89 9C 24 B8 00 00  mov         dword ptr [esp+0B8h],ebx
            00
  0040B7C2: E9 94 F3 FF FF     jmp         0040AB5B
  0040B7C7: F7 D8              neg         eax
  0040B7C9: 89 44 24 04        mov         dword ptr [esp+4],eax
  0040B7CD: 89 3C 24           mov         dword ptr [esp],edi
  0040B7D0: E8 EB 13 00 00     call        0040CBC0
  0040B7D5: E9 C5 F3 FF FF     jmp         0040AB9F
  0040B7DA: 8D B6 00 00 00 00  lea         esi,[esi]
  0040B7E0: DD D8              fstp        st(0)
  0040B7E2: DD D8              fstp        st(0)
  0040B7E4: DD 44 24 38        fld         qword ptr [esp+38h]
  0040B7E8: DD 5C 24 50        fstp        qword ptr [esp+50h]
  0040B7EC: C7 44 24 68 00 00  mov         dword ptr [esp+68h],0
            00 00
  0040B7F4: E9 27 FF FF FF     jmp         0040B720
  0040B7F9: 8D B4 26 00 00 00  lea         esi,[esi]
            00
  0040B800: D9 E8              fld1
  0040B802: 31 F6              xor         esi,esi
  0040B804: DD 54 24 50        fst         qword ptr [esp+50h]
  0040B808: C7 44 24 68 00 00  mov         dword ptr [esp+68h],0
            00 00
  0040B810: DD 5C 24 38        fstp        qword ptr [esp+38h]
  0040B814: C7 44 24 6C 20 00  mov         dword ptr [esp+6Ch],20h
            00 00
  0040B81C: C7 44 24 70 00 00  mov         dword ptr [esp+70h],0
            00 00
  0040B824: E9 0C F3 FF FF     jmp         0040AB35
  0040B829: 8D B4 26 00 00 00  lea         esi,[esi]
            00
  0040B830: C7 44 24 04 01 00  mov         dword ptr [esp+4],1
            00 00
  0040B838: 89 04 24           mov         dword ptr [esp],eax
  0040B83B: E8 80 13 00 00     call        0040CBC0
  0040B840: 83 84 24 BC 00 00  add         dword ptr [esp+0BCh],1
            00 01
  0040B848: 83 84 24 8C 00 00  add         dword ptr [esp+8Ch],1
            00 01
  0040B850: C7 44 24 68 00 00  mov         dword ptr [esp+68h],0
            00 00
  0040B858: E9 B3 F3 FF FF     jmp         0040AC10
  0040B85D: C7 44 24 4C 00 00  mov         dword ptr [esp+4Ch],0
            00 00
  0040B865: 8B 84 24 C4 00 00  mov         eax,dword ptr [esp+0C4h]
            00
  0040B86C: C7 84 24 B4 00 00  mov         dword ptr [esp+0B4h],0A3h
            00 A3 00 00 00
  0040B877: C7 40 10 00 00 00  mov         dword ptr [eax+10h],0
            00
  0040B87E: E8 45 27 00 00     call        0040DFC8
  0040B883: 8B 9C 24 F8 00 00  mov         ebx,dword ptr [esp+0F8h]
            00
  0040B88A: C7 00 22 00 00 00  mov         dword ptr [eax],22h
  0040B890: 8B 43 08           mov         eax,dword ptr [ebx+8]
  0040B893: 83 C0 01           add         eax,1
  0040B896: E9 B7 EE FF FF     jmp         0040A752
  0040B89B: 90                 nop
  0040B89C: 8D 74 26 00        lea         esi,[esi]
  0040B8A0: 8B 94 24 F0 00 00  mov         edx,dword ptr [esp+0F0h]
            00
  0040B8A7: 89 94 24 C0 00 00  mov         dword ptr [esp+0C0h],edx
            00
  0040B8AE: 31 D2              xor         edx,edx
  0040B8B0: E9 FF ED FF FF     jmp         0040A6B4
  0040B8B5: 8B 5C 24 5C        mov         ebx,dword ptr [esp+5Ch]
  0040B8B9: 8D 84 24 C4 00 00  lea         eax,[esp+0C4h]
            00
  0040B8C0: 8B AC 24 FC 00 00  mov         ebp,dword ptr [esp+0FCh]
            00
  0040B8C7: 89 44 24 0C        mov         dword ptr [esp+0Ch],eax
  0040B8CB: 8D 84 24 C0 00 00  lea         eax,[esp+0C0h]
            00
  0040B8D2: 89 04 24           mov         dword ptr [esp],eax
  0040B8D5: 89 5C 24 10        mov         dword ptr [esp+10h],ebx
  0040B8D9: 8B 9C 24 F8 00 00  mov         ebx,dword ptr [esp+0F8h]
            00
  0040B8E0: 89 6C 24 08        mov         dword ptr [esp+8],ebp
  0040B8E4: 89 5C 24 04        mov         dword ptr [esp+4],ebx
  0040B8E8: E8 63 18 00 00     call        0040D150
  0040B8ED: 8B 8C 24 C4 00 00  mov         ecx,dword ptr [esp+0C4h]
            00
  0040B8F4: 83 F8 06           cmp         eax,6
  0040B8F7: 89 84 24 B4 00 00  mov         dword ptr [esp+0B4h],eax
            00
  0040B8FE: 0F 85 DD EC FF FF  jne         0040A5E1
  0040B904: 8B AC 24 F0 00 00  mov         ebp,dword ptr [esp+0F0h]
            00
  0040B90B: C7 44 24 5C 00 00  mov         dword ptr [esp+5Ch],0
            00 00
  0040B913: 89 AC 24 C0 00 00  mov         dword ptr [esp+0C0h],ebp
            00
  0040B91A: E9 C2 EC FF FF     jmp         0040A5E1
  0040B91F: 89 D9              mov         ecx,ebx
  0040B921: 31 F6              xor         esi,esi
  0040B923: C7 44 24 40 00 00  mov         dword ptr [esp+40h],0
            00 00
  0040B92B: 31 C0              xor         eax,eax
  0040B92D: E9 46 ED FF FF     jmp         0040A678
  0040B932: 8B 84 24 B8 00 00  mov         eax,dword ptr [esp+0B8h]
            00
  0040B939: 8B 5C 24 48        mov         ebx,dword ptr [esp+48h]
  0040B93D: 29 C3              sub         ebx,eax
  0040B93F: 83 FB 00           cmp         ebx,0
  0040B942: 0F 85 09 02 00 00  jne         0040BB51
  0040B948: 8B 84 24 BC 00 00  mov         eax,dword ptr [esp+0BCh]
            00
  0040B94F: C7 44 24 4C 00 00  mov         dword ptr [esp+4Ch],0
            00 00
  0040B957: E9 A6 FA FF FF     jmp         0040B402
  0040B95C: 0F 84 FC EF FF FF  je          0040A95E
  0040B962: F7 D8              neg         eax
  0040B964: 89 C2              mov         edx,eax
  0040B966: 83 E2 0F           and         edx,0Fh
  0040B969: 74 15              je          ___b2d_D2A
  0040B96B: DD 84 24 C8 00 00  fld         qword ptr [esp+0C8h]
            00
  0040B972: DC 34 D5 80 08 41  fdiv        qword ptr [edx*8+410880h]
            00
  0040B979: DD 9C 24 C8 00 00  fstp        qword ptr [esp+0C8h]
            00
___b2d_D2A:
  0040B980: 83 E0 F0           and         eax,0FFFFFFF0h
  0040B983: 0F 84 D5 EF FF FF  je          0040A95E
  0040B989: 89 C7              mov         edi,eax
  0040B98B: C1 FF 04           sar         edi,4
  0040B98E: 83 FF 0F           cmp         edi,0Fh
  0040B991: 0F 8E A7 06 00 00  jle         0040C03E
  0040B997: DD 05 60 09 41 00  fld         qword ptr ds:[410960h]
  0040B99D: 89 FA              mov         edx,edi
  0040B99F: 31 DB              xor         ebx,ebx
  0040B9A1: 8B 84 24 CC 00 00  mov         eax,dword ptr [esp+0CCh]
            00
  0040B9A8: 83 EA 10           sub         edx,10h
  0040B9AB: 89 C1              mov         ecx,eax
  0040B9AD: 25 FF FF 0F 80     and         eax,800FFFFFh
  0040B9B2: 0D 00 00 F0 3F     or          eax,3FF00000h
  0040B9B7: 81 E1 00 00 F0 7F  and         ecx,7FF00000h
  0040B9BD: 89 84 24 CC 00 00  mov         dword ptr [esp+0CCh],eax
            00
  0040B9C4: C1 E9 14           shr         ecx,14h
  0040B9C7: 83 FA 0F           cmp         edx,0Fh
  0040B9CA: DD 84 24 C8 00 00  fld         qword ptr [esp+0C8h]
            00
  0040B9D1: 8D 9C 0B 01 FC FF  lea         ebx,[ebx+ecx-3FFh]
            FF
  0040B9D8: D8 C9              fmul        st,st(1)
  0040B9DA: DD 9C 24 C8 00 00  fstp        qword ptr [esp+0C8h]
            00
  0040B9E1: 7F BE              jg          0040B9A1
  0040B9E3: DD D8              fstp        st(0)
  0040B9E5: 83 E7 0F           and         edi,0Fh
  0040B9E8: 8B 94 24 CC 00 00  mov         edx,dword ptr [esp+0CCh]
            00
  0040B9EF: 89 D0              mov         eax,edx
  0040B9F1: 81 E2 FF FF 0F 80  and         edx,800FFFFFh
  0040B9F7: 25 00 00 F0 7F     and         eax,7FF00000h
  0040B9FC: 81 CA 00 00 F0 3F  or          edx,3FF00000h
  0040BA02: C1 E8 14           shr         eax,14h
  0040BA05: 8D 9C 03 01 FC FF  lea         ebx,[ebx+eax-3FFh]
            FF
  0040BA0C: 31 C0              xor         eax,eax
  0040BA0E: 89 94 24 CC 00 00  mov         dword ptr [esp+0CCh],edx
            00
  0040BA15: 85 FF              test        edi,edi
  0040BA17: DD 84 24 C8 00 00  fld         qword ptr [esp+0C8h]
            00
  0040BA1E: 0F 8E 43 EF FF FF  jle         0040A967
  0040BA24: F7 C7 01 00 00 00  test        edi,1
  0040BA2A: 74 07              je          0040BA33
  0040BA2C: DC 0C C5 40 09 41  fmul        qword ptr [eax*8+410940h]
            00
  0040BA33: 83 C0 01           add         eax,1
  0040BA36: D1 FF              sar         edi,1
  0040BA38: 75 EA              jne         0040BA24
  0040BA3A: DD 94 24 C8 00 00  fst         qword ptr [esp+0C8h]
            00
  0040BA41: E9 21 EF FF FF     jmp         0040A967
  0040BA46: C7 44 24 60 00 00  mov         dword ptr [esp+60h],0
            00 00
  0040BA4E: E9 F7 F8 FF FF     jmp         0040B34A
  0040BA53: 8B 5C 24 60        mov         ebx,dword ptr [esp+60h]
  0040BA57: C7 44 24 4C 01 00  mov         dword ptr [esp+4Ch],1
            00 00
  0040BA5F: 89 9C 24 8C 00 00  mov         dword ptr [esp+8Ch],ebx
            00
  0040BA66: E9 03 F0 FF FF     jmp         0040AA6E
  0040BA6B: DD D8              fstp        st(0)
  0040BA6D: DD D8              fstp        st(0)
  0040BA6F: 85 F6              test        esi,esi
  0040BA71: 0F 84 A9 FC FF FF  je          0040B720
  0040BA77: D9 EE              fldz
  0040BA79: DD 44 24 38        fld         qword ptr [esp+38h]
  0040BA7D: DF E9              fucomip     st,st(1)
  0040BA7F: DD D8              fstp        st(0)
  0040BA81: 0F 87 79 FC FF FF  ja          0040B700
  0040BA87: E9 94 FC FF FF     jmp         0040B720
  0040BA8C: DD D8              fstp        st(0)
  0040BA8E: DD D8              fstp        st(0)
  0040BA90: 85 F6              test        esi,esi
  0040BA92: 0F 85 88 FC FF FF  jne         0040B720
  0040BA98: D9 EE              fldz
  0040BA9A: DD 44 24 38        fld         qword ptr [esp+38h]
  0040BA9E: DF E9              fucomip     st,st(1)
  0040BAA0: DD D8              fstp        st(0)
  0040BAA2: 0F 87 58 FC FF FF  ja          0040B700
  0040BAA8: E9 73 FC FF FF     jmp         0040B720
  0040BAAD: 89 9C 24 8C 00 00  mov         dword ptr [esp+8Ch],ebx
            00
  0040BAB4: C7 44 24 4C 00 00  mov         dword ptr [esp+4Ch],0
            00 00
  0040BABC: E9 AD EF FF FF     jmp         0040AA6E
  0040BAC1: 8D 84 24 B4 00 00  lea         eax,[esp+0B4h]
            00
  0040BAC8: 8B 94 24 00 01 00  mov         edx,dword ptr [esp+100h]
            00
  0040BACF: 89 44 24 0C        mov         dword ptr [esp+0Ch],eax
  0040BAD3: 8B 44 24 78        mov         eax,dword ptr [esp+78h]
  0040BAD7: C7 44 24 04 01 00  mov         dword ptr [esp+4],1
            00 00
  0040BADF: 89 14 24           mov         dword ptr [esp],edx
  0040BAE2: 89 44 24 08        mov         dword ptr [esp+8],eax
  0040BAE6: E9 BD F4 FF FF     jmp         0040AFA8
  0040BAEB: 8B 44 24 58        mov         eax,dword ptr [esp+58h]
  0040BAEF: BA 25 00 00 00     mov         edx,25h
  0040BAF4: 29 EA              sub         edx,ebp
  0040BAF6: 39 D0              cmp         eax,edx
  0040BAF8: 0F 8F 2C EE FF FF  jg          0040A92A
  0040BAFE: B8 0F 00 00 00     mov         eax,0Fh
  0040BB03: DD 84 24 C8 00 00  fld         qword ptr [esp+0C8h]
            00
  0040BB0A: 29 E8              sub         eax,ebp
  0040BB0C: 8B 54 24 58        mov         edx,dword ptr [esp+58h]
  0040BB10: DC 0C C5 80 08 41  fmul        qword ptr [eax*8+410880h]
            00
  0040BB17: 8B 4C 24 78        mov         ecx,dword ptr [esp+78h]
  0040BB1B: C7 44 24 04 00 00  mov         dword ptr [esp+4],0
            00 00
  0040BB23: 29 C2              sub         edx,eax
  0040BB25: 8D 84 24 B4 00 00  lea         eax,[esp+0B4h]
            00
  0040BB2C: 89 44 24 0C        mov         dword ptr [esp+0Ch],eax
  0040BB30: 8B 84 24 00 01 00  mov         eax,dword ptr [esp+100h]
            00
  0040BB37: DC 0C D5 80 08 41  fmul        qword ptr [edx*8+410880h]
            00
  0040BB3E: 89 4C 24 08        mov         dword ptr [esp+8],ecx
  0040BB42: 89 04 24           mov         dword ptr [esp],eax
  0040BB45: DD 9C 24 C8 00 00  fstp        qword ptr [esp+0C8h]
            00
  0040BB4C: E9 57 F4 FF FF     jmp         0040AFA8
  0040BB51: 0F 8E 83 03 00 00  jle         0040BEDA
  0040BB57: 8B 84 24 C4 00 00  mov         eax,dword ptr [esp+0C4h]
            00
  0040BB5E: 89 5C 24 04        mov         dword ptr [esp+4],ebx
  0040BB62: 89 04 24           mov         dword ptr [esp],eax
  0040BB65: E8 06 0B 00 00     call        0040C670
  0040BB6A: 89 84 24 C4 00 00  mov         dword ptr [esp+0C4h],eax
            00
  0040BB71: 8B 84 24 BC 00 00  mov         eax,dword ptr [esp+0BCh]
            00
  0040BB78: C7 44 24 4C 00 00  mov         dword ptr [esp+4Ch],0
            00 00
  0040BB80: 29 D8              sub         eax,ebx
  0040BB82: 89 84 24 BC 00 00  mov         dword ptr [esp+0BCh],eax
            00
  0040BB89: E9 74 F8 FF FF     jmp         0040B402
  0040BB8E: 8B 8C 24 C4 00 00  mov         ecx,dword ptr [esp+0C4h]
            00
  0040BB95: 8B 5C 24 60        mov         ebx,dword ptr [esp+60h]
  0040BB99: 8B 94 24 FC 00 00  mov         edx,dword ptr [esp+0FCh]
            00
  0040BBA0: C7 84 24 B4 00 00  mov         dword ptr [esp+0B4h],50h
            00 50 00 00 00
  0040BBAB: C7 41 10 00 00 00  mov         dword ptr [ecx+10h],0
            00
  0040BBB2: C7 41 14 00 00 00  mov         dword ptr [ecx+14h],0
            00
  0040BBB9: 89 1A              mov         dword ptr [edx],ebx
  0040BBBB: E9 AF EB FF FF     jmp         0040A76F
___rshift_D2A:
  0040BBC0: 89 5C 24 50        mov         dword ptr [esp+50h],ebx
  0040BBC4: 31 ED              xor         ebp,ebp
  0040BBC6: 31 DB              xor         ebx,ebx
  0040BBC8: C7 44 24 44 01 00  mov         dword ptr [esp+44h],1
            00 00
  0040BBD0: E9 CF EA FF FF     jmp         0040A6A4
  0040BBD5: 89 6C 24 40        mov         dword ptr [esp+40h],ebp
  0040BBD9: 8B 4C 24 34        mov         ecx,dword ptr [esp+34h]
  0040BBDD: 8B 6C 24 60        mov         ebp,dword ptr [esp+60h]
  0040BBE1: 8D 54 0D FF        lea         edx,[ebp+ecx-1]
  0040BBE5: 83 FA 08           cmp         edx,8
  0040BBE8: 8D 6A 01           lea         ebp,[edx+1]
  0040BBEB: 0F 8F 7F 03 00 00  jg          0040BF70
  0040BBF1: 8B 4C 24 58        mov         ecx,dword ptr [esp+58h]
  0040BBF5: 8D 14 B6           lea         edx,[esi+esi*4]
  0040BBF8: C7 44 24 34 00 00  mov         dword ptr [esp+34h],0
            00 00
  0040BC00: 8D 34 51           lea         esi,[ecx+edx*2]
  0040BC03: 8B 54 24 44        mov         edx,dword ptr [esp+44h]
  0040BC07: 83 C2 01           add         edx,1
  0040BC0A: 89 94 24 C0 00 00  mov         dword ptr [esp+0C0h],edx
            00
  0040BC11: 8B 54 24 44        mov         edx,dword ptr [esp+44h]
  0040BC15: 0F BE 7A 01        movsx       edi,byte ptr [edx+1]
  0040BC19: E9 17 F4 FF FF     jmp         0040B035
  0040BC1E: 83 FF 69           cmp         edi,69h
  0040BC21: 0F 84 C8 EA FF FF  je          0040A6EF
  0040BC27: 83 FF 6E           cmp         edi,6Eh
  0040BC2A: 0F 85 13 EC FF FF  jne         0040A843
  0040BC30: 8D 9C 24 C0 00 00  lea         ebx,[esp+0C0h]
            00
  0040BC37: C7 44 24 04 29 07  mov         dword ptr [esp+4],410729h
            41 00
  0040BC3F: 89 1C 24           mov         dword ptr [esp],ebx
  0040BC42: E8 39 12 00 00     call        0040CE80
  0040BC47: 85 C0              test        eax,eax
  0040BC49: 0F 84 F4 EB FF FF  je          0040A843
  0040BC4F: 8B AC 24 F8 00 00  mov         ebp,dword ptr [esp+0F8h]
            00
  0040BC56: 8B 94 24 FC 00 00  mov         edx,dword ptr [esp+0FCh]
            00
  0040BC5D: C7 84 24 B4 00 00  mov         dword ptr [esp+0B4h],4
            00 04 00 00 00
  0040BC68: C7 44 24 4C 00 00  mov         dword ptr [esp+4Ch],0
            00 00
  0040BC70: 8B 6D 08           mov         ebp,dword ptr [ebp+8]
  0040BC73: 89 E8              mov         eax,ebp
  0040BC75: 83 C0 01           add         eax,1
  0040BC78: 89 02              mov         dword ptr [edx],eax
  0040BC7A: 8B 94 24 C0 00 00  mov         edx,dword ptr [esp+0C0h]
            00
  0040BC81: 80 3A 28           cmp         byte ptr [edx],28h
  0040BC84: 0F 85 C8 EA FF FF  jne         0040A752
  0040BC8A: 8B AC 24 F8 00 00  mov         ebp,dword ptr [esp+0F8h]
            00
  0040BC91: 8B 8C 24 00 01 00  mov         ecx,dword ptr [esp+100h]
            00
  0040BC98: 89 1C 24           mov         dword ptr [esp],ebx
  0040BC9B: 89 6C 24 04        mov         dword ptr [esp+4],ebp
  0040BC9F: 89 4C 24 08        mov         dword ptr [esp+8],ecx
  0040BCA3: E8 38 1E 00 00     call        0040DAE0
  0040BCA8: 89 84 24 B4 00 00  mov         dword ptr [esp+0B4h],eax
            00
  0040BCAF: 8B 45 08           mov         eax,dword ptr [ebp+8]
  0040BCB2: 83 C0 01           add         eax,1
  0040BCB5: E9 98 EA FF FF     jmp         0040A752
  0040BCBA: 83 FB 01           cmp         ebx,1
  0040BCBD: 19 C0              sbb         eax,eax
  0040BCBF: 83 E0 10           and         eax,10h
  0040BCC2: 89 7C 24 38        mov         dword ptr [esp+38h],edi
  0040BCC6: 83 C0 11           add         eax,11h
  0040BCC9: 8B 7C 24 30        mov         edi,dword ptr [esp+30h]
  0040BCCD: 83 7C 24 38 01     cmp         dword ptr [esp+38h],1
  0040BCD2: 89 84 24 B4 00 00  mov         dword ptr [esp+0B4h],eax
            00
  0040BCD9: 0F 8F 10 F7 FF FF  jg          0040B3EF
  0040BCDF: 85 DB              test        ebx,ebx
  0040BCE1: 0F 85 08 F7 FF FF  jne         0040B3EF
  0040BCE7: 8B 54 24 60        mov         edx,dword ptr [esp+60h]
  0040BCEB: 39 94 24 8C 00 00  cmp         dword ptr [esp+8Ch],edx
            00
  0040BCF2: 0F 84 F7 F6 FF FF  je          0040B3EF
  0040BCF8: 8B 44 24 4C        mov         eax,dword ptr [esp+4Ch]
  0040BCFC: 85 C0              test        eax,eax
  0040BCFE: 0F 85 EB F6 FF FF  jne         0040B3EF
  0040BD04: 89 2C 24           mov         dword ptr [esp],ebp
  0040BD07: C7 44 24 04 01 00  mov         dword ptr [esp+4],1
            00 00
  0040BD0F: E8 5C 09 00 00     call        0040C670
  0040BD14: 89 C5              mov         ebp,eax
  0040BD16: 8B 44 24 40        mov         eax,dword ptr [esp+40h]
  0040BD1A: 89 2C 24           mov         dword ptr [esp],ebp
  0040BD1D: 89 44 24 04        mov         dword ptr [esp+4],eax
  0040BD21: E8 5A 0A 00 00     call        0040C780
  0040BD26: 85 C0              test        eax,eax
  0040BD28: 0F 8E 04 FC FF FF  jle         0040B932
  0040BD2E: C7 84 24 B4 00 00  mov         dword ptr [esp+0B4h],11h
            00 11 00 00 00
  0040BD39: C7 44 24 4C 00 00  mov         dword ptr [esp+4Ch],0
            00 00
  0040BD41: 8B 5C 24 48        mov         ebx,dword ptr [esp+48h]
  0040BD45: 8B 84 24 C4 00 00  mov         eax,dword ptr [esp+0C4h]
            00
  0040BD4C: 29 9C 24 BC 00 00  sub         dword ptr [esp+0BCh],ebx
            00
  0040BD53: 89 5C 24 04        mov         dword ptr [esp+4],ebx
  0040BD57: 89 04 24           mov         dword ptr [esp],eax
  0040BD5A: 89 9C 24 B8 00 00  mov         dword ptr [esp+0B8h],ebx
            00
  0040BD61: E8 AA E6 FF FF     call        0040A410
  0040BD66: 89 84 24 C4 00 00  mov         dword ptr [esp+0C4h],eax
            00
  0040BD6D: E9 7D F6 FF FF     jmp         0040B3EF
  0040BD72: 8B 84 24 CC 00 00  mov         eax,dword ptr [esp+0CCh]
            00
  0040BD79: 0D 00 00 10 00     or          eax,100000h
  0040BD7E: 0F BC C8           bsf         ecx,eax
  0040BD81: B8 15 00 00 00     mov         eax,15h
  0040BD86: 29 C8              sub         eax,ecx
  0040BD88: E9 D6 F1 FF FF     jmp         0040AF63
  0040BD8D: 83 FB 01           cmp         ebx,1
  0040BD90: 8B 7C 24 30        mov         edi,dword ptr [esp+30h]
  0040BD94: 19 C0              sbb         eax,eax
  0040BD96: 83 E0 10           and         eax,10h
  0040BD99: 83 C0 11           add         eax,11h
  0040BD9C: 89 84 24 B4 00 00  mov         dword ptr [esp+0B4h],eax
            00
  0040BDA3: E9 47 F6 FF FF     jmp         0040B3EF
  0040BDA8: 85 DB              test        ebx,ebx
  0040BDAA: 89 7C 24 38        mov         dword ptr [esp+38h],edi
  0040BDAE: 8B 7C 24 30        mov         edi,dword ptr [esp+30h]
  0040BDB2: 0F 84 3E 01 00 00  je          0040BEF6
  0040BDB8: 8B 44 24 4C        mov         eax,dword ptr [esp+4Ch]
  0040BDBC: 85 C0              test        eax,eax
  0040BDBE: 0F 84 02 02 00 00  je          0040BFC6
  0040BDC4: 8B 94 24 B8 00 00  mov         edx,dword ptr [esp+0B8h]
            00
  0040BDCB: 8B B4 24 C4 00 00  mov         esi,dword ptr [esp+0C4h]
            00
  0040BDD2: 89 54 24 30        mov         dword ptr [esp+30h],edx
  0040BDD6: C1 FA 05           sar         edx,5
  0040BDD9: 8D 46 14           lea         eax,[esi+14h]
  0040BDDC: 8D 4C 96 14        lea         ecx,[esi+edx*4+14h]
  0040BDE0: 39 C8              cmp         eax,ecx
  0040BDE2: 73 20              jae         0040BE04
  0040BDE4: 83 7E 14 FF        cmp         dword ptr [esi+14h],0FFFFFFFFh
  0040BDE8: 8D 46 18           lea         eax,[esi+18h]
  0040BDEB: 74 13              je          0040BE00
  0040BDED: E9 D4 01 00 00     jmp         0040BFC6
  0040BDF2: 8B 10              mov         edx,dword ptr [eax]
  0040BDF4: 83 C0 04           add         eax,4
  0040BDF7: 83 FA FF           cmp         edx,0FFFFFFFFh
  0040BDFA: 0F 85 C6 01 00 00  jne         0040BFC6
  0040BE00: 39 C1              cmp         ecx,eax
  0040BE02: 77 EE              ja          0040BDF2
  0040BE04: 8B 4C 24 30        mov         ecx,dword ptr [esp+30h]
  0040BE08: 83 E1 1F           and         ecx,1Fh
  0040BE0B: 74 10              je          0040BE1D
  0040BE0D: 83 CA FF           or          edx,0FFFFFFFFh
  0040BE10: D3 E2              shl         edx,cl
  0040BE12: 0B 10              or          edx,dword ptr [eax]
  0040BE14: 83 C2 01           add         edx,1
  0040BE17: 0F 85 A9 01 00 00  jne         0040BFC6
  0040BE1D: 8B 54 24 48        mov         edx,dword ptr [esp+48h]
  0040BE21: 8B 5C 24 60        mov         ebx,dword ptr [esp+60h]
  0040BE25: C7 46 10 01 00 00  mov         dword ptr [esi+10h],1
            00
  0040BE2C: C7 46 14 01 00 00  mov         dword ptr [esi+14h],1
            00
  0040BE33: C7 84 24 B8 00 00  mov         dword ptr [esp+0B8h],1
            00 01 00 00 00
  0040BE3E: 8D 44 1A FF        lea         eax,[edx+ebx-1]
  0040BE42: 89 84 24 BC 00 00  mov         dword ptr [esp+0BCh],eax
            00
  0040BE49: B8 01 00 00 00     mov         eax,1
  0040BE4E: C7 84 24 B4 00 00  mov         dword ptr [esp+0B4h],21h
            00 21 00 00 00
  0040BE59: E9 DB FA FF FF     jmp         0040B939
  0040BE5E: 8B 44 24 5C        mov         eax,dword ptr [esp+5Ch]
  0040BE62: 85 C0              test        eax,eax
  0040BE64: 0F 85 FB F9 FF FF  jne         0040B865
  0040BE6A: E9 0F F6 FF FF     jmp         0040B47E
  0040BE6F: 8B 44 24 5C        mov         eax,dword ptr [esp+5Ch]
  0040BE73: 85 C0              test        eax,eax
  0040BE75: 0F 84 EA F9 FF FF  je          0040B865
  0040BE7B: 90                 nop
  0040BE7C: 8D 74 26 00        lea         esi,[esi]
___match_D2A:
  0040BE80: E9 F9 F5 FF FF     jmp         0040B47E
  0040BE85: 8B 44 24 48        mov         eax,dword ptr [esp+48h]
  0040BE89: 31 DB              xor         ebx,ebx
  0040BE8B: 8B 94 24 C4 00 00  mov         edx,dword ptr [esp+0C4h]
            00
  0040BE92: E9 81 F7 FF FF     jmp         0040B618
  0040BE97: 8B 44 24 4C        mov         eax,dword ptr [esp+4Ch]
  0040BE9B: 85 C0              test        eax,eax
  0040BE9D: 0F 84 5C F0 FF FF  je          0040AEFF
  0040BEA3: 8B 7C 24 30        mov         edi,dword ptr [esp+30h]
  0040BEA7: 8B 94 24 C4 00 00  mov         edx,dword ptr [esp+0C4h]
            00
  0040BEAE: C7 42 10 00 00 00  mov         dword ptr [edx+10h],0
            00
  0040BEB5: 8B 54 24 60        mov         edx,dword ptr [esp+60h]
  0040BEB9: C7 84 24 B4 00 00  mov         dword ptr [esp+0B4h],50h
            00 50 00 00 00
  0040BEC4: 89 94 24 BC 00 00  mov         dword ptr [esp+0BCh],edx
            00
  0040BECB: E9 1F F5 FF FF     jmp         0040B3EF
___copybits_D2A:
  0040BED0: BD 01 00 00 00     mov         ebp,1
  0040BED5: E9 37 F1 FF FF     jmp         0040B011
  0040BEDA: 89 D8              mov         eax,ebx
  0040BEDC: F7 D8              neg         eax
  0040BEDE: 89 44 24 04        mov         dword ptr [esp+4],eax
  0040BEE2: 8B 84 24 C4 00 00  mov         eax,dword ptr [esp+0C4h]
            00
  0040BEE9: 89 04 24           mov         dword ptr [esp],eax
  0040BEEC: E8 CF 0C 00 00     call        0040CBC0
  0040BEF1: E9 7B FC FF FF     jmp         0040BB71
  0040BEF6: 83 7C 24 38 01     cmp         dword ptr [esp+38h],1
  0040BEFB: 0F 84 E2 00 00 00  je          0040BFE3
  0040BF01: C7 84 24 B4 00 00  mov         dword ptr [esp+0B4h],21h
            00 21 00 00 00
  0040BF0C: 8B 44 24 4C        mov         eax,dword ptr [esp+4Ch]
  0040BF10: 85 C0              test        eax,eax
  0040BF12: 75 0E              jne         0040BF22
  0040BF14: 8B 44 24 38        mov         eax,dword ptr [esp+38h]
  0040BF18: 39 44 24 48        cmp         dword ptr [esp+48h],eax
  0040BF1C: 0F 8F 10 FA FF FF  jg          0040B932
  0040BF22: 8B 94 24 C4 00 00  mov         edx,dword ptr [esp+0C4h]
            00
  0040BF29: 8B 42 14           mov         eax,dword ptr [edx+14h]
  0040BF2C: A8 01              test        al,1
  0040BF2E: 0F 84 BB F4 FF FF  je          0040B3EF
  0040BF34: 85 DB              test        ebx,ebx
  0040BF36: 0F 85 09 01 00 00  jne         0040C045
  0040BF3C: 83 7C 24 38 01     cmp         dword ptr [esp+38h],1
  0040BF41: 0F 84 67 FF FF FF  je          0040BEAE
  0040BF47: 83 E8 01           sub         eax,1
  0040BF4A: 89 42 14           mov         dword ptr [edx+14h],eax
  0040BF4D: C7 84 24 B4 00 00  mov         dword ptr [esp+0B4h],11h
            00 11 00 00 00
  0040BF58: E9 92 F4 FF FF     jmp         0040B3EF
  0040BF5D: DD 84 24 C8 00 00  fld         qword ptr [esp+0C8h]
            00
  0040BF64: E9 FE E9 FF FF     jmp         0040A967
  0040BF69: 31 DB              xor         ebx,ebx
  0040BF6B: E9 E1 F2 FF FF     jmp         0040B251
  0040BF70: 83 FD 10           cmp         ebp,10h
  0040BF73: C7 44 24 34 00 00  mov         dword ptr [esp+34h],0
            00 00
  0040BF7B: 0F 8F 82 FC FF FF  jg          0040BC03
  0040BF81: 8B 4C 24 40        mov         ecx,dword ptr [esp+40h]
  0040BF85: 8D 14 89           lea         edx,[ecx+ecx*4]
  0040BF88: 8B 4C 24 58        mov         ecx,dword ptr [esp+58h]
  0040BF8C: 8D 14 51           lea         edx,[ecx+edx*2]
  0040BF8F: 89 54 24 40        mov         dword ptr [esp+40h],edx
  0040BF93: E9 6B FC FF FF     jmp         0040BC03
  0040BF98: 83 FA FF           cmp         edx,0FFFFFFFFh
  0040BF9B: 0F 8C ED FB FF FF  jl          0040BB8E
  0040BFA1: 8B 84 24 C4 00 00  mov         eax,dword ptr [esp+0C4h]
            00
  0040BFA8: C7 84 24 B8 00 00  mov         dword ptr [esp+0B8h],1
            00 01 00 00 00
  0040BFB3: C7 40 10 01 00 00  mov         dword ptr [eax+10h],1
            00
  0040BFBA: C7 40 14 01 00 00  mov         dword ptr [eax+14h],1
            00
  0040BFC1: E9 74 EA FF FF     jmp         0040AA3A
  0040BFC6: C7 84 24 B4 00 00  mov         dword ptr [esp+0B4h],11h
            00 11 00 00 00
  0040BFD1: E9 36 FF FF FF     jmp         0040BF0C
  0040BFD6: C7 44 24 34 00 00  mov         dword ptr [esp+34h],0
            00 00
  0040BFDE: E9 F7 F2 FF FF     jmp         0040B2DA
  0040BFE3: 8B 5C 24 60        mov         ebx,dword ptr [esp+60h]
  0040BFE7: 39 9C 24 8C 00 00  cmp         dword ptr [esp+8Ch],ebx
            00
  0040BFEE: C7 84 24 B4 00 00  mov         dword ptr [esp+0B4h],1
            00 01 00 00 00
  0040BFF9: 0F 85 42 FD FF FF  jne         0040BD41
  0040BFFF: 8B 84 24 C4 00 00  mov         eax,dword ptr [esp+0C4h]
            00
  0040C006: C7 84 24 B4 00 00  mov         dword ptr [esp+0B4h],21h
            00 21 00 00 00
  0040C011: 83 78 10 01        cmp         dword ptr [eax+10h],1
  0040C015: 0F 85 D4 F3 FF FF  jne         0040B3EF
  0040C01B: 8B 5C 24 38        mov         ebx,dword ptr [esp+38h]
  0040C01F: 83 78 14 01        cmp         dword ptr [eax+14h],1
  0040C023: 0F 45 9C 24 88 00  cmovne      ebx,dword ptr [esp+88h]
            00 00
  0040C02B: 89 9C 24 88 00 00  mov         dword ptr [esp+88h],ebx
            00
  0040C032: E9 B8 F3 FF FF     jmp         0040B3EF
  0040C037: 89 EA              mov         edx,ebp
  0040C039: E9 A7 FB FF FF     jmp         0040BBE5
  0040C03E: 31 DB              xor         ebx,ebx
  0040C040: E9 A3 F9 FF FF     jmp         0040B9E8
  0040C045: 89 14 24           mov         dword ptr [esp],edx
  0040C048: E8 E3 DF FF FF     call        0040A030
  0040C04D: 8B 8C 24 B8 00 00  mov         ecx,dword ptr [esp+0B8h]
            00
  0040C054: 8B 50 10           mov         edx,dword ptr [eax+10h]
  0040C057: 89 84 24 C4 00 00  mov         dword ptr [esp+0C4h],eax
            00
  0040C05E: 0F BD 44 90 10     bsr         eax,dword ptr [eax+edx*4+10h]
  0040C063: 89 CA              mov         edx,ecx
  0040C065: F7 DA              neg         edx
  0040C067: 83 E2 1F           and         edx,1Fh
  0040C06A: 83 F0 1F           xor         eax,1Fh
  0040C06D: 39 C2              cmp         edx,eax
  0040C06F: 74 0A              je          0040C07B
  0040C071: 83 C1 01           add         ecx,1
  0040C074: 89 8C 24 B8 00 00  mov         dword ptr [esp+0B8h],ecx
            00
  0040C07B: C7 84 24 B4 00 00  mov         dword ptr [esp+0B4h],21h
            00 21 00 00 00
  0040C086: E9 64 F3 FF FF     jmp         0040B3EF
  0040C08B: 90                 nop
  0040C08C: 90                 nop
  0040C08D: 90                 nop
  0040C08E: 90                 nop
  0040C08F: 90                 nop
  0040C090: 56                 push        esi
  0040C091: 89 C6              mov         esi,eax
  0040C093: 53                 push        ebx
  0040C094: 83 EC 14           sub         esp,14h
  0040C097: 8B 15 20 1D 41 00  mov         edx,dword ptr ds:[411D20h]
  0040C09D: 83 FA 02           cmp         edx,2
  0040C0A0: 74 45              je          0040C0E7
  0040C0A2: 85 D2              test        edx,edx
  0040C0A4: 75 68              jne         0040C10E
  0040C0A6: B2 01              mov         dl,1
  0040C0A8: F0 87 15 20 1D 41  lock xchg   edx,dword ptr ds:[411D20h]
            00
  0040C0AF: 85 D2              test        edx,edx
  0040C0B1: 75 50              jne         0040C103
  0040C0B3: 8B 1D F0 21 41 00  mov         ebx,dword ptr ds:[4121F0h]
  0040C0B9: C7 04 24 40 1D 41  mov         dword ptr [esp],411D40h
            00
  0040C0C0: FF D3              call        ebx
  0040C0C2: 83 EC 04           sub         esp,4
  0040C0C5: C7 04 24 58 1D 41  mov         dword ptr [esp],411D58h
            00
  0040C0CC: FF D3              call        ebx
  0040C0CE: 83 EC 04           sub         esp,4
  0040C0D1: C7 04 24 80 C1 40  mov         dword ptr [esp],40C180h
            00
  0040C0D8: E8 33 57 FF FF     call        00401810
  0040C0DD: C7 05 20 1D 41 00  mov         dword ptr ds:[411D20h],2
            02 00 00 00
  0040C0E7: 8D 04 76           lea         eax,[esi+esi*2]
  0040C0EA: 8D 04 C5 40 1D 41  lea         eax,[eax*8+411D40h]
            00
  0040C0F1: 89 04 24           mov         dword ptr [esp],eax
  0040C0F4: FF 15 C8 21 41 00  call        dword ptr ds:[4121C8h]
  0040C0FA: 83 EC 04           sub         esp,4
  0040C0FD: 83 C4 14           add         esp,14h
  0040C100: 5B                 pop         ebx
  0040C101: 5E                 pop         esi
  0040C102: C3                 ret
  0040C103: 83 FA 02           cmp         edx,2
  0040C106: 74 3A              je          0040C142
  0040C108: 8B 15 20 1D 41 00  mov         edx,dword ptr ds:[411D20h]
  0040C10E: 83 FA 01           cmp         edx,1
  0040C111: 75 24              jne         0040C137
  0040C113: 8B 1D 0C 22 41 00  mov         ebx,dword ptr ds:[41220Ch]
  0040C119: 8D B4 26 00 00 00  lea         esi,[esi]
            00
  0040C120: C7 04 24 01 00 00  mov         dword ptr [esp],1
            00
  0040C127: FF D3              call        ebx
  0040C129: 8B 15 20 1D 41 00  mov         edx,dword ptr ds:[411D20h]
  0040C12F: 83 EC 04           sub         esp,4
  0040C132: 83 FA 01           cmp         edx,1
  0040C135: 74 E9              je          0040C120
  0040C137: 83 FA 02           cmp         edx,2
  0040C13A: 74 AB              je          0040C0E7
  0040C13C: 83 C4 14           add         esp,14h
  0040C13F: 5B                 pop         ebx
  0040C140: 5E                 pop         esi
  0040C141: C3                 ret
  0040C142: C7 05 20 1D 41 00  mov         dword ptr ds:[411D20h],2
            02 00 00 00
  0040C14C: EB 99              jmp         0040C0E7
  0040C14E: 66
  0040C14F: 90                 nop
___gethex_D2A:
  0040C150: 83 3D 20 1D 41 00  cmp         dword ptr ds:[411D20h],2
            02
  0040C157: 74 07              je          0040C160
  0040C159: F3 C3              rep ret
  0040C15B: 90                 nop
  0040C15C: 8D 74 26 00        lea         esi,[esi]
  0040C160: 8D 04 40           lea         eax,[eax+eax*2]
  0040C163: 83 EC 1C           sub         esp,1Ch
  0040C166: 8D 04 C5 40 1D 41  lea         eax,[eax*8+411D40h]
            00
  0040C16D: 89 04 24           mov         dword ptr [esp],eax
  0040C170: FF 15 F8 21 41 00  call        dword ptr ds:[4121F8h]
  0040C176: 83 EC 04           sub         esp,4
  0040C179: 83 C4 1C           add         esp,1Ch
  0040C17C: C3                 ret
  0040C17D: 8D 76 00           lea         esi,[esi]
  0040C180: B8 03 00 00 00     mov         eax,3
  0040C185: F0 87 05 20 1D 41  lock xchg   eax,dword ptr ds:[411D20h]
            00
  0040C18C: 83 F8 02           cmp         eax,2
  0040C18F: 74 02              je          0040C193
  0040C191: F3 C3              rep ret
  0040C193: 53                 push        ebx
  0040C194: 83 EC 18           sub         esp,18h
  0040C197: 8B 1D C4 21 41 00  mov         ebx,dword ptr ds:[4121C4h]
  0040C19D: C7 04 24 40 1D 41  mov         dword ptr [esp],411D40h
            00
  0040C1A4: FF D3              call        ebx
  0040C1A6: 83 EC 04           sub         esp,4
  0040C1A9: C7 04 24 58 1D 41  mov         dword ptr [esp],411D58h
            00
  0040C1B0: FF D3              call        ebx
  0040C1B2: 83 EC 04           sub         esp,4
  0040C1B5: 83 C4 18           add         esp,18h
  0040C1B8: 5B                 pop         ebx
  0040C1B9: C3                 ret
  0040C1BA: 8D B6 00 00 00 00  lea         esi,[esi]
  0040C1C0: 83 EC 1C           sub         esp,1Ch
  0040C1C3: 31 C0              xor         eax,eax
  0040C1C5: 89 74 24 14        mov         dword ptr [esp+14h],esi
  0040C1C9: 8B 74 24 20        mov         esi,dword ptr [esp+20h]
  0040C1CD: 89 5C 24 10        mov         dword ptr [esp+10h],ebx
  0040C1D1: 89 7C 24 18        mov         dword ptr [esp+18h],edi
  0040C1D5: E8 B6 FE FF FF     call        0040C090
  0040C1DA: 83 FE 09           cmp         esi,9
  0040C1DD: 7F 16              jg          0040C1F5
  0040C1DF: 8B 1C B5 E0 13 41  mov         ebx,dword ptr [esi*4+4113E0h]
            00
  0040C1E6: 85 DB              test        ebx,ebx
  0040C1E8: 74 5C              je          0040C246
  0040C1EA: 8B 03              mov         eax,dword ptr [ebx]
  0040C1EC: 89 04 B5 E0 13 41  mov         dword ptr [esi*4+4113E0h],eax
            00
  0040C1F3: EB 2A              jmp         0040C21F
  0040C1F5: BF 01 00 00 00     mov         edi,1
  0040C1FA: 89 F1              mov         ecx,esi
  0040C1FC: D3 E7              shl         edi,cl
  0040C1FE: 8D 04 BD 1B 00 00  lea         eax,[edi*4+1Bh]
            00
  0040C205: C1 E8 03           shr         eax,3
  0040C208: C1 E0 03           shl         eax,3
  0040C20B: 89 04 24           mov         dword ptr [esp],eax
  0040C20E: E8 15 1D 00 00     call        0040DF28
  0040C213: 85 C0              test        eax,eax
  0040C215: 89 C3              mov         ebx,eax
  0040C217: 74 1B              je          0040C234
  0040C219: 89 73 04           mov         dword ptr [ebx+4],esi
  0040C21C: 89 7B 08           mov         dword ptr [ebx+8],edi
  0040C21F: 31 C0              xor         eax,eax
  0040C221: E8 2A FF FF FF     call        ___gethex_D2A
  0040C226: C7 43 10 00 00 00  mov         dword ptr [ebx+10h],0
            00
  0040C22D: C7 43 0C 00 00 00  mov         dword ptr [ebx+0Ch],0
            00
  0040C234: 89 D8              mov         eax,ebx
  0040C236: 8B 74 24 14        mov         esi,dword ptr [esp+14h]
  0040C23A: 8B 5C 24 10        mov         ebx,dword ptr [esp+10h]
  0040C23E: 8B 7C 24 18        mov         edi,dword ptr [esp+18h]
  0040C242: 83 C4 1C           add         esp,1Ch
  0040C245: C3                 ret
  0040C246: 8B 1D 74 F0 40 00  mov         ebx,dword ptr ds:[40F074h]
  0040C24C: BF 01 00 00 00     mov         edi,1
  0040C251: 89 F1              mov         ecx,esi
  0040C253: D3 E7              shl         edi,cl
  0040C255: 8D 04 BD 1B 00 00  lea         eax,[edi*4+1Bh]
            00
  0040C25C: C1 E8 03           shr         eax,3
  0040C25F: 89 DA              mov         edx,ebx
  0040C261: 81 EA 20 14 41 00  sub         edx,411420h
  0040C267: C1 FA 03           sar         edx,3
  0040C26A: 01 C2              add         edx,eax
  0040C26C: 81 FA 20 01 00 00  cmp         edx,120h
  0040C272: 77 94              ja          0040C208
  0040C274: 8D 04 C3           lea         eax,[ebx+eax*8]
  0040C277: A3 74 F0 40 00     mov         [0040F074],eax
  0040C27C: EB 9B              jmp         0040C219
  0040C27E: 66
  0040C27F: 90                 nop
  0040C280: 53                 push        ebx
  0040C281: 83 EC 08           sub         esp,8
  0040C284: 8B 5C 24 10        mov         ebx,dword ptr [esp+10h]
  0040C288: 85 DB              test        ebx,ebx
  0040C28A: 74 34              je          0040C2C0
  0040C28C: 83 7B 04 09        cmp         dword ptr [ebx+4],9
  0040C290: 7F 25              jg          0040C2B7
  0040C292: 31 C0              xor         eax,eax
  0040C294: E8 F7 FD FF FF     call        0040C090
  0040C299: 8B 43 04           mov         eax,dword ptr [ebx+4]
  0040C29C: 8B 14 85 E0 13 41  mov         edx,dword ptr [eax*4+4113E0h]
            00
  0040C2A3: 89 1C 85 E0 13 41  mov         dword ptr [eax*4+4113E0h],ebx
            00
  0040C2AA: 31 C0              xor         eax,eax
  0040C2AC: 89 13              mov         dword ptr [ebx],edx
  0040C2AE: 83 C4 08           add         esp,8
  0040C2B1: 5B                 pop         ebx
  0040C2B2: E9 99 FE FF FF     jmp         ___gethex_D2A
  0040C2B7: 83 C4 08           add         esp,8
  0040C2BA: 5B                 pop         ebx
  0040C2BB: E9 D8 1C 00 00     jmp         0040DF98
  0040C2C0: 83 C4 08           add         esp,8
  0040C2C3: 5B                 pop         ebx
  0040C2C4: C3                 ret
  0040C2C5: 8D 74 26 00        lea         esi,[esi]
  0040C2C9: 8D BC 27 00 00 00  lea         edi,[edi]
            00
  0040C2D0: 55                 push        ebp
  0040C2D1: 31 C9              xor         ecx,ecx
  0040C2D3: 57                 push        edi
  0040C2D4: 56                 push        esi
  0040C2D5: 53                 push        ebx
  0040C2D6: 83 EC 2C           sub         esp,2Ch
  0040C2D9: 8B 44 24 40        mov         eax,dword ptr [esp+40h]
  0040C2DD: 8B 74 24 48        mov         esi,dword ptr [esp+48h]
  0040C2E1: 8B 5C 24 40        mov         ebx,dword ptr [esp+40h]
  0040C2E5: 8B 40 10           mov         eax,dword ptr [eax+10h]
  0040C2E8: 89 F7              mov         edi,esi
  0040C2EA: 83 C3 14           add         ebx,14h
  0040C2ED: C1 FF 1F           sar         edi,1Fh
  0040C2F0: 89 44 24 1C        mov         dword ptr [esp+1Ch],eax
  0040C2F4: 8B 44 24 44        mov         eax,dword ptr [esp+44h]
  0040C2F8: 89 C2              mov         edx,eax
  0040C2FA: C1 FA 1F           sar         edx,1Fh
  0040C2FD: 89 44 24 10        mov         dword ptr [esp+10h],eax
  0040C301: 89 54 24 14        mov         dword ptr [esp+14h],edx
  0040C305: 8B 04 8B           mov         eax,dword ptr [ebx+ecx*4]
  0040C308: 8B 6C 24 14        mov         ebp,dword ptr [esp+14h]
  0040C30C: 0F AF E8           imul        ebp,eax
  0040C30F: F7 64 24 10        mul         eax,dword ptr [esp+10h]
  0040C313: 01 EA              add         edx,ebp
  0040C315: 01 F0              add         eax,esi
  0040C317: 11 FA              adc         edx,edi
  0040C319: 31 FF              xor         edi,edi
  0040C31B: 89 04 8B           mov         dword ptr [ebx+ecx*4],eax
  0040C31E: 83 C1 01           add         ecx,1
  0040C321: 89 D6              mov         esi,edx
  0040C323: 39 4C 24 1C        cmp         dword ptr [esp+1Ch],ecx
  0040C327: 7F DC              jg          0040C305
  0040C329: 89 F8              mov         eax,edi
  0040C32B: 09 D0              or          eax,edx
  0040C32D: 74 25              je          0040C354
  0040C32F: 8B 44 24 40        mov         eax,dword ptr [esp+40h]
  0040C333: 8B 54 24 1C        mov         edx,dword ptr [esp+1Ch]
  0040C337: 3B 50 08           cmp         edx,dword ptr [eax+8]
  0040C33A: 7D 24              jge         0040C360
  0040C33C: 8B 54 24 1C        mov         edx,dword ptr [esp+1Ch]
  0040C340: 8B 44 24 40        mov         eax,dword ptr [esp+40h]
  0040C344: 89 74 90 14        mov         dword ptr [eax+edx*4+14h],esi
  0040C348: 89 D0              mov         eax,edx
  0040C34A: 8B 54 24 40        mov         edx,dword ptr [esp+40h]
  0040C34E: 83 C0 01           add         eax,1
  0040C351: 89 42 10           mov         dword ptr [edx+10h],eax
  0040C354: 8B 44 24 40        mov         eax,dword ptr [esp+40h]
  0040C358: 83 C4 2C           add         esp,2Ch
  0040C35B: 5B                 pop         ebx
  0040C35C: 5E                 pop         esi
  0040C35D: 5F                 pop         edi
  0040C35E: 5D                 pop         ebp
  0040C35F: C3                 ret
  0040C360: 8B 40 04           mov         eax,dword ptr [eax+4]
  0040C363: 89 44 24 18        mov         dword ptr [esp+18h],eax
  0040C367: 83 C0 01           add         eax,1
  0040C36A: 89 04 24           mov         dword ptr [esp],eax
  0040C36D: E8 4E FE FF FF     call        0040C1C0
  0040C372: 85 C0              test        eax,eax
  0040C374: 89 C3              mov         ebx,eax
  0040C376: 74 3A              je          0040C3B2
  0040C378: 8B 54 24 40        mov         edx,dword ptr [esp+40h]
  0040C37C: 8D 48 0C           lea         ecx,[eax+0Ch]
  0040C37F: 8B 42 10           mov         eax,dword ptr [edx+10h]
  0040C382: 89 0C 24           mov         dword ptr [esp],ecx
  0040C385: 8D 14 85 08 00 00  lea         edx,[eax*4+8]
            00
  0040C38C: 8B 44 24 40        mov         eax,dword ptr [esp+40h]
  0040C390: 89 54 24 08        mov         dword ptr [esp+8],edx
  0040C394: 83 C0 0C           add         eax,0Ch
  0040C397: 89 44 24 04        mov         dword ptr [esp+4],eax
  0040C39B: E8 80 1B 00 00     call        0040DF20
  0040C3A0: 8B 44 24 40        mov         eax,dword ptr [esp+40h]
  0040C3A4: 89 04 24           mov         dword ptr [esp],eax
  0040C3A7: E8 D4 FE FF FF     call        0040C280
  0040C3AC: 89 5C 24 40        mov         dword ptr [esp+40h],ebx
  0040C3B0: EB 8A              jmp         0040C33C
  0040C3B2: C7 44 24 40 00 00  mov         dword ptr [esp+40h],0
            00 00
  0040C3BA: EB 98              jmp         0040C354
  0040C3BC: 8D 74 26 00        lea         esi,[esi]
  0040C3C0: 83 EC 1C           sub         esp,1Ch
  0040C3C3: C7 04 24 01 00 00  mov         dword ptr [esp],1
            00
  0040C3CA: E8 F1 FD FF FF     call        0040C1C0
  0040C3CF: 85 C0              test        eax,eax
  0040C3D1: 74 0E              je          0040C3E1
  0040C3D3: 8B 54 24 20        mov         edx,dword ptr [esp+20h]
  0040C3D7: C7 40 10 01 00 00  mov         dword ptr [eax+10h],1
            00
  0040C3DE: 89 50 14           mov         dword ptr [eax+14h],edx
  0040C3E1: 83 C4 1C           add         esp,1Ch
  0040C3E4: C3                 ret
  0040C3E5: 8D 74 26 00        lea         esi,[esi]
  0040C3E9: 8D BC 27 00 00 00  lea         edi,[edi]
            00
  0040C3F0: 55                 push        ebp
  0040C3F1: 57                 push        edi
  0040C3F2: 56                 push        esi
  0040C3F3: 53                 push        ebx
  0040C3F4: 83 EC 4C           sub         esp,4Ch
  0040C3F7: 8B 74 24 60        mov         esi,dword ptr [esp+60h]
  0040C3FB: 8B 6C 24 64        mov         ebp,dword ptr [esp+64h]
  0040C3FF: 8B 7E 10           mov         edi,dword ptr [esi+10h]
  0040C402: 8B 5D 10           mov         ebx,dword ptr [ebp+10h]
  0040C405: 39 DF              cmp         edi,ebx
  0040C407: 7D 0C              jge         0040C415
  0040C409: 89 F8              mov         eax,edi
  0040C40B: 89 DF              mov         edi,ebx
  0040C40D: 89 C3              mov         ebx,eax
  0040C40F: 89 F0              mov         eax,esi
  0040C411: 89 EE              mov         esi,ebp
  0040C413: 89 C5              mov         ebp,eax
  0040C415: 8D 0C 1F           lea         ecx,[edi+ebx]
  0040C418: 31 C0              xor         eax,eax
  0040C41A: 3B 4E 08           cmp         ecx,dword ptr [esi+8]
  0040C41D: 89 4C 24 30        mov         dword ptr [esp+30h],ecx
  0040C421: 0F 9F C0           setg        al
  0040C424: 03 46 04           add         eax,dword ptr [esi+4]
  0040C427: 89 04 24           mov         dword ptr [esp],eax
  0040C42A: E8 91 FD FF FF     call        0040C1C0
  0040C42F: 85 C0              test        eax,eax
  0040C431: 89 44 24 38        mov         dword ptr [esp+38h],eax
  0040C435: 0F 84 01 01 00 00  je          0040C53C
  0040C43B: 8B 54 24 38        mov         edx,dword ptr [esp+38h]
  0040C43F: 83 C0 14           add         eax,14h
  0040C442: 8B 4C 24 30        mov         ecx,dword ptr [esp+30h]
  0040C446: 8D 4C 8A 14        lea         ecx,[edx+ecx*4+14h]
  0040C44A: 89 C2              mov         edx,eax
  0040C44C: 39 C8              cmp         eax,ecx
  0040C44E: 89 4C 24 3C        mov         dword ptr [esp+3Ch],ecx
  0040C452: 73 11              jae         0040C465
  0040C454: 8B 4C 24 3C        mov         ecx,dword ptr [esp+3Ch]
  0040C458: C7 02 00 00 00 00  mov         dword ptr [edx],0
  0040C45E: 83 C2 04           add         edx,4
  0040C461: 39 D1              cmp         ecx,edx
  0040C463: 77 F3              ja          0040C458
  0040C465: 8D 4E 14           lea         ecx,[esi+14h]
  0040C468: 89 4C 24 34        mov         dword ptr [esp+34h],ecx
  0040C46C: 8D 4D 14           lea         ecx,[ebp+14h]
  0040C46F: 8D 6C 9D 14        lea         ebp,[ebp+ebx*4+14h]
  0040C473: 8D 74 BE 14        lea         esi,[esi+edi*4+14h]
  0040C477: 39 E9              cmp         ecx,ebp
  0040C479: 89 74 24 24        mov         dword ptr [esp+24h],esi
  0040C47D: 89 4C 24 20        mov         dword ptr [esp+20h],ecx
  0040C481: 89 6C 24 2C        mov         dword ptr [esp+2Ch],ebp
  0040C485: 89 44 24 28        mov         dword ptr [esp+28h],eax
  0040C489: 73 70              jae         0040C4FB
  0040C48B: 90                 nop
  0040C48C: 8D 74 26 00        lea         esi,[esi]
  0040C490: 8B 4C 24 20        mov         ecx,dword ptr [esp+20h]
  0040C494: 8B 29              mov         ebp,dword ptr [ecx]
  0040C496: 83 C1 04           add         ecx,4
  0040C499: 89 4C 24 20        mov         dword ptr [esp+20h],ecx
  0040C49D: 85 ED              test        ebp,ebp
  0040C49F: 74 4B              je          0040C4EC
  0040C4A1: 8B 74 24 28        mov         esi,dword ptr [esp+28h]
  0040C4A5: 31 C9              xor         ecx,ecx
  0040C4A7: 31 DB              xor         ebx,ebx
  0040C4A9: 8B 7C 24 34        mov         edi,dword ptr [esp+34h]
  0040C4AD: 8D 76 00           lea         esi,[esi]
  0040C4B0: 8B 07              mov         eax,dword ptr [edi]
  0040C4B2: F7 E5              mul         eax,ebp
  0040C4B4: 89 44 24 10        mov         dword ptr [esp+10h],eax
  0040C4B8: 8B 06              mov         eax,dword ptr [esi]
  0040C4BA: 89 54 24 14        mov         dword ptr [esp+14h],edx
  0040C4BE: 31 D2              xor         edx,edx
  0040C4C0: 01 44 24 10        add         dword ptr [esp+10h],eax
  0040C4C4: 11 54 24 14        adc         dword ptr [esp+14h],edx
  0040C4C8: 01 4C 24 10        add         dword ptr [esp+10h],ecx
  0040C4CC: 11 5C 24 14        adc         dword ptr [esp+14h],ebx
  0040C4D0: 83 C7 04           add         edi,4
  0040C4D3: 8B 5C 24 14        mov         ebx,dword ptr [esp+14h]
  0040C4D7: 8B 54 24 10        mov         edx,dword ptr [esp+10h]
  0040C4DB: 89 D9              mov         ecx,ebx
  0040C4DD: 31 DB              xor         ebx,ebx
  0040C4DF: 89 16              mov         dword ptr [esi],edx
  0040C4E1: 83 C6 04           add         esi,4
  0040C4E4: 39 7C 24 24        cmp         dword ptr [esp+24h],edi
  0040C4E8: 77 C6              ja          0040C4B0
  0040C4EA: 89 0E              mov         dword ptr [esi],ecx
  0040C4EC: 8B 4C 24 20        mov         ecx,dword ptr [esp+20h]
  0040C4F0: 83 44 24 28 04     add         dword ptr [esp+28h],4
  0040C4F5: 39 4C 24 2C        cmp         dword ptr [esp+2Ch],ecx
  0040C4F9: 77 95              ja          0040C490
  0040C4FB: 8B 44 24 30        mov         eax,dword ptr [esp+30h]
  0040C4FF: 85 C0              test        eax,eax
  0040C501: 7E 2E              jle         0040C531
  0040C503: 8B 4C 24 3C        mov         ecx,dword ptr [esp+3Ch]
  0040C507: 8B 59 FC           mov         ebx,dword ptr [ecx-4]
  0040C50A: 85 DB              test        ebx,ebx
  0040C50C: 75 23              jne         0040C531
  0040C50E: 8B 44 24 30        mov         eax,dword ptr [esp+30h]
  0040C512: 8B 54 24 30        mov         edx,dword ptr [esp+30h]
  0040C516: F7 D8              neg         eax
  0040C518: 8D 04 81           lea         eax,[ecx+eax*4]
  0040C51B: EB 0B              jmp         0040C528
  0040C51D: 8D 76 00           lea         esi,[esi]
  0040C520: 8B 4C 90 FC        mov         ecx,dword ptr [eax+edx*4-4]
  0040C524: 85 C9              test        ecx,ecx
  0040C526: 75 05              jne         0040C52D
  0040C528: 83 EA 01           sub         edx,1
  0040C52B: 75 F3              jne         0040C520
  0040C52D: 89 54 24 30        mov         dword ptr [esp+30h],edx
  0040C531: 8B 4C 24 30        mov         ecx,dword ptr [esp+30h]
  0040C535: 8B 44 24 38        mov         eax,dword ptr [esp+38h]
  0040C539: 89 48 10           mov         dword ptr [eax+10h],ecx
  0040C53C: 8B 44 24 38        mov         eax,dword ptr [esp+38h]
  0040C540: 83 C4 4C           add         esp,4Ch
  0040C543: 5B                 pop         ebx
  0040C544: 5E                 pop         esi
  0040C545: 5F                 pop         edi
  0040C546: 5D                 pop         ebp
  0040C547: C3                 ret
  0040C548: 90                 nop
  0040C549: 8D B4 26 00 00 00  lea         esi,[esi]
            00
  0040C550: 55                 push        ebp
  0040C551: 57                 push        edi
  0040C552: 56                 push        esi
  0040C553: 53                 push        ebx
  0040C554: 83 EC 1C           sub         esp,1Ch
  0040C557: 8B 5C 24 34        mov         ebx,dword ptr [esp+34h]
  0040C55B: 8B 7C 24 30        mov         edi,dword ptr [esp+30h]
  0040C55F: 89 D8              mov         eax,ebx
  0040C561: 83 E0 03           and         eax,3
  0040C564: 75 7A              jne         0040C5E0
  0040C566: C1 FB 02           sar         ebx,2
  0040C569: 85 DB              test        ebx,ebx
  0040C56B: 74 44              je          0040C5B1
  0040C56D: 8B 35 70 1D 41 00  mov         esi,dword ptr ds:[411D70h]
  0040C573: 85 F6              test        esi,esi
  0040C575: 75 15              jne         0040C58C
  0040C577: E9 B1 00 00 00     jmp         0040C62D
  0040C57C: 8D 74 26 00        lea         esi,[esi]
  0040C580: D1 FB              sar         ebx,1
  0040C582: 74 2D              je          0040C5B1
  0040C584: 8B 16              mov         edx,dword ptr [esi]
  0040C586: 85 D2              test        edx,edx
  0040C588: 74 36              je          0040C5C0
  0040C58A: 89 D6              mov         esi,edx
  0040C58C: F6 C3 01           test        bl,1
  0040C58F: 74 EF              je          0040C580
  0040C591: 89 74 24 04        mov         dword ptr [esp+4],esi
  0040C595: 89 3C 24           mov         dword ptr [esp],edi
  0040C598: E8 53 FE FF FF     call        0040C3F0
  0040C59D: 85 C0              test        eax,eax
  0040C59F: 89 C5              mov         ebp,eax
  0040C5A1: 74 62              je          0040C605
  0040C5A3: 89 3C 24           mov         dword ptr [esp],edi
  0040C5A6: 89 EF              mov         edi,ebp
  0040C5A8: E8 D3 FC FF FF     call        0040C280
  0040C5AD: D1 FB              sar         ebx,1
  0040C5AF: 75 D3              jne         0040C584
  0040C5B1: 83 C4 1C           add         esp,1Ch
  0040C5B4: 89 F8              mov         eax,edi
  0040C5B6: 5B                 pop         ebx
  0040C5B7: 5E                 pop         esi
  0040C5B8: 5F                 pop         edi
  0040C5B9: 5D                 pop         ebp
  0040C5BA: C3                 ret
  0040C5BB: 90                 nop
  0040C5BC: 8D 74 26 00        lea         esi,[esi]
  0040C5C0: B8 01 00 00 00     mov         eax,1
  0040C5C5: E8 C6 FA FF FF     call        0040C090
  0040C5CA: 8B 2E              mov         ebp,dword ptr [esi]
  0040C5CC: 85 ED              test        ebp,ebp
  0040C5CE: 74 41              je          0040C611
  0040C5D0: B8 01 00 00 00     mov         eax,1
  0040C5D5: 89 EE              mov         esi,ebp
  0040C5D7: E8 74 FB FF FF     call        ___gethex_D2A
  0040C5DC: EB AE              jmp         0040C58C
  0040C5DE: 66
  0040C5DF: 90                 nop
  0040C5E0: 8B 04 85 A4 09 41  mov         eax,dword ptr [eax*4+4109A4h]
            00
  0040C5E7: 89 3C 24           mov         dword ptr [esp],edi
  0040C5EA: C7 44 24 08 00 00  mov         dword ptr [esp+8],0
            00 00
  0040C5F2: 89 44 24 04        mov         dword ptr [esp+4],eax
  0040C5F6: E8 D5 FC FF FF     call        0040C2D0
  0040C5FB: 85 C0              test        eax,eax
  0040C5FD: 89 C7              mov         edi,eax
  0040C5FF: 0F 85 61 FF FF FF  jne         0040C566
  0040C605: 83 C4 1C           add         esp,1Ch
  0040C608: 31 FF              xor         edi,edi
  0040C60A: 5B                 pop         ebx
  0040C60B: 89 F8              mov         eax,edi
  0040C60D: 5E                 pop         esi
  0040C60E: 5F                 pop         edi
  0040C60F: 5D                 pop         ebp
  0040C610: C3                 ret
  0040C611: 89 74 24 04        mov         dword ptr [esp+4],esi
  0040C615: 89 34 24           mov         dword ptr [esp],esi
  0040C618: E8 D3 FD FF FF     call        0040C3F0
  0040C61D: 85 C0              test        eax,eax
  0040C61F: 89 C5              mov         ebp,eax
  0040C621: 89 06              mov         dword ptr [esi],eax
  0040C623: 74 E0              je          0040C605
  0040C625: C7 00 00 00 00 00  mov         dword ptr [eax],0
  0040C62B: EB A3              jmp         0040C5D0
  0040C62D: B8 01 00 00 00     mov         eax,1
  0040C632: E8 59 FA FF FF     call        0040C090
  0040C637: 8B 35 70 1D 41 00  mov         esi,dword ptr ds:[411D70h]
  0040C63D: 85 F6              test        esi,esi
  0040C63F: 74 0F              je          0040C650
  0040C641: B8 01 00 00 00     mov         eax,1
  0040C646: E8 05 FB FF FF     call        ___gethex_D2A
  0040C64B: E9 3C FF FF FF     jmp         0040C58C
  0040C650: C7 04 24 71 02 00  mov         dword ptr [esp],271h
            00
  0040C657: E8 64 FD FF FF     call        0040C3C0
  0040C65C: 85 C0              test        eax,eax
  0040C65E: 89 C6              mov         esi,eax
  0040C660: A3 70 1D 41 00     mov         [00411D70],eax
  0040C665: 74 9E              je          0040C605
  0040C667: C7 00 00 00 00 00  mov         dword ptr [eax],0
  0040C66D: EB D2              jmp         0040C641
  0040C66F: 90                 nop
  0040C670: 55                 push        ebp
  0040C671: 57                 push        edi
  0040C672: 56                 push        esi
  0040C673: 53                 push        ebx
  0040C674: 83 EC 3C           sub         esp,3Ch
  0040C677: 8B 6C 24 50        mov         ebp,dword ptr [esp+50h]
  0040C67B: 8B 74 24 54        mov         esi,dword ptr [esp+54h]
  0040C67F: 8B 45 10           mov         eax,dword ptr [ebp+10h]
  0040C682: 89 F3              mov         ebx,esi
  0040C684: 8B 55 04           mov         edx,dword ptr [ebp+4]
  0040C687: C1 FB 05           sar         ebx,5
  0040C68A: 01 D8              add         eax,ebx
  0040C68C: 89 C7              mov         edi,eax
  0040C68E: 89 44 24 28        mov         dword ptr [esp+28h],eax
  0040C692: 8B 45 08           mov         eax,dword ptr [ebp+8]
  0040C695: 83 C7 01           add         edi,1
  0040C698: 39 C7              cmp         edi,eax
  0040C69A: 7E 0D              jle         0040C6A9
  0040C69C: 8D 74 26 00        lea         esi,[esi]
  0040C6A0: 01 C0              add         eax,eax
  0040C6A2: 83 C2 01           add         edx,1
  0040C6A5: 39 C7              cmp         edi,eax
  0040C6A7: 7F F7              jg          0040C6A0
  0040C6A9: 89 14 24           mov         dword ptr [esp],edx
  0040C6AC: E8 0F FB FF FF     call        0040C1C0
  0040C6B1: 85 C0              test        eax,eax
  0040C6B3: 89 44 24 1C        mov         dword ptr [esp+1Ch],eax
  0040C6B7: 0F 84 8A 00 00 00  je          0040C747
  0040C6BD: 83 C0 14           add         eax,14h
  0040C6C0: 85 DB              test        ebx,ebx
  0040C6C2: 7E 18              jle         0040C6DC
  0040C6C4: 31 D2              xor         edx,edx
  0040C6C6: C7 04 90 00 00 00  mov         dword ptr [eax+edx*4],0
            00
  0040C6CD: 83 C2 01           add         edx,1
  0040C6D0: 39 DA              cmp         edx,ebx
  0040C6D2: 75 F2              jne         0040C6C6
  0040C6D4: 8B 4C 24 1C        mov         ecx,dword ptr [esp+1Ch]
  0040C6D8: 8D 44 91 14        lea         eax,[ecx+edx*4+14h]
  0040C6DC: 8B 4D 10           mov         ecx,dword ptr [ebp+10h]
  0040C6DF: 83 E6 1F           and         esi,1Fh
  0040C6E2: 8D 55 14           lea         edx,[ebp+14h]
  0040C6E5: 89 74 24 20        mov         dword ptr [esp+20h],esi
  0040C6E9: 8D 5C 8D 14        lea         ebx,[ebp+ecx*4+14h]
  0040C6ED: 74 64              je          0040C753
  0040C6EF: C7 44 24 24 20 00  mov         dword ptr [esp+24h],20h
            00 00
  0040C6F7: 89 6C 24 2C        mov         dword ptr [esp+2Ch],ebp
  0040C6FB: 89 DD              mov         ebp,ebx
  0040C6FD: 29 74 24 24        sub         dword ptr [esp+24h],esi
  0040C701: 31 F6              xor         esi,esi
  0040C703: 8B 1A              mov         ebx,dword ptr [edx]
  0040C705: 0F B6 4C 24 20     movzx       ecx,byte ptr [esp+20h]
  0040C70A: D3 E3              shl         ebx,cl
  0040C70C: 0F B6 4C 24 24     movzx       ecx,byte ptr [esp+24h]
  0040C711: 09 F3              or          ebx,esi
  0040C713: 89 18              mov         dword ptr [eax],ebx
  0040C715: 8B 32              mov         esi,dword ptr [edx]
  0040C717: 83 C2 04           add         edx,4
  0040C71A: 83 C0 04           add         eax,4
  0040C71D: D3 EE              shr         esi,cl
  0040C71F: 39 D5              cmp         ebp,edx
  0040C721: 77 E0              ja          0040C703
  0040C723: 89 30              mov         dword ptr [eax],esi
  0040C725: 8B 44 24 28        mov         eax,dword ptr [esp+28h]
  0040C729: 8B 6C 24 2C        mov         ebp,dword ptr [esp+2Ch]
  0040C72D: 83 C0 02           add         eax,2
  0040C730: 85 F6              test        esi,esi
  0040C732: 0F 45 F8           cmovne      edi,eax
  0040C735: 8B 44 24 1C        mov         eax,dword ptr [esp+1Ch]
  0040C739: 83 EF 01           sub         edi,1
  0040C73C: 89 78 10           mov         dword ptr [eax+10h],edi
  0040C73F: 89 2C 24           mov         dword ptr [esp],ebp
  0040C742: E8 39 FB FF FF     call        0040C280
  0040C747: 8B 44 24 1C        mov         eax,dword ptr [esp+1Ch]
  0040C74B: 83 C4 3C           add         esp,3Ch
  0040C74E: 5B                 pop         ebx
  0040C74F: 5E                 pop         esi
  0040C750: 5F                 pop         edi
  0040C751: 5D                 pop         ebp
  0040C752: C3                 ret
  0040C753: 8B 0A              mov         ecx,dword ptr [edx]
  0040C755: 83 C2 04           add         edx,4
  0040C758: 89 08              mov         dword ptr [eax],ecx
  0040C75A: 83 C0 04           add         eax,4
  0040C75D: 39 D3              cmp         ebx,edx
  0040C75F: 76 D4              jbe         0040C735
  0040C761: 8B 0A              mov         ecx,dword ptr [edx]
  0040C763: 83 C2 04           add         edx,4
  0040C766: 89 08              mov         dword ptr [eax],ecx
  0040C768: 83 C0 04           add         eax,4
  0040C76B: 39 D3              cmp         ebx,edx
  0040C76D: 77 E4              ja          0040C753
  0040C76F: EB C4              jmp         0040C735
  0040C771: EB 0D              jmp         0040C780
  0040C773: 90                 nop
  0040C774: 90                 nop
  0040C775: 90                 nop
  0040C776: 90                 nop
  0040C777: 90                 nop
  0040C778: 90                 nop
  0040C779: 90                 nop
  0040C77A: 90                 nop
  0040C77B: 90                 nop
  0040C77C: 90                 nop
  0040C77D: 90                 nop
  0040C77E: 90                 nop
  0040C77F: 90                 nop
  0040C780: 83 EC 0C           sub         esp,0Ch
  0040C783: 89 74 24 04        mov         dword ptr [esp+4],esi
  0040C787: 8B 4C 24 10        mov         ecx,dword ptr [esp+10h]
  0040C78B: 8B 74 24 14        mov         esi,dword ptr [esp+14h]
  0040C78F: 89 1C 24           mov         dword ptr [esp],ebx
  0040C792: 89 7C 24 08        mov         dword ptr [esp+8],edi
  0040C796: 8B 41 10           mov         eax,dword ptr [ecx+10h]
  0040C799: 8B 56 10           mov         edx,dword ptr [esi+10h]
  0040C79C: 29 D0              sub         eax,edx
  0040C79E: 75 22              jne         0040C7C2
  0040C7A0: 8D 3C 95 10 00 00  lea         edi,[edx*4+10h]
            00
  0040C7A7: 8D 59 14           lea         ebx,[ecx+14h]
  0040C7AA: 8D 54 39 04        lea         edx,[ecx+edi+4]
  0040C7AE: 8D 4C 3E 04        lea         ecx,[esi+edi+4]
  0040C7B2: 83 E9 04           sub         ecx,4
  0040C7B5: 83 EA 04           sub         edx,4
  0040C7B8: 8B 31              mov         esi,dword ptr [ecx]
  0040C7BA: 39 32              cmp         dword ptr [edx],esi
  0040C7BC: 75 13              jne         0040C7D1
  0040C7BE: 39 D3              cmp         ebx,edx
  0040C7C0: 72 F0              jb          0040C7B2
  0040C7C2: 8B 1C 24           mov         ebx,dword ptr [esp]
  0040C7C5: 8B 74 24 04        mov         esi,dword ptr [esp+4]
  0040C7C9: 8B 7C 24 08        mov         edi,dword ptr [esp+8]
  0040C7CD: 83 C4 0C           add         esp,0Ch
  0040C7D0: C3                 ret
  0040C7D1: 19 C0              sbb         eax,eax
  0040C7D3: 8B 1C 24           mov         ebx,dword ptr [esp]
  0040C7D6: 83 C8 01           or          eax,1
  0040C7D9: 8B 74 24 04        mov         esi,dword ptr [esp+4]
  0040C7DD: 8B 7C 24 08        mov         edi,dword ptr [esp+8]
  0040C7E1: 83 C4 0C           add         esp,0Ch
  0040C7E4: C3                 ret
  0040C7E5: 8D 74 26 00        lea         esi,[esi]
  0040C7E9: 8D BC 27 00 00 00  lea         edi,[edi]
            00
  0040C7F0: 55                 push        ebp
  0040C7F1: 57                 push        edi
  0040C7F2: 56                 push        esi
  0040C7F3: 53                 push        ebx
  0040C7F4: 83 EC 3C           sub         esp,3Ch
  0040C7F7: 8B 7C 24 50        mov         edi,dword ptr [esp+50h]
  0040C7FB: 8B 5C 24 54        mov         ebx,dword ptr [esp+54h]
  0040C7FF: 89 3C 24           mov         dword ptr [esp],edi
  0040C802: 89 5C 24 04        mov         dword ptr [esp+4],ebx
  0040C806: E8 75 FF FF FF     call        0040C780
  0040C80B: 83 F8 00           cmp         eax,0
  0040C80E: 0F 84 1C 01 00 00  je          0040C930
  0040C814: 0F 8C 48 01 00 00  jl          0040C962
  0040C81A: 31 F6              xor         esi,esi
  0040C81C: 8B 47 04           mov         eax,dword ptr [edi+4]
  0040C81F: 89 04 24           mov         dword ptr [esp],eax
  0040C822: E8 99 F9 FF FF     call        0040C1C0
  0040C827: 85 C0              test        eax,eax
  0040C829: 89 44 24 24        mov         dword ptr [esp+24h],eax
  0040C82D: 0F 84 3F 01 00 00  je          0040C972
  0040C833: 8B 6F 10           mov         ebp,dword ptr [edi+10h]
  0040C836: 8D 53 14           lea         edx,[ebx+14h]
  0040C839: 31 C9              xor         ecx,ecx
  0040C83B: 89 70 0C           mov         dword ptr [eax+0Ch],esi
  0040C83E: 8B 43 10           mov         eax,dword ptr [ebx+10h]
  0040C841: 8D 77 14           lea         esi,[edi+14h]
  0040C844: 89 4C 24 10        mov         dword ptr [esp+10h],ecx
  0040C848: 8D 7C AF 14        lea         edi,[edi+ebp*4+14h]
  0040C84C: 89 7C 24 28        mov         dword ptr [esp+28h],edi
  0040C850: 8B 7C 24 24        mov         edi,dword ptr [esp+24h]
  0040C854: 8D 44 83 14        lea         eax,[ebx+eax*4+14h]
  0040C858: 31 DB              xor         ebx,ebx
  0040C85A: 89 6C 24 2C        mov         dword ptr [esp+2Ch],ebp
  0040C85E: 89 D5              mov         ebp,edx
  0040C860: 89 44 24 20        mov         dword ptr [esp+20h],eax
  0040C864: 83 C7 14           add         edi,14h
  0040C867: 89 5C 24 14        mov         dword ptr [esp+14h],ebx
  0040C86B: 90                 nop
  0040C86C: 8D 74 26 00        lea         esi,[esi]
  0040C870: 8B 06              mov         eax,dword ptr [esi]
  0040C872: 31 D2              xor         edx,edx
  0040C874: 31 DB              xor         ebx,ebx
  0040C876: 8B 4D 00           mov         ecx,dword ptr [ebp]
  0040C879: 29 C8              sub         eax,ecx
  0040C87B: 19 DA              sbb         edx,ebx
  0040C87D: 2B 44 24 10        sub         eax,dword ptr [esp+10h]
  0040C881: 1B 54 24 14        sbb         edx,dword ptr [esp+14h]
  0040C885: 83 C6 04           add         esi,4
  0040C888: 83 C5 04           add         ebp,4
  0040C88B: 89 07              mov         dword ptr [edi],eax
  0040C88D: 83 C7 04           add         edi,4
  0040C890: 83 E2 01           and         edx,1
  0040C893: 39 6C 24 20        cmp         dword ptr [esp+20h],ebp
  0040C897: 89 54 24 10        mov         dword ptr [esp+10h],edx
  0040C89B: 89 C2              mov         edx,eax
  0040C89D: C7 44 24 14 00 00  mov         dword ptr [esp+14h],0
            00 00
  0040C8A5: 77 C9              ja          0040C870
  0040C8A7: 39 74 24 28        cmp         dword ptr [esp+28h],esi
  0040C8AB: 8B 4C 24 10        mov         ecx,dword ptr [esp+10h]
  0040C8AF: 8B 5C 24 14        mov         ebx,dword ptr [esp+14h]
  0040C8B3: 8B 6C 24 2C        mov         ebp,dword ptr [esp+2Ch]
  0040C8B7: 89 7C 24 20        mov         dword ptr [esp+20h],edi
  0040C8BB: 89 74 24 18        mov         dword ptr [esp+18h],esi
  0040C8BF: 76 3D              jbe         0040C8FE
  0040C8C1: 8B 6C 24 28        mov         ebp,dword ptr [esp+28h]
  0040C8C5: 8B 06              mov         eax,dword ptr [esi]
  0040C8C7: 31 D2              xor         edx,edx
  0040C8C9: 29 C8              sub         eax,ecx
  0040C8CB: 19 DA              sbb         edx,ebx
  0040C8CD: 83 C6 04           add         esi,4
  0040C8D0: 89 D1              mov         ecx,edx
  0040C8D2: 31 DB              xor         ebx,ebx
  0040C8D4: 83 E1 01           and         ecx,1
  0040C8D7: 89 C2              mov         edx,eax
  0040C8D9: 89 07              mov         dword ptr [edi],eax
  0040C8DB: 83 C7 04           add         edi,4
  0040C8DE: 39 F5              cmp         ebp,esi
  0040C8E0: 77 E3              ja          0040C8C5
  0040C8E2: 8B 5C 24 18        mov         ebx,dword ptr [esp+18h]
  0040C8E6: 8B 4C 24 28        mov         ecx,dword ptr [esp+28h]
  0040C8EA: 8B 6C 24 2C        mov         ebp,dword ptr [esp+2Ch]
  0040C8EE: F7 D3              not         ebx
  0040C8F0: 8D 04 0B           lea         eax,[ebx+ecx]
  0040C8F3: 8B 5C 24 20        mov         ebx,dword ptr [esp+20h]
  0040C8F7: C1 E8 02           shr         eax,2
  0040C8FA: 8D 7C 83 04        lea         edi,[ebx+eax*4+4]
  0040C8FE: 85 D2              test        edx,edx
  0040C900: 75 19              jne         0040C91B
  0040C902: 89 E8              mov         eax,ebp
  0040C904: F7 D8              neg         eax
  0040C906: 8D 04 87           lea         eax,[edi+eax*4]
  0040C909: 8D B4 26 00 00 00  lea         esi,[esi]
            00
  0040C910: 83 ED 01           sub         ebp,1
  0040C913: 8B 54 A8 FC        mov         edx,dword ptr [eax+ebp*4-4]
  0040C917: 85 D2              test        edx,edx
  0040C919: 74 F5              je          0040C910
  0040C91B: 8B 44 24 24        mov         eax,dword ptr [esp+24h]
  0040C91F: 89 68 10           mov         dword ptr [eax+10h],ebp
  0040C922: 8B 44 24 24        mov         eax,dword ptr [esp+24h]
  0040C926: 83 C4 3C           add         esp,3Ch
  0040C929: 5B                 pop         ebx
  0040C92A: 5E                 pop         esi
  0040C92B: 5F                 pop         edi
  0040C92C: 5D                 pop         ebp
  0040C92D: C3                 ret
  0040C92E: 66
  0040C92F: 90                 nop
  0040C930: C7 04 24 00 00 00  mov         dword ptr [esp],0
            00
  0040C937: E8 84 F8 FF FF     call        0040C1C0
  0040C93C: 85 C0              test        eax,eax
  0040C93E: 89 44 24 24        mov         dword ptr [esp+24h],eax
  0040C942: 74 2E              je          0040C972
  0040C944: 8B 44 24 24        mov         eax,dword ptr [esp+24h]
  0040C948: C7 40 10 01 00 00  mov         dword ptr [eax+10h],1
            00
  0040C94F: C7 40 14 00 00 00  mov         dword ptr [eax+14h],0
            00
  0040C956: 8B 44 24 24        mov         eax,dword ptr [esp+24h]
  0040C95A: 83 C4 3C           add         esp,3Ch
  0040C95D: 5B                 pop         ebx
  0040C95E: 5E                 pop         esi
  0040C95F: 5F                 pop         edi
  0040C960: 5D                 pop         ebp
  0040C961: C3                 ret
  0040C962: 89 F8              mov         eax,edi
  0040C964: BE 01 00 00 00     mov         esi,1
  0040C969: 89 DF              mov         edi,ebx
  0040C96B: 89 C3              mov         ebx,eax
  0040C96D: E9 AA FE FF FF     jmp         0040C81C
  0040C972: C7 44 24 24 00 00  mov         dword ptr [esp+24h],0
            00 00
  0040C97A: EB A6              jmp         0040C922
  0040C97C: 8D 74 26 00        lea         esi,[esi]
  0040C980: 83 EC 24           sub         esp,24h
  0040C983: 8B 44 24 28        mov         eax,dword ptr [esp+28h]
  0040C987: 89 74 24 18        mov         dword ptr [esp+18h],esi
  0040C98B: 8B 4C 24 2C        mov         ecx,dword ptr [esp+2Ch]
  0040C98F: 89 7C 24 1C        mov         dword ptr [esp+1Ch],edi
  0040C993: 89 5C 24 14        mov         dword ptr [esp+14h],ebx
  0040C997: 8D 50 14           lea         edx,[eax+14h]
  0040C99A: 89 54 24 0C        mov         dword ptr [esp+0Ch],edx
  0040C99E: 8B 50 10           mov         edx,dword ptr [eax+10h]
  0040C9A1: 89 6C 24 20        mov         dword ptr [esp+20h],ebp
  0040C9A5: 8D 74 90 10        lea         esi,[eax+edx*4+10h]
  0040C9A9: BA 20 00 00 00     mov         edx,20h
  0040C9AE: 8D 7E 04           lea         edi,[esi+4]
  0040C9B1: 8B 5F FC           mov         ebx,dword ptr [edi-4]
  0040C9B4: 0F BD C3           bsr         eax,ebx
  0040C9B7: 83 F0 1F           xor         eax,1Fh
  0040C9BA: 29 C2              sub         edx,eax
  0040C9BC: 83 F8 0A           cmp         eax,0Ah
  0040C9BF: 89 11              mov         dword ptr [ecx],edx
  0040C9C1: 7F 4D              jg          0040CA10
  0040C9C3: B9 0B 00 00 00     mov         ecx,0Bh
  0040C9C8: 89 DA              mov         edx,ebx
  0040C9CA: 29 C1              sub         ecx,eax
  0040C9CC: D3 EA              shr         edx,cl
  0040C9CE: 81 CA 00 00 F0 3F  or          edx,3FF00000h
  0040C9D4: 89 54 24 04        mov         dword ptr [esp+4],edx
  0040C9D8: 31 D2              xor         edx,edx
  0040C9DA: 39 74 24 0C        cmp         dword ptr [esp+0Ch],esi
  0040C9DE: C7 04 24 00 00 00  mov         dword ptr [esp],0
            00
  0040C9E5: 73 05              jae         0040C9EC
  0040C9E7: 8B 57 F8           mov         edx,dword ptr [edi-8]
  0040C9EA: D3 EA              shr         edx,cl
  0040C9EC: 8D 48 15           lea         ecx,[eax+15h]
  0040C9EF: D3 E3              shl         ebx,cl
  0040C9F1: 09 DA              or          edx,ebx
  0040C9F3: 89 14 24           mov         dword ptr [esp],edx
  0040C9F6: DD 04 24           fld         qword ptr [esp]
  0040C9F9: 8B 5C 24 14        mov         ebx,dword ptr [esp+14h]
  0040C9FD: 8B 74 24 18        mov         esi,dword ptr [esp+18h]
  0040CA01: 8B 7C 24 1C        mov         edi,dword ptr [esp+1Ch]
  0040CA05: 8B 6C 24 20        mov         ebp,dword ptr [esp+20h]
  0040CA09: 83 C4 24           add         esp,24h
  0040CA0C: C3                 ret
  0040CA0D: 8D 76 00           lea         esi,[esi]
  0040CA10: 31 D2              xor         edx,edx
  0040CA12: 89 F5              mov         ebp,esi
  0040CA14: 39 74 24 0C        cmp         dword ptr [esp+0Ch],esi
  0040CA18: 73 06              jae         0040CA20
  0040CA1A: 8B 57 F8           mov         edx,dword ptr [edi-8]
  0040CA1D: 83 ED 04           sub         ebp,4
  0040CA20: 89 C7              mov         edi,eax
  0040CA22: 83 EF 0B           sub         edi,0Bh
  0040CA25: 74 3C              je          0040CA63
  0040CA27: BE 2B 00 00 00     mov         esi,2Bh
  0040CA2C: 89 F9              mov         ecx,edi
  0040CA2E: 29 C6              sub         esi,eax
  0040CA30: 89 D0              mov         eax,edx
  0040CA32: D3 E3              shl         ebx,cl
  0040CA34: 89 F1              mov         ecx,esi
  0040CA36: D3 E8              shr         eax,cl
  0040CA38: 81 CB 00 00 F0 3F  or          ebx,3FF00000h
  0040CA3E: 09 C3              or          ebx,eax
  0040CA40: 31 C0              xor         eax,eax
  0040CA42: 3B 6C 24 0C        cmp         ebp,dword ptr [esp+0Ch]
  0040CA46: C7 04 24 00 00 00  mov         dword ptr [esp],0
            00
  0040CA4D: 89 5C 24 04        mov         dword ptr [esp+4],ebx
  0040CA51: 76 05              jbe         0040CA58
  0040CA53: 8B 45 FC           mov         eax,dword ptr [ebp-4]
  0040CA56: D3 E8              shr         eax,cl
  0040CA58: 89 F9              mov         ecx,edi
  0040CA5A: D3 E2              shl         edx,cl
  0040CA5C: 09 D0              or          eax,edx
  0040CA5E: 89 04 24           mov         dword ptr [esp],eax
  0040CA61: EB 93              jmp         0040C9F6
  0040CA63: 81 CB 00 00 F0 3F  or          ebx,3FF00000h
  0040CA69: 89 5C 24 04        mov         dword ptr [esp+4],ebx
  0040CA6D: 89 14 24           mov         dword ptr [esp],edx
  0040CA70: EB 84              jmp         0040C9F6
  0040CA72: 8D B4 26 00 00 00  lea         esi,[esi]
            00
  0040CA79: 8D BC 27 00 00 00  lea         edi,[edi]
            00
  0040CA80: 83 EC 3C           sub         esp,3Ch
  0040CA83: DD 44 24 40        fld         qword ptr [esp+40h]
  0040CA87: C7 04 24 01 00 00  mov         dword ptr [esp],1
            00
  0040CA8E: DD 5C 24 18        fstp        qword ptr [esp+18h]
  0040CA92: 89 5C 24 2C        mov         dword ptr [esp+2Ch],ebx
  0040CA96: 89 74 24 30        mov         dword ptr [esp+30h],esi
  0040CA9A: 89 7C 24 34        mov         dword ptr [esp+34h],edi
  0040CA9E: 89 6C 24 38        mov         dword ptr [esp+38h],ebp
  0040CAA2: E8 19 F7 FF FF     call        0040C1C0
  0040CAA7: 85 C0              test        eax,eax
  0040CAA9: 0F 84 81 00 00 00  je          0040CB30
  0040CAAF: 8B 5C 24 1C        mov         ebx,dword ptr [esp+1Ch]
  0040CAB3: 8B 7C 24 18        mov         edi,dword ptr [esp+18h]
  0040CAB7: 89 DA              mov         edx,ebx
  0040CAB9: 81 E3 FF FF FF 7F  and         ebx,7FFFFFFFh
  0040CABF: 81 E2 FF FF 0F 00  and         edx,0FFFFFh
  0040CAC5: 89 D1              mov         ecx,edx
  0040CAC7: C1 EB 14           shr         ebx,14h
  0040CACA: 81 C9 00 00 10 00  or          ecx,100000h
  0040CAD0: 85 DB              test        ebx,ebx
  0040CAD2: 0F 45 D1           cmovne      edx,ecx
  0040CAD5: 85 FF              test        edi,edi
  0040CAD7: 74 6B              je          0040CB44
  0040CAD9: 0F BC F7           bsf         esi,edi
  0040CADC: 89 F1              mov         ecx,esi
  0040CADE: D3 EF              shr         edi,cl
___hexnan_D2A:
  0040CAE0: 85 F6              test        esi,esi
  0040CAE2: 0F 84 98 00 00 00  je          0040CB80
  0040CAE8: B9 20 00 00 00     mov         ecx,20h
  0040CAED: 89 D5              mov         ebp,edx
  0040CAEF: 29 F1              sub         ecx,esi
  0040CAF1: D3 E5              shl         ebp,cl
  0040CAF3: 89 E9              mov         ecx,ebp
  0040CAF5: 09 F9              or          ecx,edi
  0040CAF7: 89 48 14           mov         dword ptr [eax+14h],ecx
  0040CAFA: 89 F1              mov         ecx,esi
  0040CAFC: D3 EA              shr         edx,cl
  0040CAFE: 83 FA 01           cmp         edx,1
  0040CB01: 89 50 18           mov         dword ptr [eax+18h],edx
  0040CB04: 19 D2              sbb         edx,edx
  0040CB06: 83 C2 02           add         edx,2
  0040CB09: 85 DB              test        ebx,ebx
  0040CB0B: 89 50 10           mov         dword ptr [eax+10h],edx
  0040CB0E: 75 4F              jne         0040CB5F
  0040CB10: 0F BD 4C 90 10     bsr         ecx,dword ptr [eax+edx*4+10h]
  0040CB15: 81 EE 32 04 00 00  sub         esi,432h
  0040CB1B: C1 E2 05           shl         edx,5
  0040CB1E: 8B 6C 24 48        mov         ebp,dword ptr [esp+48h]
  0040CB22: 83 F1 1F           xor         ecx,1Fh
  0040CB25: 29 CA              sub         edx,ecx
  0040CB27: 8B 4C 24 4C        mov         ecx,dword ptr [esp+4Ch]
  0040CB2B: 89 75 00           mov         dword ptr [ebp],esi
  0040CB2E: 89 11              mov         dword ptr [ecx],edx
  0040CB30: 8B 5C 24 2C        mov         ebx,dword ptr [esp+2Ch]
  0040CB34: 8B 74 24 30        mov         esi,dword ptr [esp+30h]
  0040CB38: 8B 7C 24 34        mov         edi,dword ptr [esp+34h]
  0040CB3C: 8B 6C 24 38        mov         ebp,dword ptr [esp+38h]
  0040CB40: 83 C4 3C           add         esp,3Ch
  0040CB43: C3                 ret
  0040CB44: 0F BC CA           bsf         ecx,edx
  0040CB47: D3 EA              shr         edx,cl
  0040CB49: 85 DB              test        ebx,ebx
  0040CB4B: 89 50 14           mov         dword ptr [eax+14h],edx
  0040CB4E: 8D 71 20           lea         esi,[ecx+20h]
  0040CB51: BA 01 00 00 00     mov         edx,1
  0040CB56: C7 40 10 01 00 00  mov         dword ptr [eax+10h],1
            00
  0040CB5D: 74 B1              je          0040CB10
  0040CB5F: 8B 6C 24 48        mov         ebp,dword ptr [esp+48h]
  0040CB63: 8D 94 1E CD FB FF  lea         edx,[esi+ebx-433h]
            FF
  0040CB6A: 8B 4C 24 4C        mov         ecx,dword ptr [esp+4Ch]
  0040CB6E: 89 55 00           mov         dword ptr [ebp],edx
  0040CB71: BA 35 00 00 00     mov         edx,35h
  0040CB76: 29 F2              sub         edx,esi
  0040CB78: 89 11              mov         dword ptr [ecx],edx
  0040CB7A: EB B4              jmp         0040CB30
  0040CB7C: 8D 74 26 00        lea         esi,[esi]
  0040CB80: 89 78 14           mov         dword ptr [eax+14h],edi
  0040CB83: E9 76 FF FF FF     jmp         0040CAFE
  0040CB88: 90                 nop
  0040CB89: 8D B4 26 00 00 00  lea         esi,[esi]
            00
  0040CB90: 8B 44 24 04        mov         eax,dword ptr [esp+4]
  0040CB94: 8B 54 24 08        mov         edx,dword ptr [esp+8]
  0040CB98: EB 09              jmp         0040CBA3
  0040CB9A: 8D B6 00 00 00 00  lea         esi,[esi]
  0040CBA0: 83 C0 01           add         eax,1
  0040CBA3: 0F B6 0A           movzx       ecx,byte ptr [edx]
  0040CBA6: 83 C2 01           add         edx,1
  0040CBA9: 84 C9              test        cl,cl
  0040CBAB: 88 08              mov         byte ptr [eax],cl
  0040CBAD: 75 F1              jne         0040CBA0
  0040CBAF: F3 C3              rep ret
  0040CBB1: 90                 nop
  0040CBB2: 90                 nop
  0040CBB3: 90                 nop
  0040CBB4: 90                 nop
  0040CBB5: 90                 nop
  0040CBB6: 90                 nop
  0040CBB7: 90                 nop
  0040CBB8: 90                 nop
  0040CBB9: 90                 nop
  0040CBBA: 90                 nop
  0040CBBB: 90                 nop
  0040CBBC: 90                 nop
  0040CBBD: 90                 nop
  0040CBBE: 90                 nop
  0040CBBF: 90                 nop
  0040CBC0: 55                 push        ebp
  0040CBC1: 57                 push        edi
  0040CBC2: 56                 push        esi
  0040CBC3: 53                 push        ebx
  0040CBC4: 83 EC 14           sub         esp,14h
  0040CBC7: 8B 6C 24 28        mov         ebp,dword ptr [esp+28h]
  0040CBCB: 8B 4C 24 2C        mov         ecx,dword ptr [esp+2Ch]
  0040CBCF: 8B 55 10           mov         edx,dword ptr [ebp+10h]
  0040CBD2: 8D 45 14           lea         eax,[ebp+14h]
  0040CBD5: 89 44 24 04        mov         dword ptr [esp+4],eax
  0040CBD9: 89 C8              mov         eax,ecx
  0040CBDB: C1 F8 05           sar         eax,5
  0040CBDE: 39 D0              cmp         eax,edx
  0040CBE0: 0F 8D 8A 00 00 00  jge         0040CC70
  0040CBE6: 83 C0 04           add         eax,4
  0040CBE9: 83 E1 1F           and         ecx,1Fh
  0040CBEC: 8D 7C 95 14        lea         edi,[ebp+edx*4+14h]
  0040CBF0: 8D 54 85 00        lea         edx,[ebp+eax*4]
  0040CBF4: 8D 5A 04           lea         ebx,[edx+4]
  0040CBF7: 89 5C 24 08        mov         dword ptr [esp+8],ebx
  0040CBFB: 89 0C 24           mov         dword ptr [esp],ecx
  0040CBFE: 0F 84 82 00 00 00  je          0040CC86
  0040CC04: 8B 0C 24           mov         ecx,dword ptr [esp]
  0040CC07: 83 C2 08           add         edx,8
  0040CC0A: 8B 5C 85 04        mov         ebx,dword ptr [ebp+eax*4+4]
  0040CC0E: C7 44 24 0C 20 00  mov         dword ptr [esp+0Ch],20h
            00 00
  0040CC16: 29 4C 24 0C        sub         dword ptr [esp+0Ch],ecx
  0040CC1A: D3 EB              shr         ebx,cl
  0040CC1C: 39 D7              cmp         edi,edx
  0040CC1E: 0F 86 9F 00 00 00  jbe         0040CCC3
  0040CC24: 89 6C 24 10        mov         dword ptr [esp+10h],ebp
  0040CC28: 8B 74 24 04        mov         esi,dword ptr [esp+4]
  0040CC2C: 8B 6C 24 0C        mov         ebp,dword ptr [esp+0Ch]
  0040CC30: 8B 02              mov         eax,dword ptr [edx]
  0040CC32: 89 E9              mov         ecx,ebp
  0040CC34: D3 E0              shl         eax,cl
  0040CC36: 0F B6 0C 24        movzx       ecx,byte ptr [esp]
  0040CC3A: 09 D8              or          eax,ebx
  0040CC3C: 89 06              mov         dword ptr [esi],eax
  0040CC3E: 8B 1A              mov         ebx,dword ptr [edx]
  0040CC40: 83 C2 04           add         edx,4
  0040CC43: 83 C6 04           add         esi,4
  0040CC46: D3 EB              shr         ebx,cl
  0040CC48: 39 D7              cmp         edi,edx
  0040CC4A: 77 E4              ja          0040CC30
  0040CC4C: 2B 7C 24 08        sub         edi,dword ptr [esp+8]
  0040CC50: 8B 6C 24 10        mov         ebp,dword ptr [esp+10h]
  0040CC54: 8D 47 FB           lea         eax,[edi-5]
  0040CC57: C1 E8 02           shr         eax,2
  0040CC5A: 8D 44 85 18        lea         eax,[ebp+eax*4+18h]
  0040CC5E: 85 DB              test        ebx,ebx
  0040CC60: 89 18              mov         dword ptr [eax],ebx
  0040CC62: 74 49              je          0040CCAD
  0040CC64: 83 C0 04           add         eax,4
  0040CC67: 2B 44 24 04        sub         eax,dword ptr [esp+4]
  0040CC6B: C1 F8 02           sar         eax,2
  0040CC6E: EB 44              jmp         0040CCB4
  0040CC70: C7 45 10 00 00 00  mov         dword ptr [ebp+10h],0
            00
  0040CC77: C7 45 14 00 00 00  mov         dword ptr [ebp+14h],0
            00
  0040CC7E: 83 C4 14           add         esp,14h
  0040CC81: 5B                 pop         ebx
  0040CC82: 5E                 pop         esi
  0040CC83: 5F                 pop         edi
  0040CC84: 5D                 pop         ebp
  0040CC85: C3                 ret
  0040CC86: 39 DF              cmp         edi,ebx
  0040CC88: 8B 54 24 04        mov         edx,dword ptr [esp+4]
  0040CC8C: 89 D8              mov         eax,ebx
  0040CC8E: 76 E0              jbe         0040CC70
  0040CC90: 8B 08              mov         ecx,dword ptr [eax]
  0040CC92: 83 C0 04           add         eax,4
  0040CC95: 89 0A              mov         dword ptr [edx],ecx
  0040CC97: 83 C2 04           add         edx,4
  0040CC9A: 39 C7              cmp         edi,eax
  0040CC9C: 77 F2              ja          0040CC90
  0040CC9E: 8B 44 24 08        mov         eax,dword ptr [esp+8]
  0040CCA2: F7 D0              not         eax
  0040CCA4: 01 F8              add         eax,edi
  0040CCA6: C1 E8 02           shr         eax,2
  0040CCA9: 8D 44 85 18        lea         eax,[ebp+eax*4+18h]
  0040CCAD: 2B 44 24 04        sub         eax,dword ptr [esp+4]
  0040CCB1: C1 F8 02           sar         eax,2
  0040CCB4: 85 C0              test        eax,eax
  0040CCB6: 89 45 10           mov         dword ptr [ebp+10h],eax
  0040CCB9: 74 BC              je          0040CC77
  0040CCBB: 83 C4 14           add         esp,14h
  0040CCBE: 5B                 pop         ebx
  0040CCBF: 5E                 pop         esi
  0040CCC0: 5F                 pop         edi
  0040CCC1: 5D                 pop         ebp
  0040CCC2: C3                 ret
  0040CCC3: 8B 44 24 04        mov         eax,dword ptr [esp+4]
  0040CCC7: EB 95              jmp         0040CC5E
  0040CCC9: 8D B4 26 00 00 00  lea         esi,[esi]
            00
  0040CCD0: 53                 push        ebx
  0040CCD1: 8B 44 24 08        mov         eax,dword ptr [esp+8]
  0040CCD5: 8B 48 10           mov         ecx,dword ptr [eax+10h]
  0040CCD8: 8D 50 14           lea         edx,[eax+14h]
  0040CCDB: 8D 5C 88 14        lea         ebx,[eax+ecx*4+14h]
  0040CCDF: 39 DA              cmp         edx,ebx
  0040CCE1: 73 26              jae         0040CD09
  0040CCE3: 8B 48 14           mov         ecx,dword ptr [eax+14h]
  0040CCE6: 31 C0              xor         eax,eax
  0040CCE8: 85 C9              test        ecx,ecx
  0040CCEA: 74 0A              je          0040CCF6
  0040CCEC: EB 14              jmp         0040CD02
  0040CCEE: 66
  0040CCEF: 90                 nop
  0040CCF0: 8B 0A              mov         ecx,dword ptr [edx]
  0040CCF2: 85 C9              test        ecx,ecx
  0040CCF4: 75 0C              jne         0040CD02
  0040CCF6: 83 C2 04           add         edx,4
  0040CCF9: 83 C0 20           add         eax,20h
  0040CCFC: 39 D3              cmp         ebx,edx
  0040CCFE: 77 F0              ja          0040CCF0
  0040CD00: 5B                 pop         ebx
  0040CD01: C3                 ret
  0040CD02: 0F BC C9           bsf         ecx,ecx
  0040CD05: 01 C8              add         eax,ecx
  0040CD07: 5B                 pop         ebx
  0040CD08: C3                 ret
  0040CD09: 31 C0              xor         eax,eax
  0040CD0B: 5B                 pop         ebx
  0040CD0C: C3                 ret
  0040CD0D: 90                 nop
  0040CD0E: 90                 nop
  0040CD0F: 90                 nop
  0040CD10: 55                 push        ebp
  0040CD11: BA 39 8E E3 38     mov         edx,38E38E39h
  0040CD16: 57                 push        edi
  0040CD17: 56                 push        esi
  0040CD18: 53                 push        ebx
  0040CD19: 83 EC 1C           sub         esp,1Ch
  0040CD1C: 8B 74 24 38        mov         esi,dword ptr [esp+38h]
  0040CD20: 8B 5C 24 30        mov         ebx,dword ptr [esp+30h]
  0040CD24: 8D 4E 08           lea         ecx,[esi+8]
  0040CD27: 89 C8              mov         eax,ecx
  0040CD29: F7 EA              imul        edx
  0040CD2B: C1 F9 1F           sar         ecx,1Fh
  0040CD2E: D1 FA              sar         edx,1
  0040CD30: 29 CA              sub         edx,ecx
  0040CD32: 83 FA 01           cmp         edx,1
  0040CD35: 0F 8E A5 00 00 00  jle         0040CDE0
  0040CD3B: B8 01 00 00 00     mov         eax,1
  0040CD40: 31 C9              xor         ecx,ecx
  0040CD42: 01 C0              add         eax,eax
  0040CD44: 83 C1 01           add         ecx,1
  0040CD47: 39 C2              cmp         edx,eax
  0040CD49: 7F F7              jg          0040CD42
  0040CD4B: 89 0C 24           mov         dword ptr [esp],ecx
  0040CD4E: E8 6D F4 FF FF     call        0040C1C0
  0040CD53: 8B 54 24 3C        mov         edx,dword ptr [esp+3Ch]
  0040CD57: 83 7C 24 34 09     cmp         dword ptr [esp+34h],9
  0040CD5C: 89 50 14           mov         dword ptr [eax+14h],edx
  0040CD5F: C7 40 10 01 00 00  mov         dword ptr [eax+10h],1
            00
  0040CD66: 7E 69              jle         0040CDD1
  0040CD68: 8D 6B 09           lea         ebp,[ebx+9]
  0040CD6B: 03 5C 24 34        add         ebx,dword ptr [esp+34h]
  0040CD6F: 89 EF              mov         edi,ebp
  0040CD71: 0F BE 0F           movsx       ecx,byte ptr [edi]
  0040CD74: 83 C7 01           add         edi,1
  0040CD77: C7 44 24 04 0A 00  mov         dword ptr [esp+4],0Ah
            00 00
  0040CD7F: 89 04 24           mov         dword ptr [esp],eax
  0040CD82: 83 E9 30           sub         ecx,30h
  0040CD85: 89 4C 24 08        mov         dword ptr [esp+8],ecx
  0040CD89: E8 42 F5 FF FF     call        0040C2D0
  0040CD8E: 39 DF              cmp         edi,ebx
  0040CD90: 75 DF              jne         0040CD71
  0040CD92: 8B 54 24 34        mov         edx,dword ptr [esp+34h]
  0040CD96: 8D 5C 15 F7        lea         ebx,[ebp+edx-9]
  0040CD9A: 89 D7              mov         edi,edx
  0040CD9C: 03 5C 24 40        add         ebx,dword ptr [esp+40h]
  0040CDA0: 39 FE              cmp         esi,edi
  0040CDA2: 7E 25              jle         0040CDC9
  0040CDA4: 29 FE              sub         esi,edi
  0040CDA6: 01 DE              add         esi,ebx
  0040CDA8: 0F BE 13           movsx       edx,byte ptr [ebx]
  0040CDAB: 83 C3 01           add         ebx,1
  0040CDAE: C7 44 24 04 0A 00  mov         dword ptr [esp+4],0Ah
            00 00
  0040CDB6: 89 04 24           mov         dword ptr [esp],eax
  0040CDB9: 83 EA 30           sub         edx,30h
  0040CDBC: 89 54 24 08        mov         dword ptr [esp+8],edx
  0040CDC0: E8 0B F5 FF FF     call        0040C2D0
  0040CDC5: 39 F3              cmp         ebx,esi
  0040CDC7: 75 DF              jne         0040CDA8
  0040CDC9: 83 C4 1C           add         esp,1Ch
  0040CDCC: 5B                 pop         ebx
  0040CDCD: 5E                 pop         esi
  0040CDCE: 5F                 pop         edi
  0040CDCF: 5D                 pop         ebp
  0040CDD0: C3                 ret
  0040CDD1: 8B 54 24 40        mov         edx,dword ptr [esp+40h]
  0040CDD5: BF 09 00 00 00     mov         edi,9
  0040CDDA: 8D 5C 13 09        lea         ebx,[ebx+edx+9]
  0040CDDE: EB C0              jmp         0040CDA0
  0040CDE0: 31 C9              xor         ecx,ecx
  0040CDE2: E9 64 FF FF FF     jmp         0040CD4B
  0040CDE7: 89 F6              mov         esi,esi
  0040CDE9: 8D BC 27 00 00 00  lea         edi,[edi]
            00
  0040CDF0: 56                 push        esi
  0040CDF1: 53                 push        ebx
  0040CDF2: 83 EC 44           sub         esp,44h
  0040CDF5: 8B 74 24 50        mov         esi,dword ptr [esp+50h]
  0040CDF9: 8D 44 24 38        lea         eax,[esp+38h]
  0040CDFD: 89 44 24 04        mov         dword ptr [esp+4],eax
  0040CE01: 8B 5C 24 54        mov         ebx,dword ptr [esp+54h]
  0040CE05: 89 34 24           mov         dword ptr [esp],esi
  0040CE08: E8 73 FB FF FF     call        0040C980
  0040CE0D: 8D 44 24 3C        lea         eax,[esp+3Ch]
  0040CE11: 89 44 24 04        mov         dword ptr [esp+4],eax
  0040CE15: 89 1C 24           mov         dword ptr [esp],ebx
  0040CE18: DD 54 24 20        fst         qword ptr [esp+20h]
  0040CE1C: DD 5C 24 10        fstp        qword ptr [esp+10h]
  0040CE20: E8 5B FB FF FF     call        0040C980
  0040CE25: 8B 46 10           mov         eax,dword ptr [esi+10h]
  0040CE28: 2B 43 10           sub         eax,dword ptr [ebx+10h]
  0040CE2B: 8B 54 24 38        mov         edx,dword ptr [esp+38h]
  0040CE2F: 2B 54 24 3C        sub         edx,dword ptr [esp+3Ch]
  0040CE33: C1 E0 05           shl         eax,5
  0040CE36: 01 D0              add         eax,edx
  0040CE38: DD 54 24 28        fst         qword ptr [esp+28h]
  0040CE3C: 85 C0              test        eax,eax
  0040CE3E: DD 44 24 10        fld         qword ptr [esp+10h]
  0040CE42: 7E 1C              jle         0040CE60
  0040CE44: DD D8              fstp        st(0)
  0040CE46: C1 E0 14           shl         eax,14h
  0040CE49: 01 44 24 24        add         dword ptr [esp+24h],eax
  0040CE4D: DD 44 24 20        fld         qword ptr [esp+20h]
  0040CE51: 83 C4 44           add         esp,44h
  0040CE54: DE F1              fdivrp      st(1),st
  0040CE56: 5B                 pop         ebx
  0040CE57: 5E                 pop         esi
  0040CE58: C3                 ret
  0040CE59: 8D B4 26 00 00 00  lea         esi,[esi]
            00
  0040CE60: DD D9              fstp        st(1)
  0040CE62: C1 E0 14           shl         eax,14h
  0040CE65: 29 44 24 2C        sub         dword ptr [esp+2Ch],eax
  0040CE69: DD 44 24 28        fld         qword ptr [esp+28h]
  0040CE6D: 83 C4 44           add         esp,44h
  0040CE70: DE F9              fdivp       st(1),st
  0040CE72: 5B                 pop         ebx
  0040CE73: 5E                 pop         esi
  0040CE74: C3                 ret
  0040CE75: 8D 74 26 00        lea         esi,[esi]
  0040CE79: 8D BC 27 00 00 00  lea         edi,[edi]
            00
  0040CE80: 57                 push        edi
  0040CE81: 56                 push        esi
  0040CE82: 53                 push        ebx
  0040CE83: 8B 7C 24 10        mov         edi,dword ptr [esp+10h]
  0040CE87: 8B 54 24 14        mov         edx,dword ptr [esp+14h]
  0040CE8B: 8B 0F              mov         ecx,dword ptr [edi]
  0040CE8D: EB 16              jmp         0040CEA5
  0040CE8F: 90                 nop
  0040CE90: 0F BE 01           movsx       eax,byte ptr [ecx]
  0040CE93: 83 F8 40           cmp         eax,40h
  0040CE96: 7E 09              jle         0040CEA1
  0040CE98: 8D 70 20           lea         esi,[eax+20h]
  0040CE9B: 83 F8 5A           cmp         eax,5Ah
  0040CE9E: 0F 4E C6           cmovle      eax,esi
  0040CEA1: 39 D8              cmp         eax,ebx
  0040CEA3: 75 1B              jne         0040CEC0
  0040CEA5: 0F BE 1A           movsx       ebx,byte ptr [edx]
  0040CEA8: 83 C1 01           add         ecx,1
  0040CEAB: 83 C2 01           add         edx,1
  0040CEAE: 85 DB              test        ebx,ebx
  0040CEB0: 75 DE              jne         0040CE90
  0040CEB2: 89 0F              mov         dword ptr [edi],ecx
  0040CEB4: B8 01 00 00 00     mov         eax,1
  0040CEB9: 5B                 pop         ebx
  0040CEBA: 5E                 pop         esi
  0040CEBB: 5F                 pop         edi
  0040CEBC: C3                 ret
  0040CEBD: 8D 76 00           lea         esi,[esi]
  0040CEC0: 5B                 pop         ebx
  0040CEC1: 31 C0              xor         eax,eax
  0040CEC3: 5E                 pop         esi
  0040CEC4: 5F                 pop         edi
  0040CEC5: C3                 ret
  0040CEC6: 8D 76 00           lea         esi,[esi]
  0040CEC9: 8D BC 27 00 00 00  lea         edi,[edi]
            00
  0040CED0: 55                 push        ebp
  0040CED1: 57                 push        edi
  0040CED2: 56                 push        esi
  0040CED3: 53                 push        ebx
  0040CED4: 8B 7C 24 1C        mov         edi,dword ptr [esp+1Ch]
  0040CED8: 8B 54 24 18        mov         edx,dword ptr [esp+18h]
  0040CEDC: 8B 44 24 14        mov         eax,dword ptr [esp+14h]
  0040CEE0: 8B 4F 10           mov         ecx,dword ptr [edi+10h]
  0040CEE3: 83 EA 01           sub         edx,1
  0040CEE6: C1 FA 05           sar         edx,5
  0040CEE9: 8D 74 90 04        lea         esi,[eax+edx*4+4]
  0040CEED: 8D 5C 8F 14        lea         ebx,[edi+ecx*4+14h]
  0040CEF1: 8D 57 14           lea         edx,[edi+14h]
  0040CEF4: 39 DA              cmp         edx,ebx
  0040CEF6: 73 31              jae         0040CF29
  0040CEF8: 89 C1              mov         ecx,eax
  0040CEFA: 8D B6 00 00 00 00  lea         esi,[esi]
  0040CF00: 8B 2A              mov         ebp,dword ptr [edx]
  0040CF02: 83 C2 04           add         edx,4
  0040CF05: 89 29              mov         dword ptr [ecx],ebp
  0040CF07: 83 C1 04           add         ecx,4
  0040CF0A: 39 D3              cmp         ebx,edx
  0040CF0C: 77 F2              ja          0040CF00
  0040CF0E: 29 FB              sub         ebx,edi
___getmainargs:
  0040CF10: 8D 53 EB           lea         edx,[ebx-15h]
  0040CF13: C1 EA 02           shr         edx,2
  0040CF16: 8D 44 90 04        lea         eax,[eax+edx*4+4]
  0040CF1A: 39 C6              cmp         esi,eax
  0040CF1C: 76 0F              jbe         0040CF2D
  0040CF1E: 66
  0040CF1F: 90                 nop
_memcpy:
  0040CF20: C7 00 00 00 00 00  mov         dword ptr [eax],0
  0040CF26: 83 C0 04           add         eax,4
  0040CF29: 39 C6              cmp         esi,eax
  0040CF2B: 77 F3              ja          _memcpy
  0040CF2D: 5B                 pop         ebx
  0040CF2E: 5E                 pop         esi
  0040CF2F: 5F                 pop         edi
_strlen:
  0040CF30: 5D                 pop         ebp
  0040CF31: C3                 ret
  0040CF32: 8D B4 26 00 00 00  lea         esi,[esi]
            00
  0040CF39: 8D BC 27 00 00 00  lea         edi,[edi]
            00
.text:
  0040CF40: 83 EC 10           sub         esp,10h
  0040CF43: 89 1C 24           mov         dword ptr [esp],ebx
  0040CF46: 8B 5C 24 14        mov         ebx,dword ptr [esp+14h]
  0040CF4A: 8B 44 24 18        mov         eax,dword ptr [esp+18h]
  0040CF4E: 89 74 24 04        mov         dword ptr [esp+4],esi
  0040CF52: 89 7C 24 08        mov         dword ptr [esp+8],edi
  0040CF56: 8B 4B 10           mov         ecx,dword ptr [ebx+10h]
  0040CF59: 8D 53 14           lea         edx,[ebx+14h]
  0040CF5C: C1 F8 05           sar         eax,5
  0040CF5F: 89 6C 24 0C        mov         dword ptr [esp+0Ch],ebp
  0040CF63: 39 C1              cmp         ecx,eax
  0040CF65: 89 CE              mov         esi,ecx
  0040CF67: 7C 0D              jl          0040CF76
  0040CF69: 7E 45              jle         .text
  0040CF6B: 8B 4C 24 18        mov         ecx,dword ptr [esp+18h]
  0040CF6F: 89 C6              mov         esi,eax
  0040CF71: 83 E1 1F           and         ecx,1Fh
  0040CF74: 75 42              jne         .text
  0040CF76: 8D 44 B3 10        lea         eax,[ebx+esi*4+10h]
  0040CF7A: 8D 48 04           lea         ecx,[eax+4]
  0040CF7D: 39 CA              cmp         edx,ecx
  0040CF7F: 72 09              jb          0040CF8A
  0040CF81: EB 31              jmp         0040CFB4
  0040CF83: 39 C2              cmp         edx,eax
  0040CF85: 73 2D              jae         0040CFB4
  0040CF87: 83 E8 04           sub         eax,4
  0040CF8A: 8B 08              mov         ecx,dword ptr [eax]
  0040CF8C: 85 C9              test        ecx,ecx
  0040CF8E: 66
  0040CF8F: 90                 nop
.text:
  0040CF90: 74 F1              je          0040CF83
  0040CF92: B8 01 00 00 00     mov         eax,1
  0040CF97: 8B 1C 24           mov         ebx,dword ptr [esp]
  0040CF9A: 8B 74 24 04        mov         esi,dword ptr [esp+4]
  0040CF9E: 8B 7C 24 08        mov         edi,dword ptr [esp+8]
  0040CFA2: 8B 6C 24 0C        mov         ebp,dword ptr [esp+0Ch]
  0040CFA6: 83 C4 10           add         esp,10h
  0040CFA9: C3                 ret
  0040CFAA: 8D B6 00 00 00 00  lea         esi,[esi]
.text:
  0040CFB0: 89 C6              mov         esi,eax
  0040CFB2: EB C2              jmp         0040CF76
  0040CFB4: 31 C0              xor         eax,eax
  0040CFB6: EB DF              jmp         0040CF97
.text:
  0040CFB8: 8B 6C 83 14        mov         ebp,dword ptr [ebx+eax*4+14h]
  0040CFBC: B8 01 00 00 00     mov         eax,1
  0040CFC1: 89 EF              mov         edi,ebp
  0040CFC3: D3 EF              shr         edi,cl
  0040CFC5: D3 E7              shl         edi,cl
  0040CFC7: 39 EF              cmp         edi,ebp
  0040CFC9: 75 CC              jne         0040CF97
  0040CFCB: EB A9              jmp         0040CF76
  0040CFCD: 90                 nop
  0040CFCE: 90                 nop
  0040CFCF: 90                 nop
_tolower:
  0040CFD0: 55                 push        ebp
  0040CFD1: 57                 push        edi
  0040CFD2: 56                 push        esi
  0040CFD3: 53                 push        ebx
  0040CFD4: 83 EC 3C           sub         esp,3Ch
  0040CFD7: 8B 5C 24 54        mov         ebx,dword ptr [esp+54h]
  0040CFDB: 8B 54 24 50        mov         edx,dword ptr [esp+50h]
  0040CFDF: 8B 4B 10           mov         ecx,dword ptr [ebx+10h]
  0040CFE2: 39 4A 10           cmp         dword ptr [edx+10h],ecx
  0040CFE5: 7D 06              jge         0040CFED
  0040CFE7: 89 5C 24 50        mov         dword ptr [esp+50h],ebx
  0040CFEB: 89 D3              mov         ebx,edx
  0040CFED: 8B 74 24 50        mov         esi,dword ptr [esp+50h]
  0040CFF1: 8D 6B 14           lea         ebp,[ebx+14h]
  0040CFF4: 8B 46 04           mov         eax,dword ptr [esi+4]
  0040CFF7: 89 04 24           mov         dword ptr [esp],eax
  0040CFFA: E8 C1 F1 FF FF     call        0040C1C0
  0040CFFF: 89 44 24 24        mov         dword ptr [esp+24h],eax
  0040D003: 8B 46 10           mov         eax,dword ptr [esi+10h]
  0040D006: 8B 54 24 24        mov         edx,dword ptr [esp+24h]
  0040D00A: 8B 4C 24 24        mov         ecx,dword ptr [esp+24h]
  0040D00E: 89 44 24 28        mov         dword ptr [esp+28h],eax
  0040D012: 89 42 10           mov         dword ptr [edx+10h],eax
  0040D015: 8B 5B 10           mov         ebx,dword ptr [ebx+10h]
_islower:
  0040D018: 89 F2              mov         edx,esi
  0040D01A: 8B 44 24 24        mov         eax,dword ptr [esp+24h]
  0040D01E: 83 C2 14           add         edx,14h
  0040D021: 8D 4C 99 14        lea         ecx,[ecx+ebx*4+14h]
  0040D025: 89 4C 24 20        mov         dword ptr [esp+20h],ecx
  0040D029: 83 C0 14           add         eax,14h
  0040D02C: 31 C9              xor         ecx,ecx
  0040D02E: 89 5C 24 2C        mov         dword ptr [esp+2Ch],ebx
  0040D032: 8B 5D 00           mov         ebx,dword ptr [ebp]
  0040D035: 83 C5 04           add         ebp,4
.text:
  0040D038: 0F B7 32           movzx       esi,word ptr [edx]
  0040D03B: 0F B7 FB           movzx       edi,bx
  0040D03E: 01 FE              add         esi,edi
___udivdi3:
  0040D040: 01 CE              add         esi,ecx
  0040D042: 8B 0A              mov         ecx,dword ptr [edx]
  0040D044: 83 C2 04           add         edx,4
  0040D047: C1 EB 10           shr         ebx,10h
  0040D04A: 66 89 30           mov         word ptr [eax],si
  0040D04D: C1 E9 10           shr         ecx,10h
__Z5scanfPKcz:
  0040D050: 01 CB              add         ebx,ecx
  0040D052: 89 F1              mov         ecx,esi
  0040D054: 81 E1 00 00 01 00  and         ecx,10000h
  0040D05A: C1 E9 10           shr         ecx,10h
  0040D05D: 01 CB              add         ebx,ecx
  0040D05F: 89 D9              mov         ecx,ebx
  0040D061: 81 E1 00 00 01 00  and         ecx,10000h
  0040D067: C1 E9 10           shr         ecx,10h
  0040D06A: 66 89 58 02        mov         word ptr [eax+2],bx
  0040D06E: 83 C0 04           add         eax,4
  0040D071: 39 44 24 20        cmp         dword ptr [esp+20h],eax
  0040D075: 77 BB              ja          0040D032
  0040D077: 8B 74 24 50        mov         esi,dword ptr [esp+50h]
  0040D07B: 8B 5E 10           mov         ebx,dword ptr [esi+10h]
  0040D07E: 8B 74 24 20        mov         esi,dword ptr [esp+20h]
  0040D082: 2B 5C 24 2C        sub         ebx,dword ptr [esp+2Ch]
  0040D086: 8D 3C 9E           lea         edi,[esi+ebx*4]
  0040D089: 39 C7              cmp         edi,eax
  0040D08B: 76 35              jbe         0040D0C2
  0040D08D: 8D 76 00           lea         esi,[esi]
  0040D090: 8B 32              mov         esi,dword ptr [edx]
  0040D092: 83 C2 04           add         edx,4
  0040D095: 89 F3              mov         ebx,esi
  0040D097: 81 E3 FF FF 00 00  and         ebx,0FFFFh
  0040D09D: 01 CB              add         ebx,ecx
  0040D09F: 89 D9              mov         ecx,ebx
  0040D0A1: 81 E1 00 00 01 00  and         ecx,10000h
  0040D0A7: C1 E9 10           shr         ecx,10h
  0040D0AA: C1 EE 10           shr         esi,10h
  0040D0AD: 01 CE              add         esi,ecx
  0040D0AF: 89 F1              mov         ecx,esi
  0040D0B1: 66 89 70 02        mov         word ptr [eax+2],si
  0040D0B5: C1 E9 10           shr         ecx,10h
  0040D0B8: 66 89 18           mov         word ptr [eax],bx
  0040D0BB: 83 C0 04           add         eax,4
  0040D0BE: 39 C7              cmp         edi,eax
  0040D0C0: 77 CE              ja          0040D090
  0040D0C2: 85 C9              test        ecx,ecx
  0040D0C4: 74 29              je          0040D0EF
  0040D0C6: 8B 44 24 24        mov         eax,dword ptr [esp+24h]
  0040D0CA: 8B 54 24 28        mov         edx,dword ptr [esp+28h]
  0040D0CE: 3B 50 08           cmp         edx,dword ptr [eax+8]
  0040D0D1: 74 28              je          0040D0FB
  0040D0D3: 8B 54 24 28        mov         edx,dword ptr [esp+28h]
  0040D0D7: 8B 44 24 24        mov         eax,dword ptr [esp+24h]
  0040D0DB: C7 44 90 14 01 00  mov         dword ptr [eax+edx*4+14h],1
            00 00
  0040D0E3: 89 D0              mov         eax,edx
  0040D0E5: 8B 54 24 24        mov         edx,dword ptr [esp+24h]
  0040D0E9: 83 C0 01           add         eax,1
  0040D0EC: 89 42 10           mov         dword ptr [edx+10h],eax
  0040D0EF: 8B 44 24 24        mov         eax,dword ptr [esp+24h]
  0040D0F3: 83 C4 3C           add         esp,3Ch
  0040D0F6: 5B                 pop         ebx
  0040D0F7: 5E                 pop         esi
  0040D0F8: 5F                 pop         edi
  0040D0F9: 5D                 pop         ebp
  0040D0FA: C3                 ret
  0040D0FB: 8B 48 04           mov         ecx,dword ptr [eax+4]
  0040D0FE: 89 C8              mov         eax,ecx
  0040D100: 83 C0 01           add         eax,1
  0040D103: 89 04 24           mov         dword ptr [esp],eax
  0040D106: E8 B5 F0 FF FF     call        0040C1C0
  0040D10B: 8B 74 24 24        mov         esi,dword ptr [esp+24h]
  0040D10F: 8B 56 10           mov         edx,dword ptr [esi+10h]
  0040D112: 89 C3              mov         ebx,eax
  0040D114: 8D 40 0C           lea         eax,[eax+0Ch]
  0040D117: 8D 0C 95 08 00 00  lea         ecx,[edx*4+8]
            00
  0040D11E: 89 F2              mov         edx,esi
  0040D120: 83 C2 0C           add         edx,0Ch
  0040D123: 89 4C 24 08        mov         dword ptr [esp+8],ecx
  0040D127: 89 54 24 04        mov         dword ptr [esp+4],edx
  0040D12B: 89 04 24           mov         dword ptr [esp],eax
  0040D12E: E8 ED 0D 00 00     call        0040DF20
  0040D133: 89 34 24           mov         dword ptr [esp],esi
  0040D136: E8 45 F1 FF FF     call        0040C280
  0040D13B: 8B 43 10           mov         eax,dword ptr [ebx+10h]
  0040D13E: 89 5C 24 24        mov         dword ptr [esp+24h],ebx
  0040D142: 89 44 24 28        mov         dword ptr [esp+28h],eax
  0040D146: EB 8B              jmp         0040D0D3
  0040D148: 90                 nop
  0040D149: 90                 nop
  0040D14A: 90                 nop
  0040D14B: 90                 nop
  0040D14C: 90                 nop
  0040D14D: 90                 nop
  0040D14E: 90                 nop
  0040D14F: 90                 nop
  0040D150: 55                 push        ebp
  0040D151: 57                 push        edi
  0040D152: 56                 push        esi
  0040D153: 53                 push        ebx
  0040D154: 83 EC 3C           sub         esp,3Ch
  0040D157: E8 5C 0E 00 00     call        0040DFB8
  0040D15C: 80 3D F0 1D 41 00  cmp         byte ptr ds:[411DF0h],0
            00
  0040D163: 8B 30              mov         esi,dword ptr [eax]
  0040D165: 0F 84 56 04 00 00  je          0040D5C1
  0040D16B: 8B 54 24 5C        mov         edx,dword ptr [esp+5Ch]
  0040D16F: 8B 4C 24 50        mov         ecx,dword ptr [esp+50h]
  0040D173: C7 02 00 00 00 00  mov         dword ptr [edx],0
  0040D179: 8B 11              mov         edx,dword ptr [ecx]
  0040D17B: 0F B6 4A 02        movzx       ecx,byte ptr [edx+2]
  0040D17F: 8D 6A 02           lea         ebp,[edx+2]
  0040D182: 80 F9 30           cmp         cl,30h
  0040D185: 0F 85 47 05 00 00  jne         0040D6D2
  0040D18B: 83 C2 03           add         edx,3
  0040D18E: 31 C0              xor         eax,eax
  0040D190: 89 D5              mov         ebp,edx
  0040D192: 83 C2 01           add         edx,1
  0040D195: 0F B6 4A FF        movzx       ecx,byte ptr [edx-1]
  0040D199: 83 C0 01           add         eax,1
  0040D19C: 80 F9 30           cmp         cl,30h
  0040D19F: 74 EF              je          0040D190
  0040D1A1: 80 B9 C0 1D 41 00  cmp         byte ptr [ecx+411DC0h],0
            00
  0040D1A8: 0F 85 88 00 00 00  jne         0040D236
  0040D1AE: 0F B6 16           movzx       edx,byte ptr [esi]
  0040D1B1: 84 D2              test        dl,dl
  0040D1B3: 88 54 24 18        mov         byte ptr [esp+18h],dl
  0040D1B7: 0F 84 AF 06 00 00  je          0040D86C
  0040D1BD: 0F B6 55 00        movzx       edx,byte ptr [ebp]
  0040D1C1: 38 54 24 18        cmp         byte ptr [esp+18h],dl
  0040D1C5: 0F 85 F0 07 00 00  jne         0040D9BB
  0040D1CB: 31 D2              xor         edx,edx
  0040D1CD: EB 0B              jmp         0040D1DA
  0040D1CF: 90                 nop
  0040D1D0: 3A 4C 15 00        cmp         cl,byte ptr [ebp+edx]
  0040D1D4: 0F 85 F6 03 00 00  jne         0040D5D0
  0040D1DA: 83 C2 01           add         edx,1
  0040D1DD: 0F B6 0C 16        movzx       ecx,byte ptr [esi+edx]
  0040D1E1: 89 D3              mov         ebx,edx
  0040D1E3: 84 C9              test        cl,cl
  0040D1E5: 75 E9              jne         0040D1D0
  0040D1E7: 01 EB              add         ebx,ebp
  0040D1E9: 0F B6 13           movzx       edx,byte ptr [ebx]
  0040D1EC: 0F B6 CA           movzx       ecx,dl
  0040D1EF: 80 B9 C0 1D 41 00  cmp         byte ptr [ecx+411DC0h],0
            00
  0040D1F6: 0F 84 5A 04 00 00  je          0040D656
  0040D1FC: 80 FA 30           cmp         dl,30h
  0040D1FF: 89 DD              mov         ebp,ebx
  0040D201: 0F 85 8E 05 00 00  jne         0040D795
  0040D207: 83 C5 01           add         ebp,1
  0040D20A: 0F B6 55 00        movzx       edx,byte ptr [ebp]
  0040D20E: 80 FA 30           cmp         dl,30h
  0040D211: 74 F4              je          0040D207
  0040D213: 0F B6 C2           movzx       eax,dl
  0040D216: 80 B8 C0 1D 41 00  cmp         byte ptr [eax+411DC0h],0
            00
  0040D21D: 0F 85 72 05 00 00  jne         0040D795
  0040D223: 89 DF              mov         edi,ebx
  0040D225: B8 01 00 00 00     mov         eax,1
  0040D22A: 89 EB              mov         ebx,ebp
  0040D22C: C7 44 24 20 01 00  mov         dword ptr [esp+20h],1
            00 00
  0040D234: EB 3C              jmp         0040D272
  0040D236: 0F B6 0E           movzx       ecx,byte ptr [esi]
  0040D239: 83 C0 01           add         eax,1
  0040D23C: 0F B6 55 00        movzx       edx,byte ptr [ebp]
  0040D240: 88 4C 24 18        mov         byte ptr [esp+18h],cl
  0040D244: 0F B6 CA           movzx       ecx,dl
  0040D247: 80 B9 C0 1D 41 00  cmp         byte ptr [ecx+411DC0h],0
            00
  0040D24E: 0F 84 E6 06 00 00  je          0040D93A
  0040D254: 31 FF              xor         edi,edi
  0040D256: 89 EB              mov         ebx,ebp
  0040D258: 83 C3 01           add         ebx,1
  0040D25B: 0F B6 13           movzx       edx,byte ptr [ebx]
  0040D25E: 0F B6 CA           movzx       ecx,dl
  0040D261: 80 B9 C0 1D 41 00  cmp         byte ptr [ecx+411DC0h],0
            00
  0040D268: 75 EE              jne         0040D258
  0040D26A: C7 44 24 20 00 00  mov         dword ptr [esp+20h],0
            00 00
  0040D272: 3A 54 24 18        cmp         dl,byte ptr [esp+18h]
  0040D276: 0F 84 6B 03 00 00  je          0040D5E7
  0040D27C: 0F B6 13           movzx       edx,byte ptr [ebx]
  0040D27F: 85 FF              test        edi,edi
  0040D281: 88 54 24 18        mov         byte ptr [esp+18h],dl
  0040D285: 0F 84 3A 04 00 00  je          0040D6C5
  0040D28B: 29 DF              sub         edi,ebx
  0040D28D: C1 E7 02           shl         edi,2
  0040D290: 89 7C 24 28        mov         dword ptr [esp+28h],edi
  0040D294: 80 7C 24 18 50     cmp         byte ptr [esp+18h],50h
  0040D299: 0F 84 01 01 00 00  je          0040D3A0
  0040D29F: 80 7C 24 18 70     cmp         byte ptr [esp+18h],70h
  0040D2A4: 0F 84 F6 00 00 00  je          0040D3A0
  0040D2AA: 89 DF              mov         edi,ebx
  0040D2AC: C7 44 24 24 00 00  mov         dword ptr [esp+24h],0
            00 00
  0040D2B4: C7 44 24 18 00 00  mov         dword ptr [esp+18h],0
            00 00
  0040D2BC: 85 C0              test        eax,eax
  0040D2BE: 0F 84 CC 00 00 00  je          0040D390
  0040D2C4: 8B 54 24 50        mov         edx,dword ptr [esp+50h]
  0040D2C8: 89 3A              mov         dword ptr [edx],edi
  0040D2CA: 8B 7C 24 20        mov         edi,dword ptr [esp+20h]
  0040D2CE: 31 D2              xor         edx,edx
  0040D2D0: 85 FF              test        edi,edi
  0040D2D2: 0F 85 AE 00 00 00  jne         0040D386
  0040D2D8: 8B 4C 24 18        mov         ecx,dword ptr [esp+18h]
  0040D2DC: 85 C9              test        ecx,ecx
  0040D2DE: 0F 84 7C 01 00 00  je          0040D460
  0040D2E4: 8B 54 24 24        mov         edx,dword ptr [esp+24h]
  0040D2E8: 8B 6C 24 54        mov         ebp,dword ptr [esp+54h]
  0040D2EC: 85 D2              test        edx,edx
  0040D2EE: 8B 45 0C           mov         eax,dword ptr [ebp+0Ch]
  0040D2F1: 0F 85 09 03 00 00  jne         0040D600
  0040D2F7: 83 F8 02           cmp         eax,2
  0040D2FA: 0F 84 FD 05 00 00  je          0040D8FD
  0040D300: 83 F8 03           cmp         eax,3
  0040D303: 0F 84 05 06 00 00  je          0040D90E
  0040D309: 83 F8 01           cmp         eax,1
  0040D30C: 0F 84 2A 03 00 00  je          0040D63C
  0040D312: 8B 54 24 54        mov         edx,dword ptr [esp+54h]
  0040D316: 8B 3A              mov         edi,dword ptr [edx]
  0040D318: 89 FB              mov         ebx,edi
  0040D31A: 83 E7 1F           and         edi,1Fh
  0040D31D: C1 FB 05           sar         ebx,5
  0040D320: 83 FF 01           cmp         edi,1
  0040D323: 89 DE              mov         esi,ebx
  0040D325: 83 DE FF           sbb         esi,0FFFFFFFFh
  0040D328: 31 D2              xor         edx,edx
  0040D32A: 89 F0              mov         eax,esi
  0040D32C: D1 F8              sar         eax,1
  0040D32E: 74 07              je          0040D337
  0040D330: 83 C2 01           add         edx,1
  0040D333: D1 F8              sar         eax,1
  0040D335: 75 F9              jne         0040D330
  0040D337: 89 14 24           mov         dword ptr [esp],edx
  0040D33A: E8 81 EE FF FF     call        0040C1C0
  0040D33F: 8B 6C 24 5C        mov         ebp,dword ptr [esp+5Ch]
  0040D343: 31 D2              xor         edx,edx
  0040D345: 85 DB              test        ebx,ebx
  0040D347: 89 45 00           mov         dword ptr [ebp],eax
  0040D34A: 89 70 10           mov         dword ptr [eax+10h],esi
  0040D34D: 7E 12              jle         0040D361
  0040D34F: 90                 nop
  0040D350: C7 44 90 14 FF FF  mov         dword ptr [eax+edx*4+14h],0FFFFFFFFh
            FF FF
  0040D358: 83 C2 01           add         edx,1
  0040D35B: 39 DA              cmp         edx,ebx
  0040D35D: 75 F1              jne         0040D350
  0040D35F: 89 DA              mov         edx,ebx
  0040D361: 39 DE              cmp         esi,ebx
  0040D363: 7E 0F              jle         0040D374
  0040D365: BB 20 00 00 00     mov         ebx,20h
  0040D36A: 89 D9              mov         ecx,ebx
  0040D36C: 29 F9              sub         ecx,edi
  0040D36E: D3 FB              sar         ebx,cl
  0040D370: 89 5C 90 14        mov         dword ptr [eax+edx*4+14h],ebx
  0040D374: 8B 54 24 54        mov         edx,dword ptr [esp+54h]
  0040D378: 8B 4C 24 58        mov         ecx,dword ptr [esp+58h]
  0040D37C: 8B 42 04           mov         eax,dword ptr [edx+4]
  0040D37F: BA 11 00 00 00     mov         edx,11h
  0040D384: 89 01              mov         dword ptr [ecx],eax
  0040D386: 83 C4 3C           add         esp,3Ch
  0040D389: 89 D0              mov         eax,edx
  0040D38B: 5B                 pop         ebx
  0040D38C: 5E                 pop         esi
  0040D38D: 5F                 pop         edi
  0040D38E: 5D                 pop         ebp
  0040D38F: C3                 ret
  0040D390: 8B 4C 24 50        mov         ecx,dword ptr [esp+50h]
  0040D394: 8D 45 FF           lea         eax,[ebp-1]
  0040D397: 89 01              mov         dword ptr [ecx],eax
  0040D399: E9 2C FF FF FF     jmp         0040D2CA
  0040D39E: 66
  0040D39F: 90                 nop
  0040D3A0: 0F B6 53 01        movzx       edx,byte ptr [ebx+1]
  0040D3A4: 80 FA 2B           cmp         dl,2Bh
  0040D3A7: 0F 84 F3 02 00 00  je          0040D6A0
  0040D3AD: 80 FA 2D           cmp         dl,2Dh
  0040D3B0: 0F 84 FE 02 00 00  je          0040D6B4
  0040D3B6: 8D 4B 01           lea         ecx,[ebx+1]
  0040D3B9: C7 44 24 24 00 00  mov         dword ptr [esp+24h],0
            00 00
  0040D3C1: 0F B6 92 C0 1D 41  movzx       edx,byte ptr [edx+411DC0h]
            00
  0040D3C8: 85 D2              test        edx,edx
  0040D3CA: 0F 84 80 00 00 00  je          0040D450
  0040D3D0: 83 FA 19           cmp         edx,19h
  0040D3D3: 7F 7B              jg          0040D450
  0040D3D5: 8D 79 01           lea         edi,[ecx+1]
  0040D3D8: 0F B6 49 01        movzx       ecx,byte ptr [ecx+1]
  0040D3DC: 83 EA 10           sub         edx,10h
  0040D3DF: C7 44 24 18 00 00  mov         dword ptr [esp+18h],0
            00 00
  0040D3E7: 0F B6 89 C0 1D 41  movzx       ecx,byte ptr [ecx+411DC0h]
            00
  0040D3EE: 85 C9              test        ecx,ecx
  0040D3F0: 74 48              je          0040D43A
  0040D3F2: 83 F9 19           cmp         ecx,19h
  0040D3F5: 7F 43              jg          0040D43A
  0040D3F7: 89 74 24 2C        mov         dword ptr [esp+2Ch],esi
  0040D3FB: 31 F6              xor         esi,esi
  0040D3FD: 89 44 24 1C        mov         dword ptr [esp+1Ch],eax
  0040D401: EB 05              jmp         0040D408
  0040D403: 83 F9 19           cmp         ecx,19h
  0040D406: 7F 26              jg          0040D42E
  0040D408: F7 C2 00 00 00 F8  test        edx,0F8000000h
  0040D40E: B8 01 00 00 00     mov         eax,1
  0040D413: 0F 45 F0           cmovne      esi,eax
  0040D416: 83 C7 01           add         edi,1
  0040D419: 8D 14 92           lea         edx,[edx+edx*4]
  0040D41C: 8D 54 51 F0        lea         edx,[ecx+edx*2-10h]
  0040D420: 0F B6 0F           movzx       ecx,byte ptr [edi]
  0040D423: 0F B6 89 C0 1D 41  movzx       ecx,byte ptr [ecx+411DC0h]
            00
  0040D42A: 85 C9              test        ecx,ecx
  0040D42C: 75 D5              jne         0040D403
  0040D42E: 89 74 24 18        mov         dword ptr [esp+18h],esi
  0040D432: 8B 44 24 1C        mov         eax,dword ptr [esp+1Ch]
  0040D436: 8B 74 24 2C        mov         esi,dword ptr [esp+2Ch]
  0040D43A: 89 D1              mov         ecx,edx
  0040D43C: F7 D9              neg         ecx
  0040D43E: 83 7C 24 24 00     cmp         dword ptr [esp+24h],0
  0040D443: 0F 45 D1           cmovne      edx,ecx
  0040D446: 01 54 24 28        add         dword ptr [esp+28h],edx
  0040D44A: E9 6D FE FF FF     jmp         0040D2BC
  0040D44F: 90                 nop
  0040D450: 89 DF              mov         edi,ebx
  0040D452: C7 44 24 18 00 00  mov         dword ptr [esp+18h],0
            00 00
  0040D45A: E9 5D FE FF FF     jmp         0040D2BC
  0040D45F: 90                 nop
  0040D460: 89 D8              mov         eax,ebx
  0040D462: 31 D2              xor         edx,edx
  0040D464: 29 E8              sub         eax,ebp
  0040D466: 83 E8 01           sub         eax,1
  0040D469: 83 F8 07           cmp         eax,7
  0040D46C: 7E 0C              jle         0040D47A
  0040D46E: 66
  0040D46F: 90                 nop
  0040D470: D1 F8              sar         eax,1
  0040D472: 83 C2 01           add         edx,1
  0040D475: 83 F8 07           cmp         eax,7
  0040D478: 7F F6              jg          0040D470
  0040D47A: 89 14 24           mov         dword ptr [esp],edx
  0040D47D: E8 3E ED FF FF     call        0040C1C0
  0040D482: 89 44 24 1C        mov         dword ptr [esp+1Ch],eax
  0040D486: 83 C0 14           add         eax,14h
  0040D489: 80 7E 01 00        cmp         byte ptr [esi+1],0
  0040D48D: 89 44 24 24        mov         dword ptr [esp+24h],eax
  0040D491: 0F 84 88 04 00 00  je          0040D91F
  0040D497: 31 C0              xor         eax,eax
  0040D499: 8D B4 26 00 00 00  lea         esi,[esi]
            00
  0040D4A0: 83 C0 01           add         eax,1
  0040D4A3: 80 7C 06 01 00     cmp         byte ptr [esi+eax+1],0
  0040D4A8: 89 C7              mov         edi,eax
  0040D4AA: 75 F4              jne         0040D4A0
  0040D4AC: 39 DD              cmp         ebp,ebx
  0040D4AE: 0F 83 72 04 00 00  jae         0040D926
  0040D4B4: 8B 54 24 24        mov         edx,dword ptr [esp+24h]
  0040D4B8: 01 FE              add         esi,edi
  0040D4BA: 89 D9              mov         ecx,ebx
  0040D4BC: 89 7C 24 20        mov         dword ptr [esp+20h],edi
  0040D4C0: 31 DB              xor         ebx,ebx
  0040D4C2: 89 F7              mov         edi,esi
  0040D4C4: 89 54 24 18        mov         dword ptr [esp+18h],edx
  0040D4C8: 31 D2              xor         edx,edx
  0040D4CA: EB 26              jmp         0040D4F2
  0040D4CC: 8D 74 26 00        lea         esi,[esi]
  0040D4D0: 83 FA 20           cmp         edx,20h
  0040D4D3: 0F 84 C9 00 00 00  je          0040D5A2
  0040D4D9: 89 D1              mov         ecx,edx
  0040D4DB: 83 C2 04           add         edx,4
  0040D4DE: 0F B6 80 C0 1D 41  movzx       eax,byte ptr [eax+411DC0h]
            00
  0040D4E5: 83 E0 0F           and         eax,0Fh
  0040D4E8: D3 E0              shl         eax,cl
  0040D4EA: 89 F1              mov         ecx,esi
  0040D4EC: 09 C3              or          ebx,eax
  0040D4EE: 39 CD              cmp         ebp,ecx
  0040D4F0: 73 15              jae         0040D507
  0040D4F2: 0F B6 41 FF        movzx       eax,byte ptr [ecx-1]
  0040D4F6: 8D 71 FF           lea         esi,[ecx-1]
  0040D4F9: 3A 07              cmp         al,byte ptr [edi]
  0040D4FB: 75 D3              jne         0040D4D0
  0040D4FD: 89 F1              mov         ecx,esi
  0040D4FF: 2B 4C 24 20        sub         ecx,dword ptr [esp+20h]
  0040D503: 39 CD              cmp         ebp,ecx
  0040D505: 72 EB              jb          0040D4F2
  0040D507: 0F BD C3           bsr         eax,ebx
  0040D50A: 83 F0 1F           xor         eax,1Fh
  0040D50D: 8B 6C 24 18        mov         ebp,dword ptr [esp+18h]
  0040D511: 8B 54 24 1C        mov         edx,dword ptr [esp+1Ch]
  0040D515: 89 5D 00           mov         dword ptr [ebp],ebx
  0040D518: 89 EE              mov         esi,ebp
  0040D51A: 8B 6C 24 54        mov         ebp,dword ptr [esp+54h]
  0040D51E: 83 C6 04           add         esi,4
  0040D521: 2B 74 24 24        sub         esi,dword ptr [esp+24h]
  0040D525: 8B 5D 00           mov         ebx,dword ptr [ebp]
  0040D528: C1 FE 02           sar         esi,2
  0040D52B: 89 72 10           mov         dword ptr [edx+10h],esi
  0040D52E: C1 E6 05           shl         esi,5
  0040D531: 29 C6              sub         esi,eax
  0040D533: 39 DE              cmp         esi,ebx
  0040D535: 0F 8F 9E 01 00 00  jg          0040D6D9
  0040D53B: BF 00 00 00 00     mov         edi,0
  0040D540: 0F 8C 29 01 00 00  jl          0040D66F
  0040D546: 8B 54 24 54        mov         edx,dword ptr [esp+54h]
  0040D54A: 8B 6C 24 28        mov         ebp,dword ptr [esp+28h]
  0040D54E: 3B 6A 08           cmp         ebp,dword ptr [edx+8]
  0040D551: 0F 8F D9 00 00 00  jg          0040D630
  0040D557: 8B 54 24 54        mov         edx,dword ptr [esp+54h]
  0040D55B: 8B 42 04           mov         eax,dword ptr [edx+4]
  0040D55E: 39 44 24 28        cmp         dword ptr [esp+28h],eax
  0040D562: 0F 8D E0 01 00 00  jge         0040D748
  0040D568: 89 C6              mov         esi,eax
  0040D56A: 2B 74 24 28        sub         esi,dword ptr [esp+28h]
  0040D56E: 39 F3              cmp         ebx,esi
  0040D570: 0F 8F 90 02 00 00  jg          0040D806
  0040D576: 8B 52 0C           mov         edx,dword ptr [edx+0Ch]
  0040D579: 83 FA 02           cmp         edx,2
  0040D57C: 0F 84 CD 04 00 00  je          0040DA4F
  0040D582: 83 FA 03           cmp         edx,3
  0040D585: 0F 84 9D 04 00 00  je          0040DA28
  0040D58B: 83 FA 01           cmp         edx,1
  0040D58E: 0F 84 C8 04 00 00  je          0040DA5C
  0040D594: 8B 44 24 1C        mov         eax,dword ptr [esp+1Ch]
  0040D598: 89 04 24           mov         dword ptr [esp],eax
  0040D59B: E8 E0 EC FF FF     call        0040C280
  0040D5A0: EB 70              jmp         0040D612
  0040D5A2: 8B 44 24 18        mov         eax,dword ptr [esp+18h]
  0040D5A6: BA 04 00 00 00     mov         edx,4
  0040D5AB: 89 18              mov         dword ptr [eax],ebx
  0040D5AD: 83 C0 04           add         eax,4
  0040D5B0: 31 DB              xor         ebx,ebx
  0040D5B2: 89 44 24 18        mov         dword ptr [esp+18h],eax
  0040D5B6: 0F B6 41 FF        movzx       eax,byte ptr [ecx-1]
  0040D5BA: 31 C9              xor         ecx,ecx
  0040D5BC: E9 1D FF FF FF     jmp         0040D4DE
  0040D5C1: E8 DA 08 00 00     call        0040DEA0
  0040D5C6: E9 A0 FB FF FF     jmp         0040D16B
  0040D5CB: 90                 nop
  0040D5CC: 8D 74 26 00        lea         esi,[esi]
  0040D5D0: 89 EB              mov         ebx,ebp
  0040D5D2: C7 44 24 28 00 00  mov         dword ptr [esp+28h],0
            00 00
  0040D5DA: C7 44 24 20 01 00  mov         dword ptr [esp+20h],1
            00 00
  0040D5E2: E9 AD FC FF FF     jmp         0040D294
  0040D5E7: 85 FF              test        edi,edi
  0040D5E9: 0F 84 61 03 00 00  je          0040D950
  0040D5EF: 0F B6 0B           movzx       ecx,byte ptr [ebx]
  0040D5F2: 88 4C 24 18        mov         byte ptr [esp+18h],cl
  0040D5F6: E9 90 FC FF FF     jmp         0040D28B
  0040D5FB: 90                 nop
  0040D5FC: 8D 74 26 00        lea         esi,[esi]
  0040D600: 83 F8 02           cmp         eax,2
  0040D603: 0F 84 EF 01 00 00  je          0040D7F8
  0040D609: 83 F8 03           cmp         eax,3
  0040D60C: 0F 84 8F 01 00 00  je          0040D7A1
  0040D612: E8 B1 09 00 00     call        0040DFC8
  0040D617: BA 50 00 00 00     mov         edx,50h
  0040D61C: C7 00 22 00 00 00  mov         dword ptr [eax],22h
  0040D622: 83 C4 3C           add         esp,3Ch
  0040D625: 89 D0              mov         eax,edx
  0040D627: 5B                 pop         ebx
  0040D628: 5E                 pop         esi
  0040D629: 5F                 pop         edi
  0040D62A: 5D                 pop         ebp
  0040D62B: C3                 ret
  0040D62C: 8D 74 26 00        lea         esi,[esi]
  0040D630: 8B 44 24 1C        mov         eax,dword ptr [esp+1Ch]
  0040D634: 89 04 24           mov         dword ptr [esp],eax
  0040D637: E8 44 EC FF FF     call        0040C280
  0040D63C: E8 87 09 00 00     call        0040DFC8
  0040D641: BA A3 00 00 00     mov         edx,0A3h
  0040D646: C7 00 22 00 00 00  mov         dword ptr [eax],22h
  0040D64C: 83 C4 3C           add         esp,3Ch
  0040D64F: 89 D0              mov         eax,edx
  0040D651: 5B                 pop         ebx
  0040D652: 5E                 pop         esi
  0040D653: 5F                 pop         edi
  0040D654: 5D                 pop         ebp
  0040D655: C3                 ret
  0040D656: 88 54 24 18        mov         byte ptr [esp+18h],dl
  0040D65A: C7 44 24 28 00 00  mov         dword ptr [esp+28h],0
            00 00
  0040D662: C7 44 24 20 01 00  mov         dword ptr [esp+20h],1
            00 00
  0040D66A: E9 25 FC FF FF     jmp         0040D294
  0040D66F: 8B 44 24 1C        mov         eax,dword ptr [esp+1Ch]
  0040D673: 89 DA              mov         edx,ebx
  0040D675: 29 F2              sub         edx,esi
  0040D677: 89 54 24 04        mov         dword ptr [esp+4],edx
  0040D67B: 89 D6              mov         esi,edx
  0040D67D: 89 04 24           mov         dword ptr [esp],eax
  0040D680: E8 EB EF FF FF     call        0040C670
  0040D685: 29 74 24 28        sub         dword ptr [esp+28h],esi
  0040D689: 89 44 24 1C        mov         dword ptr [esp+1Ch],eax
  0040D68D: 83 C0 14           add         eax,14h
  0040D690: 89 44 24 24        mov         dword ptr [esp+24h],eax
  0040D694: E9 AD FE FF FF     jmp         0040D546
  0040D699: 8D B4 26 00 00 00  lea         esi,[esi]
            00
  0040D6A0: C7 44 24 24 00 00  mov         dword ptr [esp+24h],0
            00 00
  0040D6A8: 8D 4B 02           lea         ecx,[ebx+2]
  0040D6AB: 0F B6 53 02        movzx       edx,byte ptr [ebx+2]
  0040D6AF: E9 0D FD FF FF     jmp         0040D3C1
  0040D6B4: C7 44 24 24 01 00  mov         dword ptr [esp+24h],1
            00 00
  0040D6BC: EB EA              jmp         0040D6A8
  0040D6BE: 0F B6 13           movzx       edx,byte ptr [ebx]
  0040D6C1: 88 54 24 18        mov         byte ptr [esp+18h],dl
  0040D6C5: C7 44 24 28 00 00  mov         dword ptr [esp+28h],0
            00 00
  0040D6CD: E9 C2 FB FF FF     jmp         0040D294
  0040D6D2: 31 C0              xor         eax,eax
  0040D6D4: E9 C8 FA FF FF     jmp         0040D1A1
  0040D6D9: 29 DE              sub         esi,ebx
  0040D6DB: 31 FF              xor         edi,edi
  0040D6DD: 89 74 24 04        mov         dword ptr [esp+4],esi
  0040D6E1: 89 14 24           mov         dword ptr [esp],edx
  0040D6E4: E8 57 F8 FF FF     call        .text
  0040D6E9: 85 C0              test        eax,eax
  0040D6EB: 74 42              je          0040D72F
  0040D6ED: 8B 6C 24 1C        mov         ebp,dword ptr [esp+1Ch]
  0040D6F1: 8D 4E FF           lea         ecx,[esi-1]
  0040D6F4: B8 01 00 00 00     mov         eax,1
  0040D6F9: 89 CA              mov         edx,ecx
  0040D6FB: 66 BF 01 00        mov         di,1
  0040D6FF: C1 FA 05           sar         edx,5
  0040D702: D3 E0              shl         eax,cl
  0040D704: 85 44 95 14        test        dword ptr [ebp+edx*4+14h],eax
  0040D708: 74 25              je          0040D72F
  0040D70A: 85 C9              test        ecx,ecx
  0040D70C: 0F 8E CE 02 00 00  jle         0040D9E0
  0040D712: 8B 44 24 1C        mov         eax,dword ptr [esp+1Ch]
  0040D716: 89 4C 24 04        mov         dword ptr [esp+4],ecx
  0040D71A: 89 04 24           mov         dword ptr [esp],eax
  0040D71D: E8 1E F8 FF FF     call        .text
  0040D722: 85 C0              test        eax,eax
  0040D724: 0F 84 B6 02 00 00  je          0040D9E0
  0040D72A: BF 03 00 00 00     mov         edi,3
  0040D72F: 8B 44 24 1C        mov         eax,dword ptr [esp+1Ch]
  0040D733: 89 74 24 04        mov         dword ptr [esp+4],esi
  0040D737: 89 04 24           mov         dword ptr [esp],eax
  0040D73A: E8 81 F4 FF FF     call        0040CBC0
  0040D73F: 01 74 24 28        add         dword ptr [esp+28h],esi
  0040D743: E9 FE FD FF FF     jmp         0040D546
  0040D748: BA 01 00 00 00     mov         edx,1
  0040D74D: 85 FF              test        edi,edi
  0040D74F: 74 25              je          0040D776
  0040D751: 8B 6C 24 54        mov         ebp,dword ptr [esp+54h]
  0040D755: 8B 45 0C           mov         eax,dword ptr [ebp+0Ch]
  0040D758: 83 F8 02           cmp         eax,2
  0040D75B: 0F 84 12 01 00 00  je          0040D873
  0040D761: 83 F8 03           cmp         eax,3
  0040D764: 0F 84 A1 02 00 00  je          0040DA0B
  0040D76A: 83 F8 01           cmp         eax,1
  0040D76D: 0F 84 77 02 00 00  je          0040D9EA
  0040D773: 83 CA 10           or          edx,10h
  0040D776: 8B 44 24 1C        mov         eax,dword ptr [esp+1Ch]
  0040D77A: 8B 6C 24 5C        mov         ebp,dword ptr [esp+5Ch]
  0040D77E: 8B 4C 24 58        mov         ecx,dword ptr [esp+58h]
  0040D782: 89 45 00           mov         dword ptr [ebp],eax
  0040D785: 8B 6C 24 28        mov         ebp,dword ptr [esp+28h]
  0040D789: 89 D0              mov         eax,edx
  0040D78B: 89 29              mov         dword ptr [ecx],ebp
  0040D78D: 83 C4 3C           add         esp,3Ch
  0040D790: 5B                 pop         ebx
  0040D791: 5E                 pop         esi
  0040D792: 5F                 pop         edi
  0040D793: 5D                 pop         ebp
  0040D794: C3                 ret
  0040D795: 89 DF              mov         edi,ebx
  0040D797: B8 01 00 00 00     mov         eax,1
  0040D79C: E9 B5 FA FF FF     jmp         0040D256
  0040D7A1: 8B 7C 24 60        mov         edi,dword ptr [esp+60h]
  0040D7A5: 85 FF              test        edi,edi
  0040D7A7: 0F 84 65 FE FF FF  je          0040D612
  0040D7AD: C7 04 24 00 00 00  mov         dword ptr [esp],0
            00
  0040D7B4: E8 07 EA FF FF     call        0040C1C0
  0040D7B9: 8B 54 24 54        mov         edx,dword ptr [esp+54h]
  0040D7BD: 89 44 24 1C        mov         dword ptr [esp+1Ch],eax
  0040D7C1: C7 40 10 01 00 00  mov         dword ptr [eax+10h],1
            00
  0040D7C8: C7 40 14 01 00 00  mov         dword ptr [eax+14h],1
            00
  0040D7CF: 8B 42 04           mov         eax,dword ptr [edx+4]
  0040D7D2: 8B 54 24 1C        mov         edx,dword ptr [esp+1Ch]
  0040D7D6: 8B 6C 24 5C        mov         ebp,dword ptr [esp+5Ch]
  0040D7DA: 8B 4C 24 58        mov         ecx,dword ptr [esp+58h]
  0040D7DE: 89 55 00           mov         dword ptr [ebp],edx
  0040D7E1: 89 01              mov         dword ptr [ecx],eax
  0040D7E3: E8 E0 07 00 00     call        0040DFC8
  0040D7E8: BA 62 00 00 00     mov         edx,62h
  0040D7ED: C7 00 22 00 00 00  mov         dword ptr [eax],22h
  0040D7F3: E9 8E FB FF FF     jmp         0040D386
  0040D7F8: 8B 6C 24 60        mov         ebp,dword ptr [esp+60h]
  0040D7FC: 85 ED              test        ebp,ebp
  0040D7FE: 0F 85 0E FE FF FF  jne         0040D612
  0040D804: EB A7              jmp         0040D7AD
  0040D806: 85 FF              test        edi,edi
  0040D808: 8D 6E FF           lea         ebp,[esi-1]
  0040D80B: 0F 85 C5 01 00 00  jne         0040D9D6
  0040D811: 85 ED              test        ebp,ebp
  0040D813: 7E 12              jle         0040D827
  0040D815: 8B 44 24 1C        mov         eax,dword ptr [esp+1Ch]
  0040D819: 89 6C 24 04        mov         dword ptr [esp+4],ebp
  0040D81D: 89 04 24           mov         dword ptr [esp],eax
  0040D820: E8 1B F7 FF FF     call        .text
  0040D825: 89 C7              mov         edi,eax
  0040D827: 89 E9              mov         ecx,ebp
  0040D829: 89 EA              mov         edx,ebp
  0040D82B: 8B 6C 24 24        mov         ebp,dword ptr [esp+24h]
  0040D82F: B8 01 00 00 00     mov         eax,1
  0040D834: C1 FA 05           sar         edx,5
  0040D837: D3 E0              shl         eax,cl
  0040D839: 89 F9              mov         ecx,edi
  0040D83B: 83 C9 02           or          ecx,2
  0040D83E: 85 44 95 00        test        dword ptr [ebp+edx*4],eax
  0040D842: 8B 44 24 1C        mov         eax,dword ptr [esp+1Ch]
  0040D846: 89 74 24 04        mov         dword ptr [esp+4],esi
  0040D84A: 0F 45 F9           cmovne      edi,ecx
  0040D84D: 29 F3              sub         ebx,esi
  0040D84F: 89 04 24           mov         dword ptr [esp],eax
  0040D852: E8 69 F3 FF FF     call        0040CBC0
  0040D857: 8B 54 24 54        mov         edx,dword ptr [esp+54h]
  0040D85B: 8B 52 04           mov         edx,dword ptr [edx+4]
  0040D85E: 89 54 24 28        mov         dword ptr [esp+28h],edx
  0040D862: BA 02 00 00 00     mov         edx,2
  0040D867: E9 E1 FE FF FF     jmp         0040D74D
  0040D86C: 31 DB              xor         ebx,ebx
  0040D86E: E9 74 F9 FF FF     jmp         0040D1E7
  0040D873: B8 01 00 00 00     mov         eax,1
  0040D878: 2B 44 24 60        sub         eax,dword ptr [esp+60h]
  0040D87C: 85 C0              test        eax,eax
  0040D87E: 0F 84 EF FE FF FF  je          0040D773
  0040D884: 8B 44 24 1C        mov         eax,dword ptr [esp+1Ch]
  0040D888: 8B 78 10           mov         edi,dword ptr [eax+10h]
  0040D88B: 89 04 24           mov         dword ptr [esp],eax
  0040D88E: 89 54 24 14        mov         dword ptr [esp+14h],edx
  0040D892: E8 99 C7 FF FF     call        0040A030
  0040D897: 8B 54 24 14        mov         edx,dword ptr [esp+14h]
  0040D89B: 83 FA 02           cmp         edx,2
  0040D89E: 89 44 24 1C        mov         dword ptr [esp+1Ch],eax
  0040D8A2: 0F 84 E7 01 00 00  je          0040DA8F
  0040D8A8: 8B 44 24 1C        mov         eax,dword ptr [esp+1Ch]
  0040D8AC: 3B 78 10           cmp         edi,dword ptr [eax+10h]
  0040D8AF: 7C 18              jl          0040D8C9
  0040D8B1: 83 E3 1F           and         ebx,1Fh
  0040D8B4: 74 3D              je          0040D8F3
  0040D8B6: 0F BD 44 B8 10     bsr         eax,dword ptr [eax+edi*4+10h]
  0040D8BB: BA 20 00 00 00     mov         edx,20h
  0040D8C0: 29 DA              sub         edx,ebx
  0040D8C2: 83 F0 1F           xor         eax,1Fh
  0040D8C5: 39 C2              cmp         edx,eax
  0040D8C7: 7E 2A              jle         0040D8F3
  0040D8C9: 8B 44 24 1C        mov         eax,dword ptr [esp+1Ch]
  0040D8CD: C7 44 24 04 01 00  mov         dword ptr [esp+4],1
            00 00
  0040D8D5: 89 04 24           mov         dword ptr [esp],eax
  0040D8D8: E8 E3 F2 FF FF     call        0040CBC0
  0040D8DD: 8B 54 24 54        mov         edx,dword ptr [esp+54h]
  0040D8E1: 83 44 24 28 01     add         dword ptr [esp+28h],1
  0040D8E6: 8B 6C 24 28        mov         ebp,dword ptr [esp+28h]
  0040D8EA: 3B 6A 08           cmp         ebp,dword ptr [edx+8]
  0040D8ED: 0F 8F 3D FD FF FF  jg          0040D630
  0040D8F3: BA 21 00 00 00     mov         edx,21h
  0040D8F8: E9 79 FE FF FF     jmp         0040D776
  0040D8FD: 8B 74 24 60        mov         esi,dword ptr [esp+60h]
  0040D901: 85 F6              test        esi,esi
  0040D903: 0F 84 33 FD FF FF  je          0040D63C
  0040D909: E9 04 FA FF FF     jmp         0040D312
  0040D90E: 8B 5C 24 60        mov         ebx,dword ptr [esp+60h]
  0040D912: 85 DB              test        ebx,ebx
  0040D914: 0F 85 22 FD FF FF  jne         0040D63C
  0040D91A: E9 F3 F9 FF FF     jmp         0040D312
  0040D91F: 31 FF              xor         edi,edi
  0040D921: E9 86 FB FF FF     jmp         0040D4AC
  0040D926: 8B 54 24 24        mov         edx,dword ptr [esp+24h]
  0040D92A: B8 20 00 00 00     mov         eax,20h
  0040D92F: 31 DB              xor         ebx,ebx
  0040D931: 89 54 24 18        mov         dword ptr [esp+18h],edx
  0040D935: E9 D3 FB FF FF     jmp         0040D50D
  0040D93A: 31 FF              xor         edi,edi
  0040D93C: 89 EB              mov         ebx,ebp
  0040D93E: 38 54 24 18        cmp         byte ptr [esp+18h],dl
  0040D942: C7 44 24 20 00 00  mov         dword ptr [esp+20h],0
            00 00
  0040D94A: 0F 85 2C F9 FF FF  jne         0040D27C
  0040D950: 0F B6 4E 01        movzx       ecx,byte ptr [esi+1]
  0040D954: 84 C9              test        cl,cl
  0040D956: 0F 84 6C 01 00 00  je          0040DAC8
  0040D95C: 3A 4B 01           cmp         cl,byte ptr [ebx+1]
  0040D95F: BA 01 00 00 00     mov         edx,1
  0040D964: 74 13              je          0040D979
  0040D966: E9 53 FD FF FF     jmp         0040D6BE
  0040D96B: 90                 nop
  0040D96C: 8D 74 26 00        lea         esi,[esi]
  0040D970: 3A 0C 13           cmp         cl,byte ptr [ebx+edx]
  0040D973: 0F 85 9B 00 00 00  jne         0040DA14
  0040D979: 83 C2 01           add         edx,1
  0040D97C: 0F B6 0C 16        movzx       ecx,byte ptr [esi+edx]
  0040D980: 89 D7              mov         edi,edx
  0040D982: 84 C9              test        cl,cl
  0040D984: 75 EA              jne         0040D970
  0040D986: 01 DF              add         edi,ebx
  0040D988: 0F B6 17           movzx       edx,byte ptr [edi]
  0040D98B: 89 FB              mov         ebx,edi
  0040D98D: 80 BA C0 1D 41 00  cmp         byte ptr [edx+411DC0h],0
            00
  0040D994: 88 54 24 18        mov         byte ptr [esp+18h],dl
  0040D998: 0F 84 ED F8 FF FF  je          0040D28B
  0040D99E: 66
  0040D99F: 90                 nop
  0040D9A0: 83 C3 01           add         ebx,1
  0040D9A3: 0F B6 13           movzx       edx,byte ptr [ebx]
  0040D9A6: 0F B6 CA           movzx       ecx,dl
  0040D9A9: 80 B9 C0 1D 41 00  cmp         byte ptr [ecx+411DC0h],0
            00
  0040D9B0: 75 EE              jne         0040D9A0
  0040D9B2: 88 54 24 18        mov         byte ptr [esp+18h],dl
  0040D9B6: E9 D0 F8 FF FF     jmp         0040D28B
  0040D9BB: 88 54 24 18        mov         byte ptr [esp+18h],dl
  0040D9BF: 89 EB              mov         ebx,ebp
  0040D9C1: C7 44 24 28 00 00  mov         dword ptr [esp+28h],0
            00 00
  0040D9C9: C7 44 24 20 01 00  mov         dword ptr [esp+20h],1
            00 00
  0040D9D1: E9 BE F8 FF FF     jmp         0040D294
  0040D9D6: BF 01 00 00 00     mov         edi,1
  0040D9DB: E9 47 FE FF FF     jmp         0040D827
  0040D9E0: BF 02 00 00 00     mov         edi,2
  0040D9E5: E9 45 FD FF FF     jmp         0040D72F
  0040D9EA: F7 C7 02 00 00 00  test        edi,2
  0040D9F0: 0F 84 7D FD FF FF  je          0040D773
  0040D9F6: 8B 6C 24 24        mov         ebp,dword ptr [esp+24h]
  0040D9FA: 0B 7D 00           or          edi,dword ptr [ebp]
  0040D9FD: 83 E7 01           and         edi,1
  0040DA00: 0F 85 7E FE FF FF  jne         0040D884
  0040DA06: E9 68 FD FF FF     jmp         0040D773
  0040DA0B: 8B 44 24 60        mov         eax,dword ptr [esp+60h]
  0040DA0F: E9 68 FE FF FF     jmp         0040D87C
  0040DA14: 0F B6 0B           movzx       ecx,byte ptr [ebx]
  0040DA17: C7 44 24 28 00 00  mov         dword ptr [esp+28h],0
            00 00
  0040DA1F: 88 4C 24 18        mov         byte ptr [esp+18h],cl
  0040DA23: E9 6C F8 FF FF     jmp         0040D294
  0040DA28: 8B 54 24 60        mov         edx,dword ptr [esp+60h]
  0040DA2C: 85 D2              test        edx,edx
  0040DA2E: 0F 84 60 FB FF FF  je          0040D594
  0040DA34: 8B 54 24 1C        mov         edx,dword ptr [esp+1Ch]
  0040DA38: 8B 6C 24 24        mov         ebp,dword ptr [esp+24h]
  0040DA3C: C7 42 10 01 00 00  mov         dword ptr [edx+10h],1
            00
  0040DA43: C7 45 00 01 00 00  mov         dword ptr [ebp],1
            00
  0040DA4A: E9 83 FD FF FF     jmp         0040D7D2
  0040DA4F: 8B 4C 24 60        mov         ecx,dword ptr [esp+60h]
  0040DA53: 85 C9              test        ecx,ecx
  0040DA55: 74 DD              je          0040DA34
  0040DA57: E9 38 FB FF FF     jmp         0040D594
  0040DA5C: 39 DE              cmp         esi,ebx
  0040DA5E: 66
  0040DA5F: 90                 nop
  0040DA60: 0F 85 2E FB FF FF  jne         0040D594
  0040DA66: 83 FB 01           cmp         ebx,1
  0040DA69: 7E C9              jle         0040DA34
  0040DA6B: 8B 44 24 1C        mov         eax,dword ptr [esp+1Ch]
  0040DA6F: 83 EB 01           sub         ebx,1
  0040DA72: 89 5C 24 04        mov         dword ptr [esp+4],ebx
  0040DA76: 89 04 24           mov         dword ptr [esp],eax
  0040DA79: E8 C2 F4 FF FF     call        .text
  0040DA7E: 85 C0              test        eax,eax
  0040DA80: 0F 84 0E FB FF FF  je          0040D594
  0040DA86: 8B 54 24 54        mov         edx,dword ptr [esp+54h]
  0040DA8A: 8B 42 04           mov         eax,dword ptr [edx+4]
  0040DA8D: EB A5              jmp         0040DA34
  0040DA8F: 8B 54 24 54        mov         edx,dword ptr [esp+54h]
  0040DA93: 8B 02              mov         eax,dword ptr [edx]
  0040DA95: BA 22 00 00 00     mov         edx,22h
  0040DA9A: 83 E8 01           sub         eax,1
  0040DA9D: 39 D8              cmp         eax,ebx
  0040DA9F: 0F 85 D1 FC FF FF  jne         0040D776
  0040DAA5: 8B 6C 24 1C        mov         ebp,dword ptr [esp+1Ch]
  0040DAA9: 89 D9              mov         ecx,ebx
  0040DAAB: B8 01 00 00 00     mov         eax,1
  0040DAB0: C1 FB 05           sar         ebx,5
  0040DAB3: D3 E0              shl         eax,cl
  0040DAB5: 23 44 9D 14        and         eax,dword ptr [ebp+ebx*4+14h]
  0040DAB9: 83 F8 01           cmp         eax,1
  0040DABC: 19 D2              sbb         edx,edx
  0040DABE: F7 D2              not         edx
  0040DAC0: 83 C2 22           add         edx,22h
  0040DAC3: E9 AE FC FF FF     jmp         0040D776
  0040DAC8: BF 01 00 00 00     mov         edi,1
  0040DACD: E9 B4 FE FF FF     jmp         0040D986
  0040DAD2: 90                 nop
  0040DAD3: 90                 nop
  0040DAD4: 90                 nop
  0040DAD5: 90                 nop
  0040DAD6: 90                 nop
  0040DAD7: 90                 nop
  0040DAD8: 90                 nop
  0040DAD9: 90                 nop
  0040DADA: 90                 nop
  0040DADB: 90                 nop
  0040DADC: 90                 nop
  0040DADD: 90                 nop
  0040DADE: 90                 nop
  0040DADF: 90                 nop
  0040DAE0: 55                 push        ebp
  0040DAE1: 57                 push        edi
  0040DAE2: 56                 push        esi
  0040DAE3: 53                 push        ebx
  0040DAE4: 83 EC 3C           sub         esp,3Ch
  0040DAE7: 80 3D F0 1D 41 00  cmp         byte ptr ds:[411DF0h],0
            00
  0040DAEE: 0F 84 2A 03 00 00  je          0040DE1E
  0040DAF4: 8B 44 24 54        mov         eax,dword ptr [esp+54h]
  0040DAF8: 8B 4C 24 58        mov         ecx,dword ptr [esp+58h]
  0040DAFC: 8B 00              mov         eax,dword ptr [eax]
  0040DAFE: 89 C2              mov         edx,eax
  0040DB00: C1 FA 05           sar         edx,5
  0040DB03: 8D 14 91           lea         edx,[ecx+edx*4]
  0040DB06: 89 54 24 1C        mov         dword ptr [esp+1Ch],edx
  0040DB0A: 83 C2 04           add         edx,4
  0040DB0D: 83 E0 1F           and         eax,1Fh
  0040DB10: 0F 44 54 24 1C     cmove       edx,dword ptr [esp+1Ch]
  0040DB15: 89 44 24 2C        mov         dword ptr [esp+2Ch],eax
  0040DB19: 89 54 24 1C        mov         dword ptr [esp+1Ch],edx
  0040DB1D: 83 EA 04           sub         edx,4
  0040DB20: 8B 6C 24 1C        mov         ebp,dword ptr [esp+1Ch]
  0040DB24: 89 54 24 20        mov         dword ptr [esp+20h],edx
  0040DB28: 8B 54 24 50        mov         edx,dword ptr [esp+50h]
  0040DB2C: C7 45 FC 00 00 00  mov         dword ptr [ebp-4],0
            00
  0040DB33: 8B 02              mov         eax,dword ptr [edx]
  0040DB35: 0F B6 48 01        movzx       ecx,byte ptr [eax+1]
  0040DB39: 0F B6 D1           movzx       edx,cl
  0040DB3C: 85 D2              test        edx,edx
  0040DB3E: 75 10              jne         0040DB50
  0040DB40: EB 13              jmp         0040DB55
  0040DB42: 83 C0 01           add         eax,1
  0040DB45: 0F B6 48 01        movzx       ecx,byte ptr [eax+1]
  0040DB49: 0F B6 D1           movzx       edx,cl
  0040DB4C: 85 D2              test        edx,edx
  0040DB4E: 74 05              je          0040DB55
  0040DB50: 83 FA 20           cmp         edx,20h
  0040DB53: 76 ED              jbe         0040DB42
  0040DB55: 80 F9 30           cmp         cl,30h
  0040DB58: 0F 84 CA 02 00 00  je          0040DE28
  0040DB5E: 0F B6 50 01        movzx       edx,byte ptr [eax+1]
  0040DB62: 8B 4C 24 20        mov         ecx,dword ptr [esp+20h]
  0040DB66: 31 FF              xor         edi,edi
  0040DB68: 31 DB              xor         ebx,ebx
  0040DB6A: C7 44 24 14 00 00  mov         dword ptr [esp+14h],0
            00 00
  0040DB72: 89 FD              mov         ebp,edi
  0040DB74: 89 4C 24 18        mov         dword ptr [esp+18h],ecx
  0040DB78: 89 CE              mov         esi,ecx
  0040DB7A: 8D B6 00 00 00 00  lea         esi,[esi]
  0040DB80: 85 D2              test        edx,edx
  0040DB82: 8D 78 01           lea         edi,[eax+1]
  0040DB85: 0F 84 AD 00 00 00  je          0040DC38
  0040DB8B: 0F B6 8A C0 1D 41  movzx       ecx,byte ptr [edx+411DC0h]
            00
  0040DB92: 84 C9              test        cl,cl
  0040DB94: 0F 85 26 01 00 00  jne         0040DCC0
  0040DB9A: 83 FA 20           cmp         edx,20h
  0040DB9D: 0F 87 39 02 00 00  ja          0040DDDC
  0040DBA3: 3B 6C 24 14        cmp         ebp,dword ptr [esp+14h]
  0040DBA7: 0F 8E 49 01 00 00  jle         0040DCF6
  0040DBAD: 83 FB 07           cmp         ebx,7
  0040DBB0: 7F 66              jg          0040DC18
  0040DBB2: 3B 74 24 18        cmp         esi,dword ptr [esp+18h]
  0040DBB6: 73 60              jae         0040DC18
  0040DBB8: BA 08 00 00 00     mov         edx,8
  0040DBBD: B9 20 00 00 00     mov         ecx,20h
  0040DBC2: 29 DA              sub         edx,ebx
  0040DBC4: 8B 1E              mov         ebx,dword ptr [esi]
  0040DBC6: 89 6C 24 24        mov         dword ptr [esp+24h],ebp
  0040DBCA: 8B 6C 24 18        mov         ebp,dword ptr [esp+18h]
  0040DBCE: C1 E2 02           shl         edx,2
  0040DBD1: 29 D1              sub         ecx,edx
  0040DBD3: 89 54 24 0C        mov         dword ptr [esp+0Ch],edx
  0040DBD7: 89 F2              mov         edx,esi
  0040DBD9: 89 7C 24 28        mov         dword ptr [esp+28h],edi
  0040DBDD: 89 F7              mov         edi,esi
  0040DBDF: 89 4C 24 10        mov         dword ptr [esp+10h],ecx
  0040DBE3: 89 44 24 04        mov         dword ptr [esp+4],eax
  0040DBE7: 8B 72 04           mov         esi,dword ptr [edx+4]
  0040DBEA: 0F B6 4C 24 10     movzx       ecx,byte ptr [esp+10h]
  0040DBEF: 89 F0              mov         eax,esi
  0040DBF1: D3 E0              shl         eax,cl
  0040DBF3: 0F B6 4C 24 0C     movzx       ecx,byte ptr [esp+0Ch]
  0040DBF8: 09 D8              or          eax,ebx
  0040DBFA: 89 F3              mov         ebx,esi
  0040DBFC: 89 02              mov         dword ptr [edx],eax
  0040DBFE: D3 EB              shr         ebx,cl
  0040DC00: 89 5A 04           mov         dword ptr [edx+4],ebx
  0040DC03: 83 C2 04           add         edx,4
  0040DC06: 39 D5              cmp         ebp,edx
  0040DC08: 77 DD              ja          0040DBE7
  0040DC0A: 89 FE              mov         esi,edi
  0040DC0C: 8B 6C 24 24        mov         ebp,dword ptr [esp+24h]
  0040DC10: 8B 7C 24 28        mov         edi,dword ptr [esp+28h]
  0040DC14: 8B 44 24 04        mov         eax,dword ptr [esp+4]
  0040DC18: 3B 74 24 58        cmp         esi,dword ptr [esp+58h]
  0040DC1C: 0F 87 C0 00 00 00  ja          0040DCE2
  0040DC22: 0F B6 50 02        movzx       edx,byte ptr [eax+2]
  0040DC26: 89 F8              mov         eax,edi
  0040DC28: BB 08 00 00 00     mov         ebx,8
  0040DC2D: 8D 78 01           lea         edi,[eax+1]
  0040DC30: 85 D2              test        edx,edx
  0040DC32: 0F 85 53 FF FF FF  jne         0040DB8B
  0040DC38: 85 ED              test        ebp,ebp
  0040DC3A: B8 04 00 00 00     mov         eax,4
  0040DC3F: 74 75              je          0040DCB6
  0040DC41: 83 FB 07           cmp         ebx,7
  0040DC44: 0F 8E 3E 01 00 00  jle         0040DD88
  0040DC4A: 39 74 24 58        cmp         dword ptr [esp+58h],esi
  0040DC4E: 0F 83 09 01 00 00  jae         0040DD5D
  0040DC54: 8B 44 24 58        mov         eax,dword ptr [esp+58h]
  0040DC58: 8B 4C 24 20        mov         ecx,dword ptr [esp+20h]
  0040DC5C: 8D 74 26 00        lea         esi,[esi]
  0040DC60: 8B 16              mov         edx,dword ptr [esi]
  0040DC62: 83 C6 04           add         esi,4
  0040DC65: 89 10              mov         dword ptr [eax],edx
  0040DC67: 83 C0 04           add         eax,4
  0040DC6A: 39 F1              cmp         ecx,esi
  0040DC6C: 73 F2              jae         0040DC60
  0040DC6E: 89 CA              mov         edx,ecx
  0040DC70: C7 00 00 00 00 00  mov         dword ptr [eax],0
  0040DC76: 83 C0 04           add         eax,4
  0040DC79: 39 C2              cmp         edx,eax
  0040DC7B: 73 F3              jae         0040DC70
  0040DC7D: 8B 6C 24 1C        mov         ebp,dword ptr [esp+1Ch]
  0040DC81: 89 54 24 20        mov         dword ptr [esp+20h],edx
  0040DC85: 8B 45 FC           mov         eax,dword ptr [ebp-4]
  0040DC88: 85 C0              test        eax,eax
  0040DC8A: 75 25              jne         0040DCB1
  0040DC8C: 8B 44 24 20        mov         eax,dword ptr [esp+20h]
  0040DC90: 39 44 24 58        cmp         dword ptr [esp+58h],eax
  0040DC94: 0F 84 B3 01 00 00  je          0040DE4D
  0040DC9A: 8B 54 24 58        mov         edx,dword ptr [esp+58h]
  0040DC9E: EB 08              jmp         0040DCA8
  0040DCA0: 39 C2              cmp         edx,eax
  0040DCA2: 0F 84 A9 01 00 00  je          0040DE51
  0040DCA8: 83 E8 04           sub         eax,4
  0040DCAB: 8B 08              mov         ecx,dword ptr [eax]
  0040DCAD: 85 C9              test        ecx,ecx
  0040DCAF: 74 EF              je          0040DCA0
  0040DCB1: B8 05 00 00 00     mov         eax,5
  0040DCB6: 83 C4 3C           add         esp,3Ch
  0040DCB9: 5B                 pop         ebx
  0040DCBA: 5E                 pop         esi
  0040DCBB: 5F                 pop         edi
  0040DCBC: 5D                 pop         ebp
  0040DCBD: C3                 ret
  0040DCBE: 66
  0040DCBF: 90                 nop
  0040DCC0: 83 C3 01           add         ebx,1
  0040DCC3: 83 C5 01           add         ebp,1
  0040DCC6: 83 FB 08           cmp         ebx,8
  0040DCC9: 7F 55              jg          0040DD20
  0040DCCB: 8B 16              mov         edx,dword ptr [esi]
  0040DCCD: C1 E2 04           shl         edx,4
  0040DCD0: 83 E1 0F           and         ecx,0Fh
  0040DCD3: 09 D1              or          ecx,edx
  0040DCD5: 89 0E              mov         dword ptr [esi],ecx
  0040DCD7: 0F B6 50 02        movzx       edx,byte ptr [eax+2]
  0040DCDB: 89 F8              mov         eax,edi
  0040DCDD: E9 9E FE FF FF     jmp         0040DB80
  0040DCE2: C7 46 FC 00 00 00  mov         dword ptr [esi-4],0
            00
  0040DCE9: 83 EE 04           sub         esi,4
  0040DCEC: 31 DB              xor         ebx,ebx
  0040DCEE: 89 6C 24 14        mov         dword ptr [esp+14h],ebp
  0040DCF2: 89 74 24 18        mov         dword ptr [esp+18h],esi
  0040DCF6: 0F B6 50 02        movzx       edx,byte ptr [eax+2]
  0040DCFA: 89 F8              mov         eax,edi
  0040DCFC: 80 FA 20           cmp         dl,20h
  0040DCFF: 77 0C              ja          0040DD0D
  0040DD01: 83 C0 01           add         eax,1
  0040DD04: 0F B6 50 01        movzx       edx,byte ptr [eax+1]
  0040DD08: 80 FA 20           cmp         dl,20h
  0040DD0B: 76 F4              jbe         0040DD01
  0040DD0D: 80 FA 30           cmp         dl,30h
  0040DD10: 74 2E              je          0040DD40
  0040DD12: 0F B6 50 01        movzx       edx,byte ptr [eax+1]
  0040DD16: E9 65 FE FF FF     jmp         0040DB80
  0040DD1B: 90                 nop
  0040DD1C: 8D 74 26 00        lea         esi,[esi]
  0040DD20: 3B 74 24 58        cmp         esi,dword ptr [esp+58h]
  0040DD24: 76 B1              jbe         0040DCD7
  0040DD26: C7 46 FC 00 00 00  mov         dword ptr [esi-4],0
            00
  0040DD2D: 31 D2              xor         edx,edx
  0040DD2F: 83 EE 04           sub         esi,4
  0040DD32: BB 01 00 00 00     mov         ebx,1
  0040DD37: EB 97              jmp         0040DCD0
  0040DD39: 8D B4 26 00 00 00  lea         esi,[esi]
            00
  0040DD40: 0F B6 50 02        movzx       edx,byte ptr [eax+2]
  0040DD44: 83 E2 DF           and         edx,0FFFFFFDFh
  0040DD47: 80 FA 58           cmp         dl,58h
  0040DD4A: 75 C6              jne         0040DD12
  0040DD4C: 0F B6 50 03        movzx       edx,byte ptr [eax+3]
  0040DD50: 80 FA 20           cmp         dl,20h
  0040DD53: 76 BD              jbe         0040DD12
  0040DD55: 83 C0 02           add         eax,2
  0040DD58: E9 23 FE FF FF     jmp         0040DB80
  0040DD5D: 8B 5C 24 2C        mov         ebx,dword ptr [esp+2Ch]
  0040DD61: 85 DB              test        ebx,ebx
  0040DD63: 0F 84 17 01 00 00  je          0040DE80
  0040DD69: 8B 6C 24 1C        mov         ebp,dword ptr [esp+1Ch]
  0040DD6D: B9 20 00 00 00     mov         ecx,20h
  0040DD72: B8 FF FF FF FF     mov         eax,0FFFFFFFFh
  0040DD77: 2B 4C 24 2C        sub         ecx,dword ptr [esp+2Ch]
  0040DD7B: D3 E8              shr         eax,cl
  0040DD7D: 23 45 FC           and         eax,dword ptr [ebp-4]
  0040DD80: 89 45 FC           mov         dword ptr [ebp-4],eax
  0040DD83: E9 00 FF FF FF     jmp         0040DC88
  0040DD88: 3B 74 24 18        cmp         esi,dword ptr [esp+18h]
  0040DD8C: 0F 83 B8 FE FF FF  jae         0040DC4A
  0040DD92: BF 08 00 00 00     mov         edi,8
  0040DD97: 8B 16              mov         edx,dword ptr [esi]
  0040DD99: 89 F0              mov         eax,esi
  0040DD9B: 89 74 24 0C        mov         dword ptr [esp+0Ch],esi
  0040DD9F: 8B 74 24 18        mov         esi,dword ptr [esp+18h]
  0040DDA3: 29 DF              sub         edi,ebx
  0040DDA5: C1 E7 02           shl         edi,2
  0040DDA8: BB 20 00 00 00     mov         ebx,20h
  0040DDAD: 29 FB              sub         ebx,edi
  0040DDAF: 90                 nop
  0040DDB0: 8B 68 04           mov         ebp,dword ptr [eax+4]
  0040DDB3: 89 D9              mov         ecx,ebx
  0040DDB5: D3 E5              shl         ebp,cl
  0040DDB7: 89 F9              mov         ecx,edi
  0040DDB9: 09 D5              or          ebp,edx
  0040DDBB: 8B 50 04           mov         edx,dword ptr [eax+4]
  0040DDBE: 89 28              mov         dword ptr [eax],ebp
  0040DDC0: D3 EA              shr         edx,cl
  0040DDC2: 89 50 04           mov         dword ptr [eax+4],edx
  0040DDC5: 83 C0 04           add         eax,4
  0040DDC8: 39 F0              cmp         eax,esi
  0040DDCA: 72 E4              jb          0040DDB0
  0040DDCC: 8B 74 24 0C        mov         esi,dword ptr [esp+0Ch]
  0040DDD0: 39 74 24 58        cmp         dword ptr [esp+58h],esi
  0040DDD4: 0F 82 7A FE FF FF  jb          0040DC54
  0040DDDA: EB 81              jmp         0040DD5D
  0040DDDC: 89 F9              mov         ecx,edi
  0040DDDE: 83 FA 29           cmp         edx,29h
  0040DDE1: 89 EF              mov         edi,ebp
  0040DDE3: 0F 94 C2           sete        dl
  0040DDE6: 85 FF              test        edi,edi
  0040DDE8: 89 CD              mov         ebp,ecx
  0040DDEA: 75 78              jne         0040DE64
  0040DDEC: 84 D2              test        dl,dl
  0040DDEE: 0F 85 98 00 00 00  jne         0040DE8C
  0040DDF4: 0F BE 41 01        movsx       eax,byte ptr [ecx+1]
  0040DDF8: 83 C5 01           add         ebp,1
  0040DDFB: 85 C0              test        eax,eax
  0040DDFD: 74 15              je          0040DE14
  0040DDFF: 90                 nop
  0040DE00: 83 F8 29           cmp         eax,29h
  0040DE03: 0F 84 83 00 00 00  je          0040DE8C
  0040DE09: 83 C5 01           add         ebp,1
  0040DE0C: 0F BE 45 00        movsx       eax,byte ptr [ebp]
  0040DE10: 85 C0              test        eax,eax
  0040DE12: 75 EC              jne         0040DE00
  0040DE14: 83 C4 3C           add         esp,3Ch
  0040DE17: B0 04              mov         al,4
  0040DE19: 5B                 pop         ebx
  0040DE1A: 5E                 pop         esi
  0040DE1B: 5F                 pop         edi
  0040DE1C: 5D                 pop         ebp
  0040DE1D: C3                 ret
  0040DE1E: E8 7D 00 00 00     call        0040DEA0
  0040DE23: E9 CC FC FF FF     jmp         0040DAF4
  0040DE28: 0F B6 50 02        movzx       edx,byte ptr [eax+2]
  0040DE2C: 83 E2 DF           and         edx,0FFFFFFDFh
  0040DE2F: 80 FA 58           cmp         dl,58h
  0040DE32: 0F 85 26 FD FF FF  jne         0040DB5E
  0040DE38: 0F B6 50 03        movzx       edx,byte ptr [eax+3]
  0040DE3C: 80 FA 20           cmp         dl,20h
  0040DE3F: 0F 86 19 FD FF FF  jbe         0040DB5E
  0040DE45: 83 C0 02           add         eax,2
  0040DE48: E9 15 FD FF FF     jmp         0040DB62
  0040DE4D: 8B 44 24 58        mov         eax,dword ptr [esp+58h]
  0040DE51: C7 00 01 00 00 00  mov         dword ptr [eax],1
  0040DE57: 83 C4 3C           add         esp,3Ch
  0040DE5A: B8 05 00 00 00     mov         eax,5
  0040DE5F: 5B                 pop         ebx
  0040DE60: 5E                 pop         esi
  0040DE61: 5F                 pop         edi
  0040DE62: 5D                 pop         ebp
  0040DE63: C3                 ret
  0040DE64: 84 D2              test        dl,dl
  0040DE66: 74 8C              je          0040DDF4
  0040DE68: 8B 6C 24 50        mov         ebp,dword ptr [esp+50h]
  0040DE6C: 83 C0 02           add         eax,2
  0040DE6F: 83 FB 07           cmp         ebx,7
  0040DE72: 89 45 00           mov         dword ptr [ebp],eax
  0040DE75: 0F 8F CF FD FF FF  jg          0040DC4A
  0040DE7B: E9 08 FF FF FF     jmp         0040DD88
  0040DE80: 8B 54 24 1C        mov         edx,dword ptr [esp+1Ch]
  0040DE84: 8B 42 FC           mov         eax,dword ptr [edx-4]
  0040DE87: E9 FC FD FF FF     jmp         0040DC88
  0040DE8C: 8B 54 24 50        mov         edx,dword ptr [esp+50h]
  0040DE90: 8D 45 01           lea         eax,[ebp+1]
  0040DE93: 89 02              mov         dword ptr [edx],eax
  0040DE95: B8 04 00 00 00     mov         eax,4
  0040DE9A: E9 17 FE FF FF     jmp         0040DCB6
  0040DE9F: 90                 nop
  0040DEA0: B9 CF 09 41 00     mov         ecx,4109CFh
  0040DEA5: BA 10 00 00 00     mov         edx,10h
  0040DEAA: B8 30 00 00 00     mov         eax,30h
  0040DEAF: 90                 nop
  0040DEB0: 88 90 C0 1D 41 00  mov         byte ptr [eax+411DC0h],dl
  0040DEB6: 0F B6 01           movzx       eax,byte ptr [ecx]
  0040DEB9: 83 C2 01           add         edx,1
  0040DEBC: 83 C1 01           add         ecx,1
  0040DEBF: 84 C0              test        al,al
  0040DEC1: 75 ED              jne         0040DEB0
  0040DEC3: B9 C8 09 41 00     mov         ecx,4109C8h
  0040DEC8: BA 1A 00 00 00     mov         edx,1Ah
  0040DECD: B8 61 00 00 00     mov         eax,61h
  0040DED2: 88 90 C0 1D 41 00  mov         byte ptr [eax+411DC0h],dl
  0040DED8: 0F B6 01           movzx       eax,byte ptr [ecx]
  0040DEDB: 83 C2 01           add         edx,1
  0040DEDE: 83 C1 01           add         ecx,1
  0040DEE1: 84 C0              test        al,al
  0040DEE3: 75 ED              jne         0040DED2
  0040DEE5: B9 C1 09 41 00     mov         ecx,4109C1h
  0040DEEA: BA 1A 00 00 00     mov         edx,1Ah
  0040DEEF: B8 41 00 00 00     mov         eax,41h
  0040DEF4: 88 90 C0 1D 41 00  mov         byte ptr [eax+411DC0h],dl
  0040DEFA: 0F B6 01           movzx       eax,byte ptr [ecx]
  0040DEFD: 83 C2 01           add         edx,1
  0040DF00: 83 C1 01           add         ecx,1
  0040DF03: 84 C0              test        al,al
  0040DF05: 75 ED              jne         0040DEF4
  0040DF07: F3 C3              rep ret
  0040DF09: 90                 nop
  0040DF0A: 90                 nop
  0040DF0B: 90                 nop
  0040DF0C: 90                 nop
  0040DF0D: 90                 nop
  0040DF0E: 90                 nop
  0040DF0F: 90                 nop
  0040DF10: FF 25 30 22 41 00  jmp         dword ptr ds:[412230h]
  0040DF16: 90                 nop
  0040DF17: 90                 nop
  0040DF18: FF 25 40 22 41 00  jmp         dword ptr ds:[412240h]
  0040DF1E: 90                 nop
  0040DF1F: 90                 nop
  0040DF20: FF 25 A8 22 41 00  jmp         dword ptr ds:[4122A8h]
  0040DF26: 90                 nop
  0040DF27: 90                 nop
  0040DF28: FF 25 A4 22 41 00  jmp         dword ptr ds:[4122A4h]
  0040DF2E: 90                 nop
  0040DF2F: 90                 nop
  0040DF30: FF 25 C0 22 41 00  jmp         dword ptr ds:[4122C0h]
  0040DF36: 90                 nop
  0040DF37: 90                 nop
  0040DF38: FF 25 50 22 41 00  jmp         dword ptr ds:[412250h]
  0040DF3E: 90                 nop
  0040DF3F: 90                 nop
  0040DF40: FF 25 4C 22 41 00  jmp         dword ptr ds:[41224Ch]
  0040DF46: 90                 nop
  0040DF47: 90                 nop
  0040DF48: FF 25 5C 22 41 00  jmp         dword ptr ds:[41225Ch]
  0040DF4E: 90                 nop
  0040DF4F: 90                 nop
  0040DF50: FF 25 7C 22 41 00  jmp         dword ptr ds:[41227Ch]
  0040DF56: 90                 nop
  0040DF57: 90                 nop
  0040DF58: FF 25 64 22 41 00  jmp         dword ptr ds:[412264h]
  0040DF5E: 90                 nop
  0040DF5F: 90                 nop
  0040DF60: FF 25 2C 22 41 00  jmp         dword ptr ds:[41222Ch]
  0040DF66: 90                 nop
  0040DF67: 90                 nop
  0040DF68: FF 25 6C 22 41 00  jmp         dword ptr ds:[41226Ch]
  0040DF6E: 90                 nop
  0040DF6F: 90                 nop
  0040DF70: FF 25 B4 22 41 00  jmp         dword ptr ds:[4122B4h]
  0040DF76: 90                 nop
  0040DF77: 90                 nop
  0040DF78: FF 25 44 22 41 00  jmp         dword ptr ds:[412244h]
  0040DF7E: 90                 nop
  0040DF7F: 90                 nop
  0040DF80: FF 25 70 22 41 00  jmp         dword ptr ds:[412270h]
  0040DF86: 90                 nop
  0040DF87: 90                 nop
  0040DF88: FF 25 C4 22 41 00  jmp         dword ptr ds:[4122C4h]
  0040DF8E: 90                 nop
  0040DF8F: 90                 nop
  0040DF90: FF 25 78 22 41 00  jmp         dword ptr ds:[412278h]
  0040DF96: 90                 nop
  0040DF97: 90                 nop
  0040DF98: FF 25 84 22 41 00  jmp         dword ptr ds:[412284h]
  0040DF9E: 90                 nop
  0040DF9F: 90                 nop
  0040DFA0: FF 25 AC 22 41 00  jmp         dword ptr ds:[4122ACh]
  0040DFA6: 90                 nop
  0040DFA7: 90                 nop
  0040DFA8: FF 25 88 22 41 00  jmp         dword ptr ds:[412288h]
  0040DFAE: 90                 nop
  0040DFAF: 90                 nop
  0040DFB0: FF 25 D4 22 41 00  jmp         dword ptr ds:[4122D4h]
  0040DFB6: 90                 nop
  0040DFB7: 90                 nop
  0040DFB8: FF 25 A0 22 41 00  jmp         dword ptr ds:[4122A0h]
  0040DFBE: 90                 nop
  0040DFBF: 90                 nop
  0040DFC0: FF 25 94 22 41 00  jmp         dword ptr ds:[412294h]
  0040DFC6: 90                 nop
  0040DFC7: 90                 nop
  0040DFC8: FF 25 54 22 41 00  jmp         dword ptr ds:[412254h]
  0040DFCE: 90                 nop
  0040DFCF: 90                 nop
  0040DFD0: FF 25 D0 22 41 00  jmp         dword ptr ds:[4122D0h]
  0040DFD6: 90                 nop
  0040DFD7: 90                 nop
  0040DFD8: FF 25 9C 22 41 00  jmp         dword ptr ds:[41229Ch]
  0040DFDE: 90                 nop
  0040DFDF: 90                 nop
  0040DFE0: FF 25 CC 22 41 00  jmp         dword ptr ds:[4122CCh]
  0040DFE6: 90                 nop
  0040DFE7: 90                 nop
  0040DFE8: FF 25 C8 22 41 00  jmp         dword ptr ds:[4122C8h]
  0040DFEE: 90                 nop
  0040DFEF: 90                 nop
  0040DFF0: FF 25 80 22 41 00  jmp         dword ptr ds:[412280h]
  0040DFF6: 90                 nop
  0040DFF7: 90                 nop
  0040DFF8: FF 25 8C 22 41 00  jmp         dword ptr ds:[41228Ch]
  0040DFFE: 90                 nop
  0040DFFF: 90                 nop
  0040E000: FF 25 BC 22 41 00  jmp         dword ptr ds:[4122BCh]
  0040E006: 90                 nop
  0040E007: 90                 nop
  0040E008: FF 25 D8 22 41 00  jmp         dword ptr ds:[4122D8h]
  0040E00E: 90                 nop
  0040E00F: 90                 nop
  0040E010: FF 25 98 22 41 00  jmp         dword ptr ds:[412298h]
  0040E016: 90                 nop
  0040E017: 90                 nop
  0040E018: FF 25 90 22 41 00  jmp         dword ptr ds:[412290h]
  0040E01E: 90                 nop
  0040E01F: 90                 nop
  0040E020: FF 25 B0 22 41 00  jmp         dword ptr ds:[4122B0h]
  0040E026: 90                 nop
  0040E027: 90                 nop
  0040E028: FF 25 B8 22 41 00  jmp         dword ptr ds:[4122B8h]
  0040E02E: 90                 nop
  0040E02F: 90                 nop
  0040E030: FF 25 74 22 41 00  jmp         dword ptr ds:[412274h]
  0040E036: 90                 nop
  0040E037: 90                 nop
  0040E038: FF 25 BC 21 41 00  jmp         dword ptr ds:[4121BCh]
  0040E03E: 90                 nop
  0040E03F: 90                 nop
  0040E040: FF 25 B8 21 41 00  jmp         dword ptr ds:[4121B8h]
  0040E046: 90                 nop
  0040E047: 90                 nop
  0040E048: FF 25 B4 21 41 00  jmp         dword ptr ds:[4121B4h]
  0040E04E: 90                 nop
  0040E04F: 90                 nop
  0040E050: 55                 push        ebp
  0040E051: 89 E5              mov         ebp,esp
  0040E053: 57                 push        edi
  0040E054: 56                 push        esi
  0040E055: 53                 push        ebx
  0040E056: 83 EC 6C           sub         esp,6Ch
  0040E059: C7 45 BC 38 16 40  mov         dword ptr [ebp-44h],401638h
            00
  0040E060: C7 45 C0 44 E1 40  mov         dword ptr [ebp-40h],40E144h
            00
  0040E067: 8D 45 C4           lea         eax,[ebp-3Ch]
  0040E06A: 8D 4D E8           lea         ecx,[ebp-18h]
  0040E06D: 89 08              mov         dword ptr [eax],ecx
  0040E06F: BA AD E0 40 00     mov         edx,40E0ADh
  0040E074: 89 50 04           mov         dword ptr [eax+4],edx
  0040E077: 89 60 08           mov         dword ptr [eax+8],esp
  0040E07A: 8D 45 A4           lea         eax,[ebp-5Ch]
  0040E07D: 89 04 24           mov         dword ptr [esp],eax
  0040E080: E8 1B 47 FF FF     call        004027A0
  0040E085: 8D 45 0C           lea         eax,[ebp+0Ch]
  0040E088: 89 45 E4           mov         dword ptr [ebp-1Ch],eax
  0040E08B: 8B 45 E4           mov         eax,dword ptr [ebp-1Ch]
  0040E08E: 89 44 24 04        mov         dword ptr [esp+4],eax
  0040E092: 8B 45 08           mov         eax,dword ptr [ebp+8]
  0040E095: 89 04 24           mov         dword ptr [esp],eax
  0040E098: C7 45 A8 01 00 00  mov         dword ptr [ebp-58h],1
            00
  0040E09F: E8 7C 47 FF FF     call        00402820
  0040E0A4: 89 C3              mov         ebx,eax
  0040E0A6: 89 D8              mov         eax,ebx
  0040E0A8: 89 45 A0           mov         dword ptr [ebp-60h],eax
  0040E0AB: EB 15              jmp         0040E0C2
  0040E0AD: 8D 6D 18           lea         ebp,[ebp+18h]
  0040E0B0: 8B 45 AC           mov         eax,dword ptr [ebp-54h]
  0040E0B3: 89 04 24           mov         dword ptr [esp],eax
  0040E0B6: C7 45 A8 FF FF FF  mov         dword ptr [ebp-58h],0FFFFFFFFh
            FF
  0040E0BD: E8 EE 46 FF FF     call        004027B0
  0040E0C2: 8D 45 A4           lea         eax,[ebp-5Ch]
  0040E0C5: 89 04 24           mov         dword ptr [esp],eax
  0040E0C8: E8 DB 46 FF FF     call        004027A8
  0040E0CD: 8B 45 A0           mov         eax,dword ptr [ebp-60h]
  0040E0D0: 83 C4 6C           add         esp,6Ch
  0040E0D3: 5B                 pop         ebx
  0040E0D4: 5E                 pop         esi
  0040E0D5: 5F                 pop         edi
  0040E0D6: 5D                 pop         ebp
  0040E0D7: C3                 ret
  0040E0D8: 55                 push        ebp
  0040E0D9: 89 E5              mov         ebp,esp
  0040E0DB: 53                 push        ebx
  0040E0DC: 83 EC 24           sub         esp,24h
  0040E0DF: 8D 45 0C           lea         eax,[ebp+0Ch]
  0040E0E2: 89 45 F4           mov         dword ptr [ebp-0Ch],eax
  0040E0E5: 8B 45 F4           mov         eax,dword ptr [ebp-0Ch]
  0040E0E8: 89 44 24 04        mov         dword ptr [esp+4],eax
  0040E0EC: 8B 45 08           mov         eax,dword ptr [ebp+8]
  0040E0EF: 89 04 24           mov         dword ptr [esp],eax
  0040E0F2: E8 59 47 FF FF     call        00402850
  0040E0F7: 89 C3              mov         ebx,eax
  0040E0F9: 89 D8              mov         eax,ebx
  0040E0FB: 83 C4 24           add         esp,24h
  0040E0FE: 5B                 pop         ebx
  0040E0FF: 5D                 pop         ebp
  0040E100: C3                 ret
  0040E101: 90                 nop
  0040E102: 90                 nop
  0040E103: 90                 nop
  0040E104: 66
  0040E105: 90                 nop
  0040E106: 66
  0040E107: 90                 nop
  0040E108: 66
  0040E109: 90                 nop
  0040E10A: 66
  0040E10B: 90                 nop
  0040E10C: 66
  0040E10D: 90                 nop
  0040E10E: 66
  0040E10F: 90                 nop
  0040E110: 55                 push        ebp
  0040E111: 89 E5              mov         ebp,esp
  0040E113: 83 EC 18           sub         esp,18h
  0040E116: E8 E5 33 FF FF     call        00401500
  0040E11B: C7 04 24 50 15 40  mov         dword ptr [esp],401550h
            00
  0040E122: E8 E9 36 FF FF     call        00401810
  0040E127: C9                 leave
  0040E128: C3                 ret
  0040E129: 90                 nop
  0040E12A: 90                 nop
  0040E12B: 90                 nop
  0040E12C: 90                 nop
  0040E12D: 90                 nop
  0040E12E: 90                 nop
  0040E12F: 90                 nop
  0040E130: FF
  0040E131: FF
  0040E132: FF
  0040E133: FF 10              call        dword ptr [eax]
  0040E135: E1 40              loope       0040E177
  0040E137: 00 00              add         byte ptr [eax],al
  0040E139: 00 00              add         byte ptr [eax],al
  0040E13B: 00 FF              add         bh,bh
  0040E13D: FF
  0040E13E: FF
  0040E13F: FF 00              inc         dword ptr [eax]
  0040E141: 00 00              add         byte ptr [eax],al
  0040E143: 00 FF              add         bh,bh
  0040E145: FF 01              inc         dword ptr [ecx]
  0040E147: 02 00              add         al,byte ptr [eax]
  0040E149: 00 FF              add         bh,bh
  0040E14B: FF 01              inc         dword ptr [ecx]
  0040E14D: 02 00              add         al,byte ptr [eax]
  0040E14F: 00

  Summary

        1000 .CRT
        1000 .bss
        1000 .data
        1000 .debug_abbrev
        1000 .debug_aranges
        1000 .debug_frame
        1000 .debug_info
        1000 .debug_line
        1000 .idata
        1000 .rdata
        E000 .text
        1000 .tls
